                                                OP0c.lst	Page 1
***   PanaX Series MN103S/MN103L Cross Assembler   ***
Loc       Object            Line        Source

                              1  		NOTATION	CLANG
                              2  		FILE	"Host_comm.c"
                              3  		IDENT	"cc: MN103S Windows V5.4R1 Host_comm.c"
                              4  		IDENT	"-O -fenable-asm -fchar-bfield -flong-bfield -fc9x-comment -mmulq -mdivs -fenable-longlong -ffile-sjis -ffile-ascii"
                              5  	;;BGNFILE code\Host_comm.c
                              6  	.text			SECTION	"ax",PROGBITS,PUBLIC
                              7  	.rodata			SECTION	"a",PROGBITS,PUBLIC
                              8  		ALIGN	4
                              9  	.MN.data		SECTION	"aw",NOBITS,PUBLIC
                              10  		ALIGN	4
                              11  	.MN.romdata		SECTION	"a",PROGBITS,PUBLIC
                              12  		ALIGN	4
                              13  	.MN.romdataend		SECTION	"a",NOBITS,PUBLIC
                              14  		ALIGN	4
                              15  	.bss			SECTION	"aw",NOBITS,PUBLIC
                              16  		ALIGN	4
                              17  	.MN.bssend		SECTION	"aw",NOBITS,PUBLIC
                              18  		ALIGN	4
                              19  	.debug_info		SECTION	"n",PROGBITS,PUBLIC
                              20  	.debug_abbrev		SECTION	"n",PROGBITS,PUBLIC
                              21  	.debug_MN_rsc		SECTION	"n",PROGBITS,PUBLIC
                              22  	.debug_line		SECTION	"n",PROGBITS,PUBLIC
                              23  	.debug_frame		SECTION	"n",PROGBITS,PUBLIC
                              24  	.debug_aranges		SECTION	"n",PROGBITS,PUBLIC
                              25  	.debug_frame		SECTION
                              26  	;; Common Information Entry(CIE)
00000000                      27  	.LFR_TOP
00000000  00000000          + 28  		DD	.LFR_C_E-.LFR_C_B	;; length
00000004                      29  	.LFR_C_B
00000004  FFFFFFFF            30  		DD	0xffffffff	;; CIE_id
00000008  01                  31  		DC	0x1	;; version
00000009  00                  32  		DC	0x0	;; augmentation
0000000a  01                  33  		DC	0x1	;; code_alignment_factor
0000000b  7C                  34  		DC	0x7c	;; data_alignment_factor
0000000c  0A                  35  		DC	0xa	;; return_address_register
                              36  		;; initial_instructions
0000000d  0C0900              37  		DC	0xc,0x9,0x0	;; DW_CFA_def_cfa(SP,0)
00000010  8A00                38  		DC	0x8a,0x0	;; DW_CFA_offset(RET,0)
00000012  0700                39  		DC	0x7,0x0	;; DW_CFA_undefined(D0)
00000014  0701                40  		DC	0x7,0x1	;; DW_CFA_undefined(D1)
00000016  0802                41  		DC	0x8,0x2	;; DW_CFA_same_value(D2)
00000018  0803                42  		DC	0x8,0x3	;; DW_CFA_same_value(D3)
0000001a  0704                43  		DC	0x7,0x4	;; DW_CFA_undefined(A0)
0000001c  0705                44  		DC	0x7,0x5	;; DW_CFA_undefined(A1)
0000001e  0806                45  		DC	0x8,0x6	;; DW_CFA_same_value(A2)
00000020  0807                46  		DC	0x8,0x7	;; DW_CFA_same_value(A3)
00000022  0809                47  		DC	0x8,0x9	;; DW_CFA_same_value(SP)
00000024                      48  	.LFR_C_E
                              49  	;; End of Common Information Entry
                              50  	.text		SECTION
00000000                      51  	.LPC_TOP
                              52  		GLOBAL	_disable_irq
                              53  		GLOBAL	_0disable_irq
                              54  		GLOBAL	_flg_ctrl
                              55  		GLOBAL	_flg_theta
                              56  		GLOBAL	_EEPROM_InitData
                              57  		GLOBAL	_ram_para
                              58  		GLOBAL	_App_index
                              59  		GLOBAL	_App_para
                              60  		GLOBAL	_writeword_to_eeprom
                              61  		GLOBAL	_0writeword_to_eeprom
                              62  		GLOBAL	_gus_Iout_peak
                              63  		GLOBAL	_gus_Iout_for_disp
                              64  		GLOBAL	_gus_Udc_for_disp
                              65  		GLOBAL	_gss_Tm
                              66  		GLOBAL	_gus_speed_real
                              67  		GLOBAL	_gus_MAX_setfreq
                              68  		GLOBAL	_trip_stop_deal
                              69  		GLOBAL	_0trip_stop_deal
                              70  		GLOBAL	_flg_fault
                              71  		GLOBAL	_guc_trip_code
                              72  		GLOBAL	_guc_state_code
                              73  		GLOBAL	_guc_motor_block_cnt
                              74  		GLOBAL	_guc_Iout_fault_cnt
                              75  		GLOBAL	_guc_ALM_fault_cnt
                              76  		GLOBAL	_motor_var_init
                              77  		GLOBAL	_0motor_var_init
                              78  		GLOBAL	_flg_Hall
                              79  		GLOBAL	_gus_Hall_freq
                              80  		GLOBAL	_gus_phase_adv_degree
                              81  		GLOBAL	_guc_motor_ID
                              82  	;;FUNC S _SCI0_configure
                              83  	.text		SECTION
                              84  		GLOBAL	_SCI0_configure
                              85  		GLOBAL	_0SCI0_configure
00000000                      86  	_SCI0_configure
                              87  	;;PROLOG 0x0
                              88  	_0SCI0_configure		FUNCINFO _SCI0_configure,0,[]
                              89  	;;LINE 126, 1, 1
00000000                      90  	.DWLopt1
00000000  2C0050              91  		mov	20480,D0
00000003  036489              92  		movhu	D0,(35172)
                              93  	;;LINE 140, 1, 1
00000006                      94  	.DWLopt2
00000006  FE8160A103          95  		bclr	3,(41312)
                              96  	;;LINE 157, 1, 1
0000000b                      97  	.DWLopt3
0000000b  8008                98  		mov	8,D0
0000000d  0205A1              99  		movbu	D0,(41221)
                              100  	;;LINE 160, 1, 1
00000010                      101  	.DWLopt4
00000010  FE8032A005          102  		bset	5,(41010)
                              103  	;;LINE 174, 1, 1
00000015                      104  	.DWLopt5
00000015  8018                105  		mov	24,D0
00000017  0200A1              106  		movbu	D0,(41216)
                              107  	;;LINE 190, 1, 1
0000001a                      108  	.DWLopt6
0000001a  803D                109  		mov	61,D0
0000001c  0201A1              110  		movbu	D0,(41217)
                              111  	;;LINE 206, 1, 1
0000001f                      112  	.DWLopt7
0000001f  2C9800              113  		mov	152,D0
00000022  0204A1              114  		movbu	D0,(41220)
                              115  	;;LINE 234, 1, 1
00000025                      116  	.DWLopt8
00000025  380C89              117  		movhu	(35084),D0
00000028  FAE0FFFE            118  		and	65279,D0
0000002c  030C89              119  		movhu	D0,(35084)
                              120  	;;LINE 236, 1, 1
0000002f                      121  	.DWLopt9
0000002f  2400A2              122  		mov	41472,A0
00000032  3400A2              123  		movbu	(41472),D0
00000035  F8E07F              124  		and	127,D0
00000038  F050                125  		movbu	D0,(A0)
                              126  	;;LINE 246, 1, 1
0000003a                      127  	.DWLopt10
0000003a  2C8000              128  		mov	128,D0
0000003d  0218A2              129  		movbu	D0,(41496)
                              130  	;;LINE 260, 1, 1
00000040                      131  	.DWLopt11
00000040  00                  132  		clr	D0
00000041  021CA2              133  		movbu	D0,(41500)
                              134  	;;LINE 273, 1, 1
00000044                      135  	.DWLopt12
00000044  8001                136  		mov	1,D0
00000046  F050                137  		movbu	D0,(A0)
                              138  	;;LINE 283, 1, 1
00000048                      139  	.DWLopt13
00000048  8041                140  		mov	65,D0
0000004a  0208A2              141  		movbu	D0,(41480)
                              142  	;;LINE 285, 1, 1
0000004d                      143  	.DWLopt14
0000004d  3400A2              144  		movbu	(41472),D0
00000050  F8E440              145  		or	64,D0
00000053  F050                146  		movbu	D0,(A0)
                              147  	;;LINE 287, 1, 1
00000055                      148  	.DWLopt15
00000055  3400A2              149  		movbu	(41472),D0
00000058  F8E0BF              150  		and	191,D0
0000005b  F050                151  		movbu	D0,(A0)
                              152  	;;LINE 289, 1, 1
0000005d                      153  	.DWLopt16
0000005d  3400A2              154  		movbu	(41472),D0
00000060  F8E480              155  		or	128,D0
00000063  F050                156  		movbu	D0,(A0)
                              157  	;;LINE 291, 1, 1
00000065                      158  	.DWLopt17
00000065  FCAC00000000      @ 159  		movhu	(_flg_SCI0),D0
0000006b  FAE0FEFF            160  		and	65534,D0
0000006f  FC8300000000      @ 161  		movhu	D0,(_flg_SCI0)
                              162  	;;LINE 292, 1, 1
00000075                      163  	.DWLopt18
00000075  00                  164  		clr	D0
00000076  FC8300000000      @ 165  		movhu	D0,(_gss_SCI0_tx_delaytimer)
                              166  	;;LINE 294, 1, 1
0000007c                      167  	.DWLopt19
0000007c  FCAC00000000      @ 168  		movhu	(_flg_SCI0),D0
00000082  F8E402              169  		or	2,D0
00000085  FC8300000000      @ 170  		movhu	D0,(_flg_SCI0)
                              171  	;;LINE 295, 1, 1
0000008b                      172  	.DWLopt20
0000008b  8005                173  		mov	5,D0
0000008d  FC8300000000      @ 174  		movhu	D0,(_gss_SCI0_rx_delaytimer)
                              175  	;;LINE 297, 1, 1
00000093                      176  	.DWLopt21
00000093  FCAC00000000      @ 177  		movhu	(_flg_SCI0),D0
                              178  	;;LINE 300, 1, 1
00000099                      179  	.DWLopt22
00000099  FAE0F3FE            180  		and	65267,D0
0000009d  FC8300000000      @ 181  		movhu	D0,(_flg_SCI0)
                              182  	;;LINE 302, 1, 1
000000a3                      183  	.DWLopt23
000000a3  8008                184  		mov	8,D0
000000a5  FC8200000000      @ 185  		movbu	D0,(_guc_SCI0_rx_len)
                              186  	;;LINE 304, 1, 1
000000ab                      187  	.DWLopt24
000000ab  DE0000              188  		retf
000000ae                      189  	.LDW26
                              190  		FUNCTION	_0SCI0_configure,.LDW26-_0SCI0_configure
                              191  		FUNCTION	_SCI0_configure,.LDW26-_SCI0_configure
                              192  	;; Resource Information
                              193  		;; No Information
                              194  	.debug_frame		SECTION
                              195  	;; Frame Description Entry(FDE)
00000024  00000000          + 196  		DD	.LDW69-.LDW68	;; length
00000028                      197  	.LDW68
00000028  00000000          + 198  		DD	.LFR_TOP	;; CIE_pointer
0000002c  00000000          + 199  		DD	_SCI0_configure	;; initial location
00000030  00000000          + 200  		DD	.LDW26-_SCI0_configure	;; address_range
                              201  		;; Prologue
00000034  02                  202  		DC	0x2	;; DW_CFA_advance_loc1(_0SCI0_configure-_SCI0_configure)
00000035  00                + 203  		DC	_0SCI0_configure-_SCI0_configure
00000036  0E00                204  		DC	0xe,0x0	;; DW_CFA_def_cfa_offset(0)
                              205  		;; Epilogue
00000038                      206  	.LDW69
                              207  	;; End of Frame Description Entry
                              208  	;;FUNC E _SCI0_configure
                              209  	;;FUNC S _SCI0comm_reset
                              210  	.text		SECTION
                              211  		GLOBAL	_SCI0comm_reset
                              212  		GLOBAL	_0SCI0comm_reset
000000ae                      213  	_SCI0comm_reset
                              214  	;;PROLOG 0x4
000000ae  CF80                215  		movm	[D2],(SP)
                              216  	_0SCI0comm_reset		FUNCINFO _SCI0comm_reset,4,[D2]
                              217  	;;LINE 312, 1, 1
000000b0                      218  	.DWLopt31
000000b0  246489              219  		mov	35172,A0
000000b3  8002                220  		mov	2,D0
000000b5  F050                221  		movbu	D0,(A0)
                              222  	;;LINE 313, 1, 1
000000b7                      223  	.DWLopt32
000000b7  386489              224  		movhu	(35172),D0
000000ba  FAE0FFFD            225  		and	65023,D0
000000be  F070                226  		movhu	D0,(A0)
                              227  	;;LINE 315, 1, 1
000000c0                      228  	.DWLopt33
000000c0  8001                229  		mov	1,D0
000000c2  F050                230  		movbu	D0,(A0)
                              231  	;;LINE 316, 1, 1
000000c4                      232  	.DWLopt34
000000c4  386489              233  		movhu	(35172),D0
000000c7  FAE0FFFE            234  		and	65279,D0
000000cb  F070                235  		movhu	D0,(A0)
                              236  	;;LINE 319, 1, 1
000000cd                      237  	.DWLopt35
000000cd  FCAC00000000      @ 238  		movhu	(_flg_SCI0),D0
000000d3  FAEC0001            239  		btst	256,D0
000000d7  C807DC00000000    @ 240  		bne	L00006
                              241  	;;LINE 321, 1, 1
000000de                      242  	.DWLopt36
000000de  2D0002              243  		mov	512,D1
000000e1  F204                244  		and	D1,D0
000000e3  C807DC00000000    @ 245  		bne	L00008
                              246  	;;LINE 323, 1, 1
000000ea                      247  	.DWLopt37
000000ea  FCAC00000000      @ 248  		movhu	(_flg_SCI0),D0
000000f0  F214                249  		or	D1,D0
000000f2  FC8300000000      @ 250  		movhu	D0,(_flg_SCI0)
                              251  	;;LINE 324, 1, 1
000000f8                      252  	.DWLopt38
000000f8  2CB000              253  		mov	176,D0
000000fb  0204A1              254  		movbu	D0,(41220)
000000fe  DC00000000        @ 255  		bra	L00006
00000103                      256  	L00008
                              257  	;;LINE 328, 1, 1
00000103                      258  	.DWLopt39
00000103  FCAC00000000      @ 259  		movhu	(_flg_SCI0),D0
00000109  FAE0FFFD            260  		and	65023,D0
0000010d  FC8300000000      @ 261  		movhu	D0,(_flg_SCI0)
                              262  	;;LINE 329, 1, 1
00000113                      263  	.DWLopt40
00000113  2C8800              264  		mov	136,D0
00000116  0204A1              265  		movbu	D0,(41220)
00000119                      266  	L00006
                              267  	;;LINE 334, 1, 1
00000119                      268  	.DWLopt41
00000119  FCAC00000000      @ 269  		movhu	(_flg_SCI0),D0
                              270  	;;LINE 341, 1, 1
0000011f                      271  	.DWLopt42
0000011f  04                  272  		clr	D1
                              273  	;;LINE 337, 1, 1
00000120                      274  	.DWLopt43
00000120  FAE08BFF            275  		and	65419,D0
00000124  FC8300000000      @ 276  		movhu	D0,(_flg_SCI0)
                              277  	;;LINE 341, 1, 1
0000012a                      278  	.DWLopt44
0000012a  00                  279  		clr	D0
0000012b                      280  	.DWLopt27
                              281  	;;LINE 343, 1, 1
0000012b                      282  	.DWLopt45
0000012b  FCDC00000000      @ 283  		mov	_guc_SCI0_rx_buffer,A0
                              284  	;;LINE 0, 0, 1
00000131                      285  	.DWLopt46
00000131  DB                  286  		setlb
                              287  	;;LINE 343, 0, 1
00000132                      288  	.DWLopt47
00000132  1C                  289  		exthu	D0
00000133  08                  290  		clr	D2
00000134  F460                291  		movbu	D2,(D0,A0)
00000136                      292  	.DWLopt28
                              293  	;;LINE 341, 1, 1
00000136                      294  	.DWLopt48
00000136  44                  295  		inc	D1
00000137  84                  296  		mov	D1,D0
                              297  	;;LINE 341, 1, 1
00000138                      298  	.DWLopt49
00000138  1D                  299  		exthu	D1
00000139  A514                300  		cmp	20,D1
0000013b  D0                  301  		llt
                              302  	;;LINE 346, 1, 1
0000013c                      303  	.DWLopt50
0000013c  00                  304  		clr	D0
0000013d                      305  	.DWLopt29
                              306  	;;LINE 346, 1, 1
0000013d                      307  	.DWLopt51
0000013d  04                  308  		clr	D1
                              309  	;;LINE 348, 1, 1
0000013e                      310  	.DWLopt52
0000013e  FCDC00000000      @ 311  		mov	_guc_SCI0_tx_buffer,A0
                              312  	;;LINE 0, 0, 1
00000144                      313  	.DWLopt53
00000144  DB                  314  		setlb
                              315  	;;LINE 348, 0, 1
00000145                      316  	.DWLopt54
00000145  1C                  317  		exthu	D0
00000146  F460                318  		movbu	D2,(D0,A0)
00000148                      319  	.DWLopt30
                              320  	;;LINE 346, 1, 1
00000148                      321  	.DWLopt55
00000148  44                  322  		inc	D1
00000149  84                  323  		mov	D1,D0
                              324  	;;LINE 346, 1, 1
0000014a                      325  	.DWLopt56
0000014a  1D                  326  		exthu	D1
0000014b  A514                327  		cmp	20,D1
0000014d  D0                  328  		llt
                              329  	;;LINE 351, 1, 1
0000014e                      330  	.DWLopt57
0000014e  FCAC00000000      @ 331  		movhu	(_flg_SCI0),D0
00000154  FAE0FEFF            332  		and	65534,D0
00000158  FC8300000000      @ 333  		movhu	D0,(_flg_SCI0)
                              334  	;;LINE 354, 1, 1
0000015e                      335  	.DWLopt58
0000015e  FCAC00000000      @ 336  		movhu	(_flg_SCI0),D0
00000164  F8E402              337  		or	2,D0
00000167  FC8300000000      @ 338  		movhu	D0,(_flg_SCI0)
                              339  	;;LINE 352, 1, 1
0000016d                      340  	.DWLopt59
0000016d  00                  341  		clr	D0
0000016e  FC8300000000      @ 342  		movhu	D0,(_gss_SCI0_tx_delaytimer)
                              343  	;;LINE 355, 1, 1
00000174                      344  	.DWLopt60
00000174  8005                345  		mov	5,D0
00000176  FC8300000000      @ 346  		movhu	D0,(_gss_SCI0_rx_delaytimer)
                              347  	;;LINE 357, 1, 1
0000017c                      348  	.DWLopt61
0000017c  DE8004              349  		retf
0000017f                      350  	.LDW27
                              351  		FUNCTION	_0SCI0comm_reset,.LDW27-_0SCI0comm_reset
                              352  		FUNCTION	_SCI0comm_reset,.LDW27-_SCI0comm_reset
                              353  	.debug_MN_rsc		SECTION
                              354  	;; Resource Information
                              355  	;; resource_list  1
00000000                      356  	.LDW70
                              357  		;; loc_data  1
00000000  00000000          + 358  		DD	.DWLopt27	;; address
00000004  01                  359  		DC	0x1	;;   size of loc_exp
00000005  50                  360  		DC	0x50	;;   DW_OP_reg0
                              361  		;; loc_data  2
00000006  00000000          + 362  		DD	.DWLopt28	;; address
0000000a  01                  363  		DC	0x1	;;   size of loc_exp
0000000b  E1                  364  		DC	0xe1	;;   DW_OP_MN_void
                              365  		;; loc_data  3
0000000c  00000000          + 366  		DD	.DWLopt29	;; address
00000010  01                  367  		DC	0x1	;;   size of loc_exp
00000011  50                  368  		DC	0x50	;;   DW_OP_reg0
                              369  		;; loc_data  4
00000012  00000000          + 370  		DD	.DWLopt30	;; address
00000016  01                  371  		DC	0x1	;;   size of loc_exp
00000017  E1                  372  		DC	0xe1	;;   DW_OP_MN_void
                              373  		;; end
00000018  00000000            374  		DD	0x0
0000001c  00                  375  		DC	0x0
                              376  	;; End of Resource Information
                              377  	.debug_frame		SECTION
                              378  	;; Frame Description Entry(FDE)
00000038  00000000          + 379  		DD	.LDW105-.LDW104	;; length
0000003c                      380  	.LDW104
0000003c  00000000          + 381  		DD	.LFR_TOP	;; CIE_pointer
00000040  00000000          + 382  		DD	_SCI0comm_reset	;; initial location
00000044  00000000          + 383  		DD	.LDW27-_SCI0comm_reset	;; address_range
                              384  		;; Prologue
00000048  02                  385  		DC	0x2	;; DW_CFA_advance_loc1(_0SCI0comm_reset-_SCI0comm_reset)
00000049  00                + 386  		DC	_0SCI0comm_reset-_SCI0comm_reset
0000004a  0E04                387  		DC	0xe,0x4	;; DW_CFA_def_cfa_offset(4)
0000004c  8201                388  		DC	0x82,0x1	;; DW_CFA_offset(D2,1)
                              389  		;; Epilogue
0000004e                      390  	.LDW105
                              391  	;; End of Frame Description Entry
                              392  	;;FUNC E _SCI0comm_reset
                              393  	;;FUNC S _SCI0_check_delaytime
                              394  	.text		SECTION
                              395  		GLOBAL	_SCI0_check_delaytime
                              396  		GLOBAL	_0SCI0_check_delaytime
0000017f                      397  	_SCI0_check_delaytime
                              398  	;;PROLOG 0x4
0000017f  F8FEFC              399  		add	-4,SP
                              400  	_0SCI0_check_delaytime		FUNCINFO _SCI0_check_delaytime,4,[]
                              401  	;;LINE 361, 1, 1
00000182                      402  	.DWLopt62
00000182  FCAC00000000      @ 403  		movhu	(_flg_ctrl),D0
00000188  F8EC20              404  		btst	32,D0
0000018b  C907DC00000000    @ 405  		beq	L00020
00000192  FCAC00000000      @ 406  		movhu	(_flg_SCI0),D0
00000198  FAEC0001            407  		btst	256,D0
0000019c  C807DC00000000    @ 408  		bne	L00020
                              409  	;;LINE 363, 1, 1
000001a3                      410  	.DWLopt63
000001a3  FCAC00000000      @ 411  		movhu	(_gus_SCI0_check_delaytimer),D0
000001a9  40                  412  		inc	D0
000001aa  FC8300000000      @ 413  		movhu	D0,(_gus_SCI0_check_delaytimer)
                              414  	;;LINE 364, 1, 1
000001b0                      415  	.DWLopt64
000001b0  1C                  416  		exthu	D0
000001b1  A005                417  		cmp	5,D0
000001b3  C207DC00000000    @ 418  		blt	L00020
                              419  	;;LINE 366, 1, 1
000001ba                      420  	.DWLopt65
000001ba  00                  421  		clr	D0
000001bb  FC8300000000      @ 422  		movhu	D0,(_gus_SCI0_check_delaytimer)
                              423  	;;LINE 367, 1, 1
000001c1                      424  	.DWLopt66
000001c1  CD00000000        + 425  		call	_0SCI0comm_reset
000001c6                      426  	L00020
                              427  	;;LINE 370, 1, 1
000001c6                      428  	.DWLopt67
000001c6  DF0004              429  		ret
000001c9                      430  	.LDW28
                              431  		FUNCTION	_0SCI0_check_delaytime,.LDW28-_0SCI0_check_delaytime
                              432  		FUNCTION	_SCI0_check_delaytime,.LDW28-_SCI0_check_delaytime
                              433  	;; Resource Information
                              434  		;; No Information
                              435  	.debug_frame		SECTION
                              436  	;; Frame Description Entry(FDE)
0000004e  00000000          + 437  		DD	.LDW113-.LDW112	;; length
00000052                      438  	.LDW112
00000052  00000000          + 439  		DD	.LFR_TOP	;; CIE_pointer
00000056  00000000          + 440  		DD	_SCI0_check_delaytime	;; initial location
0000005a  00000000          + 441  		DD	.LDW28-_SCI0_check_delaytime	;; address_range
                              442  		;; Prologue
0000005e  02                  443  		DC	0x2	;; DW_CFA_advance_loc1(_0SCI0_check_delaytime-_SCI0_check_delaytime)
0000005f  00                + 444  		DC	_0SCI0_check_delaytime-_SCI0_check_delaytime
00000060  0E04                445  		DC	0xe,0x4	;; DW_CFA_def_cfa_offset(4)
                              446  		;; Epilogue
00000062                      447  	.LDW113
                              448  	;; End of Frame Description Entry
                              449  	;;FUNC E _SCI0_check_delaytime
                              450  	;;FUNC S _SCI0_send_init
                              451  	.text		SECTION
                              452  		GLOBAL	_SCI0_send_init
                              453  		GLOBAL	_0SCI0_send_init
000001c9                      454  	_SCI0_send_init
                              455  	;;PROLOG 0x10
000001c9  CFA0                456  		movm	[D2,A2],(SP)
000001cb  F8FEF8              457  		add	-8,SP
                              458  	_0SCI0_send_init		FUNCINFO _SCI0_send_init,16,[D2,A2]
                              459  	;;LINE 379, 1, 1
000001ce                      460  	.DWLopt86
000001ce  FCA800000000      @ 461  		movbu	(_guc_SCI0_rx_buffer),D0
000001d4  A055                462  		cmp	85,D0
000001d6  C907DC00000000    @ 463  		beq	Lcb0006
000001dd  DC00000000        @ 464  		jmp	L00030
000001e2                      465  	Lcb0006
000001e2  FCA800000000      @ 466  		movbu	(_guc_SCI0_rx_len),D0
000001e8  A004                467  		cmp	4,D0
000001ea  C907DC00000000    @ 468  		beq	Lcb0007
000001f1  DC00000000        @ 469  		jmp	L00030
000001f6                      470  	Lcb0007
                              471  	;;LINE 387, 1, 1
000001f6                      472  	.DWLopt87
000001f6  FCAD00000000      @ 473  		movhu	(_gus_speed_real),D1
                              474  	;;LINE 383, 1, 1
000001fc                      475  	.DWLopt88
000001fc  FCA800000000      @ 476  		movbu	(_guc_SCI0_rx_buffer+1),D0
00000202  FC8200000000      @ 477  		movbu	D0,(_guc_SCI0_tx_buffer+1)
                              478  	;;LINE 384, 1, 1
00000208                      479  	.DWLopt89
00000208  FCA800000000      @ 480  		movbu	(_guc_SCI0_rx_buffer+2),D0
0000020e  FC8200000000      @ 481  		movbu	D0,(_guc_SCI0_tx_buffer+2)
                              482  	;;LINE 381, 1, 1
00000214                      483  	.DWLopt90
00000214  8055                484  		mov	85,D0
00000216  FC8200000000      @ 485  		movbu	D0,(_guc_SCI0_tx_buffer)
                              486  	;;LINE 387, 0, 1
0000021c                      487  	.DWLopt91
0000021c  2CFF00              488  		mov	255,D0
0000021f  F204                489  		and	D1,D0
                              490  	;;LINE 388, 1, 1
00000221                      491  	.DWLopt92
00000221  F8C908              492  		asr	8,D1
                              493  	;;LINE 387, 0, 1
00000224                      494  	.DWLopt93
00000224  FC8200000000      @ 495  		movbu	D0,(_guc_SCI0_tx_buffer+3)
                              496  	;;LINE 388, 0, 1
0000022a                      497  	.DWLopt94
0000022a  FC8600000000      @ 498  		movbu	D1,(_guc_SCI0_tx_buffer+4)
                              499  	;;LINE 390, 1, 1
00000230                      500  	.DWLopt95
00000230  FCA900000000      @ 501  		movbu	(_guc_trip_code),D1
00000236  A500                502  		cmp	0,D1
00000238  C007DC00000000    @ 503  		bge	Lcb0008
0000023f  DC00000000        @ 504  		jmp	S00062
00000244                      505  	Lcb0008
00000244  A552                506  		cmp	82,D1
00000246  C107DC00000000    @ 507  		ble	Lcb0009
0000024d  DC00000000        @ 508  		jmp	S00062
00000252                      509  	Lcb0009
00000252  44                  510  		inc	D1
00000253  FCDD00000000      @ 511  		mov	S00740,A1
00000259  800F                512  		mov	15,D0
0000025b  F204                513  		and	D1,D0
0000025d  F8C003              514  		asl	3,D0
00000260  F1E0                515  		mov	D0,A0
00000262  F174                516  		add	A1,A0
00000264  70                  517  		mov	(A0),D0
00000265  A4                  518  		cmp	D1,D0
00000266  C907DC00000000    @ 519  		beq	L00746
0000026d                      520  	Lcb000a
0000026d                      521  	L00828
                              522  	;;LINE 0, 0, 1
0000026d                      523  	.DWLopt96
0000026d  DB                  524  		setlb
0000026e                      525  	L00748
                              526  	;;LINE 390, 0, 1
0000026e                      527  	.DWLopt97
0000026e  A000                528  		cmp	0,D0
00000270  C807DC00000000    @ 529  		bne	Lcb000b
00000277  DC00000000        @ 530  		jmp	S00062
0000027c                      531  	Lcb000b
0000027c  2008                532  		add	8,A0
0000027e  FCD800000000      @ 533  		cmp	S00740+128,A0
00000284  C607DC00000000    @ 534  		bcs	L00751
0000028b                      535  	Lcb000c
0000028b  94                  536  		mov	A1,A0
0000028c                      537  	L00751
0000028c  70                  538  		mov	(A0),D0
0000028d  A4                  539  		cmp	D1,D0
0000028e  D9                  540  		lne
0000028f                      541  	L00746
0000028f  F82004              542  		mov	(4,A0),A0
00000292  F0F4                543  		jmp	(A0)
00000294                      544  	S00038
                              545  	;;LINE 395, 1, 1
00000294                      546  	.DWLopt98
00000294  DC00000000        @ 547  		jmp	S00062
00000299                      548  	S00041
                              549  	;;LINE 399, 1, 1
00000299                      550  	.DWLopt99
00000299  FCA800000000      @ 551  		movbu	(_guc_motor_block_cnt),D0
0000029f  A005                552  		cmp	5,D0
                              553  	;;LINE 398, 1, 1
000002a1                      554  	.DWLopt100
000002a1  8001                555  		mov	1,D0
000002a3  FC8200000000      @ 556  		movbu	D0,(_guc_LED_trip_code)
                              557  	;;LINE 399, 0, 1
000002a9                      558  	.DWLopt101
000002a9  C007DC00000000    @ 559  		bge	Lcb000d
000002b0  DC00000000        @ 560  		jmp	L00035
000002b5                      561  	Lcb000d
                              562  	;;LINE 401, 1, 1
000002b5                      563  	.DWLopt102
000002b5  8001                564  		mov	1,D0
                              565  	;;LINE 403, 1, 1
000002b7                      566  	.DWLopt103
000002b7  DC00000000        @ 567  		jmp	Lopt000005
000002bc                      568  	S00044
                              569  	;;LINE 406, 1, 1
000002bc                      570  	.DWLopt104
000002bc  8002                571  		mov	2,D0
                              572  	;;LINE 409, 1, 1
000002be                      573  	.DWLopt105
000002be  DC00000000        @ 574  		jmp	Lopt000003
000002c3                      575  	S00045
                              576  	;;LINE 413, 1, 1
000002c3                      577  	.DWLopt106
000002c3  FCA800000000      @ 578  		movbu	(_guc_Iout_fault_cnt),D0
000002c9  A005                579  		cmp	5,D0
                              580  	;;LINE 412, 1, 1
000002cb                      581  	.DWLopt107
000002cb  8002                582  		mov	2,D0
000002cd  FC8200000000      @ 583  		movbu	D0,(_guc_LED_trip_code)
                              584  	;;LINE 413, 0, 1
000002d3                      585  	.DWLopt108
000002d3  C007DC00000000    @ 586  		bge	Lcb000f
000002da  DC00000000        @ 587  		jmp	L00035
000002df                      588  	Lcb000e
                              589  	;;LINE 417, 1, 1
000002df                      590  	.DWLopt109
000002df  DC00000000        @ 591  		bra	Lcb000f
000002e4                      592  	S00048
                              593  	;;LINE 421, 1, 1
000002e4                      594  	.DWLopt110
000002e4  FCA800000000      @ 595  		movbu	(_guc_Iout_fault_cnt),D0
000002ea  A005                596  		cmp	5,D0
                              597  	;;LINE 420, 1, 1
000002ec                      598  	.DWLopt111
000002ec  8002                599  		mov	2,D0
000002ee  FC8200000000      @ 600  		movbu	D0,(_guc_LED_trip_code)
                              601  	;;LINE 421, 0, 1
000002f4                      602  	.DWLopt112
000002f4  C207DC00000000    @ 603  		blt	L00035
000002fb                      604  	Lcb000f
                              605  	;;LINE 423, 1, 1
000002fb                      606  	.DWLopt113
                              607  	;;LINE 415, 1, 1
000002fb                      608  	.DWLopt114
000002fb  8002                609  		mov	2,D0
                              610  	;;LINE 425, 1, 1
000002fd                      611  	.DWLopt115
000002fd  DC00000000        @ 612  		bra	Lopt000005
00000302                      613  	S00050
                              614  	;;LINE 428, 1, 1
00000302                      615  	.DWLopt116
00000302  8003                616  		mov	3,D0
00000304  FC8200000000      @ 617  		movbu	D0,(_guc_LED_trip_code)
                              618  	;;LINE 429, 1, 1
0000030a                      619  	.DWLopt117
0000030a  8004                620  		mov	4,D0
                              621  	;;LINE 430, 1, 1
0000030c                      622  	.DWLopt118
0000030c  DC00000000        @ 623  		bra	Lopt000005
00000311                      624  	S00051
                              625  	;;LINE 433, 1, 1
00000311                      626  	.DWLopt119
00000311  8004                627  		mov	4,D0
00000313  FC8200000000      @ 628  		movbu	D0,(_guc_LED_trip_code)
                              629  	;;LINE 434, 1, 1
00000319                      630  	.DWLopt120
00000319  8008                631  		mov	8,D0
                              632  	;;LINE 435, 1, 1
0000031b                      633  	.DWLopt121
0000031b  DC00000000        @ 634  		bra	Lopt000005
00000320                      635  	S00052
00000320                      636  	S00053
                              637  	;;LINE 443, 1, 1
00000320                      638  	.DWLopt122
                              639  	;;LINE 438, 1, 1
00000320                      640  	.DWLopt123
00000320  8005                641  		mov	5,D0
00000322  FC8200000000      @ 642  		movbu	D0,(_guc_LED_trip_code)
                              643  	;;LINE 444, 1, 1
00000328                      644  	.DWLopt124
                              645  	;;LINE 439, 1, 1
00000328                      646  	.DWLopt125
00000328  8010                647  		mov	16,D0
                              648  	;;LINE 445, 1, 1
0000032a                      649  	.DWLopt126
0000032a  DC00000000        @ 650  		bra	Lopt000005
0000032f                      651  	S00054
                              652  	;;LINE 450, 1, 1
0000032f                      653  	.DWLopt127
0000032f  FCA800000000      @ 654  		movbu	(_guc_ALM_fault_cnt),D0
00000335  A003                655  		cmp	3,D0
                              656  	;;LINE 448, 1, 1
00000337                      657  	.DWLopt128
00000337  8006                658  		mov	6,D0
00000339  FC8200000000      @ 659  		movbu	D0,(_guc_LED_trip_code)
                              660  	;;LINE 450, 0, 1
0000033f                      661  	.DWLopt129
0000033f  C207DC00000000    @ 662  		blt	L00035
00000346                      663  	Lcb0010
                              664  	;;LINE 454, 1, 1
00000346                      665  	.DWLopt130
00000346  DC00000000        @ 666  		bra	Lopt000004
0000034b                      667  	S00057
0000034b                      668  	S00058
                              669  	;;LINE 462, 1, 1
0000034b                      670  	.DWLopt131
                              671  	;;LINE 457, 1, 1
0000034b                      672  	.DWLopt132
0000034b  8006                673  		mov	6,D0
0000034d  FC8200000000      @ 674  		movbu	D0,(_guc_LED_trip_code)
00000353                      675  	Lopt000004
                              676  	;;LINE 463, 1, 1
00000353                      677  	.DWLopt133
                              678  	;;LINE 452, 1, 1
00000353                      679  	.DWLopt134
                              680  	;;LINE 458, 1, 1
00000353                      681  	.DWLopt135
00000353  8020                682  		mov	32,D0
                              683  	;;LINE 464, 1, 1
00000355                      684  	.DWLopt136
00000355  DC00000000        @ 685  		bra	Lopt000005
0000035a                      686  	S00059
0000035a                      687  	S00060
                              688  	;;LINE 472, 1, 1
0000035a                      689  	.DWLopt137
                              690  	;;LINE 467, 1, 1
0000035a                      691  	.DWLopt138
0000035a  8007                692  		mov	7,D0
0000035c  FC8200000000      @ 693  		movbu	D0,(_guc_LED_trip_code)
                              694  	;;LINE 473, 1, 1
00000362                      695  	.DWLopt139
                              696  	;;LINE 468, 1, 1
00000362                      697  	.DWLopt140
00000362  8040                698  		mov	64,D0
                              699  	;;LINE 474, 1, 1
00000364                      700  	.DWLopt141
00000364  DC00000000        @ 701  		bra	Lopt000005
00000369                      702  	S00061
                              703  	;;LINE 476, 1, 1
00000369                      704  	.DWLopt142
00000369  8008                705  		mov	8,D0
0000036b  FC8200000000      @ 706  		movbu	D0,(_guc_LED_trip_code)
                              707  	;;LINE 477, 1, 1
00000371                      708  	.DWLopt143
00000371  2C8000              709  		mov	128,D0
                              710  	;;LINE 479, 1, 1
00000374                      711  	.DWLopt144
00000374  DC00000000        @ 712  		bra	Lopt000005
00000379                      713  	S00062
                              714  	;;LINE 482, 1, 1
00000379                      715  	.DWLopt145
                              716  	;;LINE 393, 1, 1
00000379                      717  	.DWLopt146
00000379  00                  718  		clr	D0
0000037a                      719  	Lopt000003
                              720  	;;LINE 482, 0, 1
0000037a                      721  	.DWLopt147
                              722  	;;LINE 393, 0, 1
0000037a                      723  	.DWLopt148
                              724  	;;LINE 406, 0, 1
0000037a                      725  	.DWLopt149
0000037a  FC8200000000      @ 726  		movbu	D0,(_guc_LED_trip_code)
00000380                      727  	Lopt000005
                              728  	;;LINE 483, 1, 1
00000380                      729  	.DWLopt150
                              730  	;;LINE 394, 1, 1
00000380                      731  	.DWLopt151
                              732  	;;LINE 401, 0, 1
00000380                      733  	.DWLopt152
                              734  	;;LINE 407, 1, 1
00000380                      735  	.DWLopt153
                              736  	;;LINE 415, 0, 1
00000380                      737  	.DWLopt154
                              738  	;;LINE 423, 0, 1
00000380                      739  	.DWLopt155
                              740  	;;LINE 429, 0, 1
00000380                      741  	.DWLopt156
                              742  	;;LINE 434, 0, 1
00000380                      743  	.DWLopt157
                              744  	;;LINE 439, 0, 1
00000380                      745  	.DWLopt158
                              746  	;;LINE 444, 0, 1
00000380                      747  	.DWLopt159
                              748  	;;LINE 452, 0, 1
00000380                      749  	.DWLopt160
                              750  	;;LINE 458, 0, 1
00000380                      751  	.DWLopt161
                              752  	;;LINE 463, 0, 1
00000380                      753  	.DWLopt162
                              754  	;;LINE 468, 0, 1
00000380                      755  	.DWLopt163
                              756  	;;LINE 473, 0, 1
00000380                      757  	.DWLopt164
                              758  	;;LINE 477, 0, 1
00000380                      759  	.DWLopt165
00000380  FC8200000000      @ 760  		movbu	D0,(_guc_SCI0_trip_code)
00000386                      761  	L00035
                              762  	;;LINE 487, 1, 1
00000386                      763  	.DWLopt166
00000386  FCA800000000      @ 764  		movbu	(_guc_SCI0_trip_code),D0
                              765  	;;LINE 489, 1, 1
0000038c                      766  	.DWLopt167
0000038c  FCA900000000      @ 767  		movbu	(_guc_SCI0_tx_buffer),D1
00000392                      768  	.DWLopt71
                              769  	;;LINE 487, 0, 1
00000392                      770  	.DWLopt168
00000392  FC8200000000      @ 771  		movbu	D0,(_guc_SCI0_tx_buffer+5)
                              772  	;;LINE 490, 1, 1
00000398                      773  	.DWLopt169
00000398  FCA800000000      @ 774  		movbu	(_guc_SCI0_tx_buffer+1),D0
                              775  	;;LINE 491, 1, 1
0000039e                      776  	.DWLopt170
0000039e  E1                  777  		add	D0,D1
0000039f  FCA800000000      @ 778  		movbu	(_guc_SCI0_tx_buffer+2),D0
                              779  	;;LINE 492, 1, 1
000003a5                      780  	.DWLopt171
000003a5  E1                  781  		add	D0,D1
000003a6  FCA800000000      @ 782  		movbu	(_guc_SCI0_tx_buffer+3),D0
                              783  	;;LINE 493, 1, 1
000003ac                      784  	.DWLopt172
000003ac  E1                  785  		add	D0,D1
000003ad  FCA800000000      @ 786  		movbu	(_guc_SCI0_tx_buffer+4),D0
                              787  	;;LINE 494, 1, 1
000003b3                      788  	.DWLopt173
000003b3  E1                  789  		add	D0,D1
                              790  	;;LINE 497, 1, 1
000003b4                      791  	.DWLopt174
000003b4  FCA800000000      @ 792  		movbu	(_guc_SCI0_trip_code),D0
000003ba  E4                  793  		add	D1,D0
000003bb  F230                794  		not	D0
000003bd  40                  795  		inc	D0
000003be  FC8200000000      @ 796  		movbu	D0,(_guc_SCI0_tx_buffer+6)
000003c4  DC00000000        @ 797  		jmp	L00063
000003c9                      798  	L00030
                              799  	;;LINE 499, 1, 1
000003c9                      800  	.DWLopt175
000003c9  FCA800000000      @ 801  		movbu	(_guc_SCI0_rx_buffer),D0
000003cf  A055                802  		cmp	85,D0
000003d1  C907DC00000000    @ 803  		beq	Lcb0011
000003d8  DC00000000        @ 804  		jmp	L00064
000003dd                      805  	Lcb0011
000003dd  FCA800000000      @ 806  		movbu	(_guc_SCI0_rx_len),D0
000003e3  A008                807  		cmp	8,D0
000003e5  C907DC00000000    @ 808  		beq	Lcb0012
000003ec  DC00000000        @ 809  		jmp	L00064
000003f1                      810  	Lcb0012
                              811  	;;LINE 504, 1, 1
000003f1                      812  	.DWLopt176
000003f1  FCAC00000000      @ 813  		movhu	(_gus_speed_real),D0
                              814  	;;LINE 501, 1, 1
000003f7                      815  	.DWLopt177
000003f7  FCDE00000000      @ 816  		mov	_guc_SCI0_tx_buffer,A2
                              817  	;;LINE 504, 0, 1
000003fd                      818  	.DWLopt178
000003fd  2DFF00              819  		mov	255,D1
00000400  F201                820  		and	D0,D1
00000402  FC8600000000      @ 821  		movbu	D1,(_guc_SCI0_tx_buffer+1)
                              822  	;;LINE 505, 1, 1
00000408                      823  	.DWLopt179
00000408  F8C808              824  		asr	8,D0
0000040b  FC8200000000      @ 825  		movbu	D0,(_guc_SCI0_tx_buffer+2)
                              826  	;;LINE 507, 1, 1
00000411                      827  	.DWLopt180
00000411  FCAC00000000      @ 828  		movhu	(_flg_Hall),D0
00000417  F8EC08              829  		btst	8,D0
                              830  	;;LINE 501, 0, 1
0000041a                      831  	.DWLopt181
0000041a  2CAA00              832  		mov	170,D0
0000041d  FC8200000000      @ 833  		movbu	D0,(_guc_SCI0_tx_buffer)
                              834  	;;LINE 507, 0, 1
00000423                      835  	.DWLopt182
00000423  C807DC00000000    @ 836  		bne	L00065
0000042a                      837  	Lcb0013
                              838  	;;LINE 509, 1, 1
0000042a                      839  	.DWLopt183
0000042a  FE010000000000    @ 840  		bclr	128,(_guc_SCI0_tx_buffer+2)
00000431  DC00000000        @ 841  		bra	L00067
00000436                      842  	L00065
                              843  	;;LINE 513, 1, 1
00000436                      844  	.DWLopt184
00000436  FE000000000000    @ 845  		bset	128,(_guc_SCI0_tx_buffer+2)
0000043d                      846  	L00067
                              847  	;;LINE 516, 1, 1
0000043d                      848  	.DWLopt185
0000043d  FCA800000000      @ 849  		movbu	(_guc_SCI0_rx_buffer+3),D0
                              850  	;;LINE 521, 1, 1
00000443                      851  	.DWLopt186
00000443  FCAD00000000      @ 852  		movhu	(_flg_fault),D1
                              853  	;;LINE 516, 0, 1
00000449                      854  	.DWLopt187
00000449  FC8200000000      @ 855  		movbu	D0,(_guc_SCI0_tx_buffer+3)
                              856  	;;LINE 518, 1, 1
0000044f                      857  	.DWLopt188
0000044f  FCAC00000000      @ 858  		movhu	(_gus_Iout_peak),D0
                              859  	;;LINE 521, 0, 1
00000455                      860  	.DWLopt189
00000455  F8ED04              861  		btst	4,D1
                              862  	;;LINE 518, 0, 1
00000458                      863  	.DWLopt190
00000458  FC8200000000      @ 864  		movbu	D0,(_guc_SCI0_tx_buffer+4)
                              865  	;;LINE 523, 1, 1
0000045e                      866  	.DWLopt191
0000045e  FCA800000000      @ 867  		movbu	(_guc_state_code),D0
00000464                      868  	.DWLopt79
                              869  	;;LINE 521, 0, 1
00000464                      870  	.DWLopt192
00000464  C807DC00000000    @ 871  		bne	Lcb0014
0000046b  DC00000000        @ 872  		jmp	L00072
00000470                      873  	Lcb0014
                              874  	;;LINE 525, 1, 1
00000470                      875  	.DWLopt193
00000470  FCA900000000      @ 876  		movbu	(_guc_trip_code),D1
                              877  	;;LINE 573, 1, 1
00000476                      878  	.DWLopt194
00000476  00                  879  		clr	D0
00000477                      880  	.DWLopt80
                              881  	;;LINE 525, 0, 1
00000477                      882  	.DWLopt195
00000477  A551                883  		cmp	81,D1
00000479  C907DC00000000    @ 884  		beq	L00072
00000480                      885  	Lcb0015
                              886  	;;LINE 528, 1, 1
00000480                      887  	.DWLopt196
00000480  A539                888  		cmp	57,D1
00000482  C907DC00000000    @ 889  		beq	L00479
00000489                      890  	Lcb0016
00000489  A538                891  		cmp	56,D1
0000048b  C807DC00000000    @ 892  		bne	L00074
00000492                      893  	Lcb0017
00000492                      894  	L00479
                              895  	;;LINE 531, 1, 1
00000492                      896  	.DWLopt197
00000492  FCA900000000      @ 897  		movbu	(_guc_Iout_fault_cnt),D1
00000498  A505                898  		cmp	5,D1
0000049a  C207DC00000000    @ 899  		blt	L00072
000004a1                      900  	Lcb0018
                              901  	;;LINE 534, 1, 1
000004a1                      902  	.DWLopt198
000004a1  FCAD00000000      @ 903  		movhu	(_flg_fault),D1
                              904  	;;LINE 533, 1, 1
000004a7                      905  	.DWLopt199
000004a7  FCA800000000      @ 906  		movbu	(_guc_trip_code),D0
000004ad                      907  	.DWLopt81
                              908  	;;LINE 534, 0, 1
000004ad                      909  	.DWLopt200
000004ad  F8ED10              910  		btst	16,D1
000004b0  C907DC00000000    @ 911  		beq	L00072
000004b7                      912  	Lcb0019
                              913  	;;LINE 0, 0, 1
000004b7                      914  	.DWLopt201
000004b7  DC00000000        @ 915  		bra	Lcb0020
000004bc                      916  	L00074
                              917  	;;LINE 540, 1, 1
000004bc                      918  	.DWLopt202
000004bc  A53A                919  		cmp	58,D1
000004be  C807DC00000000    @ 920  		bne	L00078
000004c5                      921  	Lcb001a
                              922  	;;LINE 542, 1, 1
000004c5                      923  	.DWLopt203
000004c5  FCA900000000      @ 924  		movbu	(_guc_ALM_fault_cnt),D1
000004cb  A503                925  		cmp	3,D1
000004cd  C207DC00000000    @ 926  		blt	L00072
000004d4                      927  	Lcb001b
                              928  	;;LINE 545, 1, 1
000004d4                      929  	.DWLopt204
000004d4  FCAD00000000      @ 930  		movhu	(_flg_fault),D1
                              931  	;;LINE 544, 1, 1
000004da                      932  	.DWLopt205
000004da  FCA800000000      @ 933  		movbu	(_guc_trip_code),D0
000004e0                      934  	.DWLopt82
                              935  	;;LINE 545, 0, 1
000004e0                      936  	.DWLopt206
000004e0  F8ED10              937  		btst	16,D1
000004e3  C907DC00000000    @ 938  		beq	L00072
000004ea                      939  	Lcb001c
                              940  	;;LINE 0, 0, 1
000004ea                      941  	.DWLopt207
000004ea  DC00000000        @ 942  		bra	Lcb0020
000004ef                      943  	L00078
                              944  	;;LINE 551, 1, 1
000004ef                      945  	.DWLopt208
000004ef  A52A                946  		cmp	42,D1
000004f1  C807DC00000000    @ 947  		bne	L00082
000004f8                      948  	Lcb001d
                              949  	;;LINE 553, 1, 1
000004f8                      950  	.DWLopt209
000004f8  FCA900000000      @ 951  		movbu	(_guc_motor_block_cnt),D1
000004fe  A505                952  		cmp	5,D1
00000500  C207DC00000000    @ 953  		blt	L00072
00000507                      954  	Lcb001e
                              955  	;;LINE 556, 1, 1
00000507                      956  	.DWLopt210
00000507  FCAD00000000      @ 957  		movhu	(_flg_fault),D1
                              958  	;;LINE 555, 1, 1
0000050d                      959  	.DWLopt211
0000050d  FCA800000000      @ 960  		movbu	(_guc_trip_code),D0
00000513                      961  	.DWLopt83
                              962  	;;LINE 556, 0, 1
00000513                      963  	.DWLopt212
00000513  F8ED10              964  		btst	16,D1
00000516  C907DC00000000    @ 965  		beq	L00072
0000051d                      966  	Lcb001f
                              967  	;;LINE 0, 0, 1
0000051d                      968  	.DWLopt213
0000051d  DC00000000        @ 969  		bra	Lcb0020
00000522                      970  	L00082
                              971  	;;LINE 565, 1, 1
00000522                      972  	.DWLopt214
00000522  FCAD00000000      @ 973  		movhu	(_flg_fault),D1
                              974  	;;LINE 564, 1, 1
00000528                      975  	.DWLopt215
00000528  FCA800000000      @ 976  		movbu	(_guc_trip_code),D0
0000052e                      977  	.DWLopt84
                              978  	;;LINE 565, 0, 1
0000052e                      979  	.DWLopt216
0000052e  F8ED10              980  		btst	16,D1
00000531  C907DC00000000    @ 981  		beq	L00072
00000538                      982  	Lcb0020
                              983  	;;LINE 567, 1, 1
00000538                      984  	.DWLopt217
                              985  	;;LINE 536, 1, 1
00000538                      986  	.DWLopt218
                              987  	;;LINE 547, 1, 1
00000538                      988  	.DWLopt219
                              989  	;;LINE 558, 1, 1
00000538                      990  	.DWLopt220
00000538  14                  991  		extbu	D0
00000539  F8E480              992  		or	128,D0
0000053c                      993  	L00072
                              994  	;;LINE 575, 1, 1
0000053c                      995  	.DWLopt221
0000053c  FC8200000000      @ 996  		movbu	D0,(_guc_SCI0_tx_buffer+5)
00000542                      997  	.DWLopt85
                              998  	;;LINE 577, 1, 1
00000542                      999  	.DWLopt222
00000542  FCA800000000      @ 1000  		movbu	(_guc_SCI0_tx_len),D0
00000548  98                  1001  		mov	A2,A0
00000549  28FE                1002  		add	-2,D0
0000054b  1C                  1003  		exthu	D0
0000054c  DD000000000000    @ 1004  		call	_0CRC16
00000553  F89304              1005  		movhu	D0,(4,SP)
                              1006  	;;LINE 578, 1, 1
00000556                      1007  	.DWLopt223
00000556  FCA800000000      @ 1008  		movbu	(_guc_SCI0_tx_len),D0
0000055c  F8BA04              1009  		movbu	(4,SP),D2
0000055f  85FE                1010  		mov	-2,D1
00000561  E1                  1011  		add	D0,D1
00000562  F466                1012  		movbu	D2,(D1,A2)
                              1013  	;;LINE 579, 1, 1
00000564                      1014  	.DWLopt224
00000564  F8B905              1015  		movbu	(5,SP),D1
00000567  28FF                1016  		add	-1,D0
00000569  F452                1017  		movbu	D1,(D0,A2)
0000056b  DC00000000        @ 1018  		jmp	L00063
00000570                      1019  	L00064
                              1020  	;;LINE 581, 1, 1
00000570                      1021  	.DWLopt225
00000570  FCA800000000      @ 1022  		movbu	(_guc_SCI0_rx_buffer),D0
00000576  A03E                1023  		cmp	62,D0
00000578  C807DC00000000    @ 1024  		bne	L00094
0000057f                      1025  	Lcb0021
0000057f  FCA800000000      @ 1026  		movbu	(_guc_SCI0_rx_len),D0
00000585  A00C                1027  		cmp	12,D0
00000587  C807DC00000000    @ 1028  		bne	L00094
0000058e                      1029  	Lcb0022
                              1030  	;;LINE 583, 1, 1
0000058e                      1031  	.DWLopt226
0000058e  DD000000000000    @ 1032  		call	_0sci0_Renesas_tx_data_load
00000595  DC00000000        @ 1033  		jmp	L00063
0000059a                      1034  	L00094
                              1035  	;;LINE 591, 1, 1
0000059a                      1036  	.DWLopt227
0000059a  FCAC00000000      @ 1037  		movhu	(_gus_speed_real),D0
                              1038  	;;LINE 587, 1, 1
000005a0                      1039  	.DWLopt228
000005a0  FCDE00000000      @ 1040  		mov	_guc_SCI0_tx_buffer,A2
                              1041  	;;LINE 591, 0, 1
000005a6                      1042  	.DWLopt229
000005a6  81                  1043  		mov	D0,D1
                              1044  	;;LINE 592, 1, 1
000005a7                      1045  	.DWLopt230
000005a7  F8C808              1046  		asr	8,D0
000005aa  FC8200000000      @ 1047  		movbu	D0,(_guc_SCI0_tx_buffer+3)
                              1048  	;;LINE 587, 0, 1
000005b0                      1049  	.DWLopt231
000005b0  FCA800000000      @ 1050  		movbu	(_guc_comm_address),D0
                              1051  	;;LINE 591, 0, 1
000005b6                      1052  	.DWLopt232
000005b6  2EFF00              1053  		mov	255,D2
                              1054  	;;LINE 587, 0, 1
000005b9                      1055  	.DWLopt233
000005b9  FAC0C000            1056  		add	192,D0
000005bd  FC8200000000      @ 1057  		movbu	D0,(_guc_SCI0_tx_buffer)
                              1058  	;;LINE 588, 1, 1
000005c3                      1059  	.DWLopt234
000005c3  FCA800000000      @ 1060  		movbu	(_guc_motor_ID),D0
                              1061  	;;LINE 591, 0, 1
000005c9                      1062  	.DWLopt235
000005c9  F209                1063  		and	D2,D1
                              1064  	;;LINE 588, 0, 1
000005cb                      1065  	.DWLopt236
000005cb  FC8200000000      @ 1066  		movbu	D0,(_guc_SCI0_tx_buffer+1)
                              1067  	;;LINE 594, 1, 1
000005d1                      1068  	.DWLopt237
000005d1  FCAC00000000      @ 1069  		movhu	(_flg_Hall),D0
                              1070  	;;LINE 591, 0, 1
000005d7                      1071  	.DWLopt238
000005d7  FC8600000000      @ 1072  		movbu	D1,(_guc_SCI0_tx_buffer+2)
                              1073  	;;LINE 594, 0, 1
000005dd                      1074  	.DWLopt239
000005dd  F8EC08              1075  		btst	8,D0
000005e0  C807DC00000000    @ 1076  		bne	L00099
000005e7                      1077  	Lcb0023
                              1078  	;;LINE 596, 1, 1
000005e7                      1079  	.DWLopt240
000005e7  FE010000000000    @ 1080  		bclr	128,(_guc_SCI0_tx_buffer+3)
000005ee  DC00000000        @ 1081  		bra	L00100
000005f3                      1082  	L00099
                              1083  	;;LINE 600, 1, 1
000005f3                      1084  	.DWLopt241
000005f3  FE000000000000    @ 1085  		bset	128,(_guc_SCI0_tx_buffer+3)
000005fa                      1086  	L00100
                              1087  	;;LINE 605, 1, 1
000005fa                      1088  	.DWLopt242
000005fa  FCAD00000000      @ 1089  		movhu	(_gus_Iout_for_disp),D1
                              1090  	;;LINE 611, 1, 1
00000600                      1091  	.DWLopt243
00000600  FCAC00000000      @ 1092  		movhu	(_gss_Tm),D0
00000606  2840                1093  		add	64,D0
00000608  FC8200000000      @ 1094  		movbu	D0,(_guc_SCI0_tx_buffer+8)
                              1095  	;;LINE 605, 0, 1
0000060e                      1096  	.DWLopt244
0000060e  84                  1097  		mov	D1,D0
0000060f  F208                1098  		and	D2,D0
00000611  FC8200000000      @ 1099  		movbu	D0,(_guc_SCI0_tx_buffer+4)
                              1100  	;;LINE 606, 1, 1
00000617                      1101  	.DWLopt245
00000617  F8C908              1102  		asr	8,D1
0000061a  FC8600000000      @ 1103  		movbu	D1,(_guc_SCI0_tx_buffer+5)
                              1104  	;;LINE 608, 1, 1
00000620                      1105  	.DWLopt246
00000620  00                  1106  		clr	D0
00000621  FC8200000000      @ 1107  		movbu	D0,(_guc_SCI0_tx_buffer+6)
                              1108  	;;LINE 609, 1, 1
00000627                      1109  	.DWLopt247
00000627  FC8200000000      @ 1110  		movbu	D0,(_guc_SCI0_tx_buffer+7)
                              1111  	;;LINE 613, 1, 1
0000062d                      1112  	.DWLopt248
0000062d  FCAC00000000      @ 1113  		movhu	(_flg_fault),D0
                              1114  	;;LINE 615, 1, 1
00000633                      1115  	.DWLopt249
00000633  FCA900000000      @ 1116  		movbu	(_guc_state_code),D1
00000639                      1117  	.DWLopt72
                              1118  	;;LINE 613, 0, 1
00000639                      1119  	.DWLopt250
00000639  F8EC04              1120  		btst	4,D0
0000063c  C807DC00000000    @ 1121  		bne	Lcb0024
00000643  DC00000000        @ 1122  		jmp	L00104
00000648                      1123  	Lcb0024
                              1124  	;;LINE 617, 1, 1
00000648                      1125  	.DWLopt251
00000648  FCA800000000      @ 1126  		movbu	(_guc_trip_code),D0
                              1127  	;;LINE 664, 1, 1
0000064e                      1128  	.DWLopt252
0000064e  04                  1129  		clr	D1
0000064f                      1130  	.DWLopt73
                              1131  	;;LINE 617, 0, 1
0000064f                      1132  	.DWLopt253
0000064f  A051                1133  		cmp	81,D0
00000651  C907DC00000000    @ 1134  		beq	L00104
00000658                      1135  	Lcb0025
                              1136  	;;LINE 620, 1, 1
00000658                      1137  	.DWLopt254
00000658  A039                1138  		cmp	57,D0
0000065a  C907DC00000000    @ 1139  		beq	L00484
00000661                      1140  	Lcb0026
00000661  A038                1141  		cmp	56,D0
00000663  C807DC00000000    @ 1142  		bne	L00106
0000066a                      1143  	Lcb0027
0000066a                      1144  	L00484
                              1145  	;;LINE 622, 1, 1
0000066a                      1146  	.DWLopt255
0000066a  FCA800000000      @ 1147  		movbu	(_guc_Iout_fault_cnt),D0
00000670  A005                1148  		cmp	5,D0
00000672  C207DC00000000    @ 1149  		blt	L00104
00000679                      1150  	Lcb0028
                              1151  	;;LINE 625, 1, 1
00000679                      1152  	.DWLopt256
00000679  FCAC00000000      @ 1153  		movhu	(_flg_fault),D0
                              1154  	;;LINE 624, 1, 1
0000067f                      1155  	.DWLopt257
0000067f  FCA900000000      @ 1156  		movbu	(_guc_trip_code),D1
00000685                      1157  	.DWLopt74
                              1158  	;;LINE 625, 0, 1
00000685                      1159  	.DWLopt258
00000685  F8EC10              1160  		btst	16,D0
00000688  C907DC00000000    @ 1161  		beq	L00104
0000068f                      1162  	Lcb0029
                              1163  	;;LINE 0, 0, 1
0000068f                      1164  	.DWLopt259
0000068f  DC00000000        @ 1165  		bra	Lcb0030
00000694                      1166  	L00106
                              1167  	;;LINE 631, 1, 1
00000694                      1168  	.DWLopt260
00000694  A03A                1169  		cmp	58,D0
00000696  C807DC00000000    @ 1170  		bne	L00110
0000069d                      1171  	Lcb002a
                              1172  	;;LINE 633, 1, 1
0000069d                      1173  	.DWLopt261
0000069d  FCA800000000      @ 1174  		movbu	(_guc_ALM_fault_cnt),D0
000006a3  A003                1175  		cmp	3,D0
000006a5  C207DC00000000    @ 1176  		blt	L00104
000006ac                      1177  	Lcb002b
                              1178  	;;LINE 636, 1, 1
000006ac                      1179  	.DWLopt262
000006ac  FCAC00000000      @ 1180  		movhu	(_flg_fault),D0
                              1181  	;;LINE 635, 1, 1
000006b2                      1182  	.DWLopt263
000006b2  FCA900000000      @ 1183  		movbu	(_guc_trip_code),D1
000006b8                      1184  	.DWLopt75
                              1185  	;;LINE 636, 0, 1
000006b8                      1186  	.DWLopt264
000006b8  F8EC10              1187  		btst	16,D0
000006bb  C907DC00000000    @ 1188  		beq	L00104
000006c2                      1189  	Lcb002c
                              1190  	;;LINE 0, 0, 1
000006c2                      1191  	.DWLopt265
000006c2  DC00000000        @ 1192  		bra	Lcb0030
000006c7                      1193  	L00110
                              1194  	;;LINE 642, 1, 1
000006c7                      1195  	.DWLopt266
000006c7  A02A                1196  		cmp	42,D0
000006c9  C807DC00000000    @ 1197  		bne	L00114
000006d0                      1198  	Lcb002d
                              1199  	;;LINE 644, 1, 1
000006d0                      1200  	.DWLopt267
000006d0  FCA800000000      @ 1201  		movbu	(_guc_motor_block_cnt),D0
000006d6  A005                1202  		cmp	5,D0
000006d8  C207DC00000000    @ 1203  		blt	L00104
000006df                      1204  	Lcb002e
                              1205  	;;LINE 647, 1, 1
000006df                      1206  	.DWLopt268
000006df  FCAC00000000      @ 1207  		movhu	(_flg_fault),D0
                              1208  	;;LINE 646, 1, 1
000006e5                      1209  	.DWLopt269
000006e5  FCA900000000      @ 1210  		movbu	(_guc_trip_code),D1
000006eb                      1211  	.DWLopt76
                              1212  	;;LINE 647, 0, 1
000006eb                      1213  	.DWLopt270
000006eb  F8EC10              1214  		btst	16,D0
000006ee  C907DC00000000    @ 1215  		beq	L00104
000006f5                      1216  	Lcb002f
                              1217  	;;LINE 0, 0, 1
000006f5                      1218  	.DWLopt271
000006f5  DC00000000        @ 1219  		bra	Lcb0030
000006fa                      1220  	L00114
                              1221  	;;LINE 656, 1, 1
000006fa                      1222  	.DWLopt272
000006fa  FCAC00000000      @ 1223  		movhu	(_flg_fault),D0
                              1224  	;;LINE 655, 1, 1
00000700                      1225  	.DWLopt273
00000700  FCA900000000      @ 1226  		movbu	(_guc_trip_code),D1
00000706                      1227  	.DWLopt77
                              1228  	;;LINE 656, 0, 1
00000706                      1229  	.DWLopt274
00000706  F8EC10              1230  		btst	16,D0
00000709  C907DC00000000    @ 1231  		beq	L00104
00000710                      1232  	Lcb0030
                              1233  	;;LINE 658, 1, 1
00000710                      1234  	.DWLopt275
                              1235  	;;LINE 627, 1, 1
00000710                      1236  	.DWLopt276
                              1237  	;;LINE 638, 1, 1
00000710                      1238  	.DWLopt277
                              1239  	;;LINE 649, 1, 1
00000710                      1240  	.DWLopt278
00000710  15                  1241  		extbu	D1
00000711  F8E580              1242  		or	128,D1
00000714                      1243  	L00104
                              1244  	;;LINE 666, 1, 1
00000714                      1245  	.DWLopt279
00000714  FC8600000000      @ 1246  		movbu	D1,(_guc_SCI0_tx_buffer+9)
0000071a                      1247  	.DWLopt78
                              1248  	;;LINE 683, 1, 1
0000071a                      1249  	.DWLopt280
0000071a  FCAC00000000      @ 1250  		movhu	(_gus_Udc_for_disp),D0
                              1251  	;;LINE 694, 1, 1
00000720                      1252  	.DWLopt281
00000720  98                  1253  		mov	A2,A0
                              1254  	;;LINE 687, 1, 1
00000721                      1255  	.DWLopt282
00000721  81                  1256  		mov	D0,D1
00000722  F8C908              1257  		asr	8,D1
00000725  F8E103              1258  		and	3,D1
00000728  F8E540              1259  		or	64,D1
0000072b  FC8600000000      @ 1260  		movbu	D1,(_guc_SCI0_tx_buffer+10)
                              1261  	;;LINE 688, 1, 1
00000731                      1262  	.DWLopt283
00000731  F208                1263  		and	D2,D0
00000733  FC8200000000      @ 1264  		movbu	D0,(_guc_SCI0_tx_buffer+11)
                              1265  	;;LINE 690, 1, 1
00000739                      1266  	.DWLopt284
00000739  00                  1267  		clr	D0
0000073a  FC8200000000      @ 1268  		movbu	D0,(_guc_SCI0_tx_buffer+12)
                              1269  	;;LINE 691, 1, 1
00000740                      1270  	.DWLopt285
00000740  FC8200000000      @ 1271  		movbu	D0,(_guc_SCI0_tx_buffer+13)
                              1272  	;;LINE 694, 0, 1
00000746                      1273  	.DWLopt286
00000746  FCA800000000      @ 1274  		movbu	(_guc_SCI0_tx_len),D0
0000074c  28FE                1275  		add	-2,D0
0000074e  1C                  1276  		exthu	D0
0000074f  DD000000000000    @ 1277  		call	_0CRC16
00000756  F89304              1278  		movhu	D0,(4,SP)
                              1279  	;;LINE 695, 1, 1
00000759                      1280  	.DWLopt287
00000759  FCA900000000      @ 1281  		movbu	(_guc_SCI0_tx_len),D1
0000075f  F8BA04              1282  		movbu	(4,SP),D2
00000762  80FE                1283  		mov	-2,D0
00000764  E4                  1284  		add	D1,D0
00000765  F462                1285  		movbu	D2,(D0,A2)
                              1286  	;;LINE 696, 1, 1
00000767                      1287  	.DWLopt288
00000767  F8B805              1288  		movbu	(5,SP),D0
0000076a  29FF                1289  		add	-1,D1
0000076c  F446                1290  		movbu	D0,(D1,A2)
0000076e                      1291  	L00063
                              1292  	;;LINE 699, 1, 1
0000076e                      1293  	.DWLopt289
0000076e  FCAC00000000      @ 1294  		movhu	(_flg_SCI0),D0
00000774  F8E410              1295  		or	16,D0
00000777  FC8300000000      @ 1296  		movhu	D0,(_flg_SCI0)
                              1297  	;;LINE 700, 1, 1
0000077d                      1298  	.DWLopt290
0000077d  8001                1299  		mov	1,D0
0000077f  FC8200000000      @ 1300  		movbu	D0,(_guc_SCI0_tx_point)
                              1301  	;;LINE 702, 1, 1
00000785                      1302  	.DWLopt291
00000785  246489              1303  		mov	35172,A0
00000788  F050                1304  		movbu	D0,(A0)
                              1305  	;;LINE 703, 1, 1
0000078a                      1306  	.DWLopt292
0000078a  386489              1307  		movhu	(35172),D0
0000078d  FAE0FFFE            1308  		and	65279,D0
00000791  F070                1309  		movhu	D0,(A0)
                              1310  	;;LINE 705, 1, 1
00000793                      1311  	.DWLopt293
00000793  FCA800000000      @ 1312  		movbu	(_guc_SCI0_tx_buffer),D0
00000799  0210A1              1313  		movbu	D0,(41232)
                              1314  	;;LINE 707, 1, 1
0000079c                      1315  	.DWLopt294
0000079c  8002                1316  		mov	2,D0
0000079e  F050                1317  		movbu	D0,(A0)
                              1318  	;;LINE 708, 1, 1
000007a0                      1319  	.DWLopt295
000007a0  386489              1320  		movhu	(35172),D0
000007a3  FAE40002            1321  		or	512,D0
000007a7  F070                1322  		movhu	D0,(A0)
                              1323  	;;LINE 709, 1, 1
000007a9                      1324  	.DWLopt296
000007a9  DFA010              1325  		ret
000007ac                      1326  	.LDW29
                              1327  		FUNCTION	_0SCI0_send_init,.LDW29-_0SCI0_send_init
                              1328  		FUNCTION	_SCI0_send_init,.LDW29-_SCI0_send_init
                              1329  	.debug_MN_rsc		SECTION
                              1330  	;; Resource Information
                              1331  	;; resource_list  1
0000001d                      1332  	.LDW114
                              1333  		;; loc_data  1
0000001d  00000000          + 1334  		DD	.DWLopt71	;; address
00000021  01                  1335  		DC	0x1	;;   size of loc_exp
00000022  51                  1336  		DC	0x51	;;   DW_OP_reg1
                              1337  		;; loc_data  2
00000023  00000000          + 1338  		DD	.DWLopt72	;; address
00000027  01                  1339  		DC	0x1	;;   size of loc_exp
00000028  51                  1340  		DC	0x51	;;   DW_OP_reg1
                              1341  		;; loc_data  3
00000029  00000000          + 1342  		DD	.DWLopt73	;; address
0000002d  01                  1343  		DC	0x1	;;   size of loc_exp
0000002e  51                  1344  		DC	0x51	;;   DW_OP_reg1
                              1345  		;; loc_data  4
0000002f  00000000          + 1346  		DD	.DWLopt74	;; address
00000033  01                  1347  		DC	0x1	;;   size of loc_exp
00000034  51                  1348  		DC	0x51	;;   DW_OP_reg1
                              1349  		;; loc_data  5
00000035  00000000          + 1350  		DD	.DWLopt75	;; address
00000039  01                  1351  		DC	0x1	;;   size of loc_exp
0000003a  51                  1352  		DC	0x51	;;   DW_OP_reg1
                              1353  		;; loc_data  6
0000003b  00000000          + 1354  		DD	.DWLopt76	;; address
0000003f  01                  1355  		DC	0x1	;;   size of loc_exp
00000040  51                  1356  		DC	0x51	;;   DW_OP_reg1
                              1357  		;; loc_data  7
00000041  00000000          + 1358  		DD	.DWLopt77	;; address
00000045  01                  1359  		DC	0x1	;;   size of loc_exp
00000046  51                  1360  		DC	0x51	;;   DW_OP_reg1
                              1361  		;; loc_data  8
00000047  00000000          + 1362  		DD	.DWLopt78	;; address
0000004b  01                  1363  		DC	0x1	;;   size of loc_exp
0000004c  E1                  1364  		DC	0xe1	;;   DW_OP_MN_void
                              1365  		;; loc_data  9
0000004d  00000000          + 1366  		DD	.DWLopt79	;; address
00000051  01                  1367  		DC	0x1	;;   size of loc_exp
00000052  50                  1368  		DC	0x50	;;   DW_OP_reg0
                              1369  		;; loc_data  10
00000053  00000000          + 1370  		DD	.DWLopt80	;; address
00000057  01                  1371  		DC	0x1	;;   size of loc_exp
00000058  50                  1372  		DC	0x50	;;   DW_OP_reg0
                              1373  		;; loc_data  11
00000059  00000000          + 1374  		DD	.DWLopt81	;; address
0000005d  01                  1375  		DC	0x1	;;   size of loc_exp
0000005e  50                  1376  		DC	0x50	;;   DW_OP_reg0
                              1377  		;; loc_data  12
0000005f  00000000          + 1378  		DD	.DWLopt82	;; address
00000063  01                  1379  		DC	0x1	;;   size of loc_exp
00000064  50                  1380  		DC	0x50	;;   DW_OP_reg0
                              1381  		;; loc_data  13
00000065  00000000          + 1382  		DD	.DWLopt83	;; address
00000069  01                  1383  		DC	0x1	;;   size of loc_exp
0000006a  50                  1384  		DC	0x50	;;   DW_OP_reg0
                              1385  		;; loc_data  14
0000006b  00000000          + 1386  		DD	.DWLopt84	;; address
0000006f  01                  1387  		DC	0x1	;;   size of loc_exp
00000070  50                  1388  		DC	0x50	;;   DW_OP_reg0
                              1389  		;; loc_data  15
00000071  00000000          + 1390  		DD	.DWLopt85	;; address
00000075  01                  1391  		DC	0x1	;;   size of loc_exp
00000076  E1                  1392  		DC	0xe1	;;   DW_OP_MN_void
                              1393  		;; end
00000077  00000000            1394  		DD	0x0
0000007b  00                  1395  		DC	0x0
                              1396  	;; End of Resource Information
                              1397  	.debug_frame		SECTION
                              1398  	;; Frame Description Entry(FDE)
00000062  00000000          + 1399  		DD	.LDW312-.LDW311	;; length
00000066                      1400  	.LDW311
00000066  00000000          + 1401  		DD	.LFR_TOP	;; CIE_pointer
0000006a  00000000          + 1402  		DD	_SCI0_send_init	;; initial location
0000006e  00000000          + 1403  		DD	.LDW29-_SCI0_send_init	;; address_range
                              1404  		;; Prologue
00000072  02                  1405  		DC	0x2	;; DW_CFA_advance_loc1(_0SCI0_send_init-_SCI0_send_init)
00000073  00                + 1406  		DC	_0SCI0_send_init-_SCI0_send_init
00000074  0E10                1407  		DC	0xe,0x10	;; DW_CFA_def_cfa_offset(16)
00000076  8201                1408  		DC	0x82,0x1	;; DW_CFA_offset(D2,1)
00000078  8602                1409  		DC	0x86,0x2	;; DW_CFA_offset(A2,2)
                              1410  		;; Epilogue
0000007a                      1411  	.LDW312
                              1412  	;; End of Frame Description Entry
                              1413  	;;FUNC E _SCI0_send_init
                              1414  	;;FUNC S _sci0_Renesas_tx_data_load
                              1415  	.text		SECTION
                              1416  		GLOBAL	_sci0_Renesas_tx_data_load
                              1417  		GLOBAL	_0sci0_Renesas_tx_data_load
000007ac                      1418  	_sci0_Renesas_tx_data_load
                              1419  	;;PROLOG 0x14
000007ac  CFF0                1420  		movm	[D2,D3,A2,A3],(SP)
000007ae  F8FEFC              1421  		add	-4,SP
                              1422  	_0sci0_Renesas_tx_data_load		FUNCINFO _sci0_Renesas_tx_data_load,20,[D2,D3,A2,A3]
                              1423  	;;LINE 726, 1, 1
000007b1                      1424  	.DWLopt314
000007b1  803C                1425  		mov	60,D0
000007b3  FC8200000000      @ 1426  		movbu	D0,(_guc_SCI0_tx_buffer)
                              1427  	;;LINE 727, 1, 1
000007b9                      1428  	.DWLopt315
000007b9  8030                1429  		mov	48,D0
000007bb  FC8200000000      @ 1430  		movbu	D0,(_guc_SCI0_tx_buffer+1)
                              1431  	;;LINE 732, 1, 1
000007c1                      1432  	.DWLopt316
000007c1  FCAE00000000      @ 1433  		movhu	(_gus_speed_real),D2
                              1434  	;;LINE 743, 1, 1
000007c7                      1435  	.DWLopt317
000007c7  9FF0                1436  		mov	240,A3
                              1437  	;;LINE 732, 0, 1
000007c9                      1438  	.DWLopt318
000007c9  F92206              1439  		udf02	6,D2
000007cc                      1440  	.DWLopt306
                              1441  	;;LINE 749, 1, 1
000007cc                      1442  	.DWLopt319
000007cc  88                  1443  		mov	D2,D0
000007cd  FAE000F0            1444  		and	61440,D0
000007d1  1C                  1445  		exthu	D0
000007d2  F8C80C              1446  		asr	12,D0
000007d5  DD000000000000    @ 1447  		call	_0data_to_Ascii
000007dc  FC8200000000      @ 1448  		movbu	D0,(_guc_SCI0_tx_buffer+2)
                              1449  	;;LINE 750, 1, 1
000007e2                      1450  	.DWLopt320
000007e2  88                  1451  		mov	D2,D0
000007e3  FAE0000F            1452  		and	3840,D0
000007e7  1C                  1453  		exthu	D0
000007e8  F8C808              1454  		asr	8,D0
000007eb  DD000000000000    @ 1455  		call	_0data_to_Ascii
000007f2  FC8200000000      @ 1456  		movbu	D0,(_guc_SCI0_tx_buffer+3)
                              1457  	;;LINE 751, 1, 1
000007f8                      1458  	.DWLopt321
000007f8  88                  1459  		mov	D2,D0
000007f9                      1460  	.DWLopt307
000007f9  F1DD                1461  		mov	A3,D1
000007fb  F204                1462  		and	D1,D0
000007fd  F8C804              1463  		asr	4,D0
00000800  14                  1464  		extbu	D0
00000801  DD000000000000    @ 1465  		call	_0data_to_Ascii
00000808  FC8200000000      @ 1466  		movbu	D0,(_guc_SCI0_tx_buffer+4)
                              1467  	;;LINE 752, 1, 1
0000080e                      1468  	.DWLopt322
0000080e  F8E20F              1469  		and	15,D2
00000811  88                  1470  		mov	D2,D0
00000812                      1471  	.DWLopt308
00000812  14                  1472  		extbu	D0
00000813  DD000000000000    @ 1473  		call	_0data_to_Ascii
0000081a  FC8200000000      @ 1474  		movbu	D0,(_guc_SCI0_tx_buffer+5)
                              1475  	;;LINE 758, 1, 1
00000820                      1476  	.DWLopt323
00000820  FCAE00000000      @ 1477  		movhu	(_gus_Udc_for_disp),D2
00000826  F9164C              1478  		udfu01	76,D2
00000829  F8C606              1479  		lsr	6,D2
0000082c                      1480  	.DWLopt309
                              1481  	;;LINE 775, 1, 1
0000082c                      1482  	.DWLopt324
0000082c  88                  1483  		mov	D2,D0
0000082d  FAE000F0            1484  		and	61440,D0
00000831  1C                  1485  		exthu	D0
00000832  F8C80C              1486  		asr	12,D0
00000835  DD000000000000    @ 1487  		call	_0data_to_Ascii
0000083c  FC8200000000      @ 1488  		movbu	D0,(_guc_SCI0_tx_buffer+6)
                              1489  	;;LINE 776, 1, 1
00000842                      1490  	.DWLopt325
00000842  88                  1491  		mov	D2,D0
00000843  FAE0000F            1492  		and	3840,D0
00000847  1C                  1493  		exthu	D0
00000848  F8C808              1494  		asr	8,D0
0000084b  DD000000000000    @ 1495  		call	_0data_to_Ascii
00000852  FC8200000000      @ 1496  		movbu	D0,(_guc_SCI0_tx_buffer+7)
                              1497  	;;LINE 777, 1, 1
00000858                      1498  	.DWLopt326
00000858  88                  1499  		mov	D2,D0
00000859                      1500  	.DWLopt310
00000859  F1DD                1501  		mov	A3,D1
0000085b  F204                1502  		and	D1,D0
0000085d  F8C804              1503  		asr	4,D0
00000860  14                  1504  		extbu	D0
00000861  DD000000000000    @ 1505  		call	_0data_to_Ascii
00000868  FC8200000000      @ 1506  		movbu	D0,(_guc_SCI0_tx_buffer+10)
                              1507  	;;LINE 778, 1, 1
0000086e                      1508  	.DWLopt327
0000086e  F8E20F              1509  		and	15,D2
00000871  88                  1510  		mov	D2,D0
00000872                      1511  	.DWLopt311
00000872  14                  1512  		extbu	D0
00000873  DD000000000000    @ 1513  		call	_0data_to_Ascii
0000087a  FC8200000000      @ 1514  		movbu	D0,(_guc_SCI0_tx_buffer+11)
                              1515  	;;LINE 784, 1, 1
00000880                      1516  	.DWLopt328
00000880  FCAE00000000      @ 1517  		movhu	(_gus_Iout_for_disp),D2
                              1518  	;;LINE 791, 1, 1
00000886                      1519  	.DWLopt329
00000886  F1DD                1520  		mov	A3,D1
                              1521  	;;LINE 784, 0, 1
00000888                      1522  	.DWLopt330
00000888  F8CA01              1523  		asr	1,D2
                              1524  	;;LINE 791, 0, 1
0000088b                      1525  	.DWLopt331
0000088b  88                  1526  		mov	D2,D0
0000088c  F204                1527  		and	D1,D0
0000088e  14                  1528  		extbu	D0
0000088f  F8C804              1529  		asr	4,D0
00000892  DD000000000000    @ 1530  		call	_0data_to_Ascii
00000899  FC8200000000      @ 1531  		movbu	D0,(_guc_SCI0_tx_buffer+8)
                              1532  	;;LINE 792, 1, 1
0000089f                      1533  	.DWLopt332
0000089f  800F                1534  		mov	15,D0
000008a1  F208                1535  		and	D2,D0
000008a3  14                  1536  		extbu	D0
000008a4  DD000000000000    @ 1537  		call	_0data_to_Ascii
000008ab  FC8200000000      @ 1538  		movbu	D0,(_guc_SCI0_tx_buffer+9)
                              1539  	;;LINE 794, 1, 1
000008b1                      1540  	.DWLopt333
000008b1  FCAD00000000      @ 1541  		movhu	(_gss_Tm),D1
                              1542  	;;LINE 796, 1, 1
000008b7                      1543  	.DWLopt334
000008b7  08                  1544  		clr	D2
000008b8                      1545  	.DWLopt312
                              1546  	;;LINE 794, 0, 1
000008b8                      1547  	.DWLopt335
000008b8  19                  1548  		exth	D1
000008b9  A9                  1549  		cmp	D2,D1
000008ba  C207DC00000000    @ 1550  		blt	L00151
000008c1                      1551  	Lcb0031
                              1552  	;;LINE 800, 1, 1
000008c1                      1553  	.DWLopt336
000008c1  FCAE00000000      @ 1554  		movhu	(_gss_Tm),D2
000008c7                      1555  	.DWLopt313
000008c7                      1556  	L00151
                              1557  	;;LINE 810, 1, 1
000008c7                      1558  	.DWLopt337
000008c7  88                  1559  		mov	D2,D0
000008c8  F1DD                1560  		mov	A3,D1
000008ca  F204                1561  		and	D1,D0
000008cc  14                  1562  		extbu	D0
000008cd  F8C804              1563  		asr	4,D0
000008d0  DD000000000000    @ 1564  		call	_0data_to_Ascii
000008d7  FC8200000000      @ 1565  		movbu	D0,(_guc_SCI0_tx_buffer+12)
                              1566  	;;LINE 811, 1, 1
000008dd                      1567  	.DWLopt338
000008dd  16                  1568  		extbu	D2
000008de  800F                1569  		mov	15,D0
000008e0  F208                1570  		and	D2,D0
000008e2  14                  1571  		extbu	D0
000008e3  DD000000000000    @ 1572  		call	_0data_to_Ascii
000008ea  FC8200000000      @ 1573  		movbu	D0,(_guc_SCI0_tx_buffer+13)
                              1574  	;;LINE 814, 1, 1
000008f0                      1575  	.DWLopt339
000008f0  FCA900000000      @ 1576  		movbu	(_guc_trip_code),D1
000008f6  A500                1577  		cmp	0,D1
000008f8  C007DC00000000    @ 1578  		bge	Lcb0032
000008ff  DC00000000        @ 1579  		jmp	S00182
00000904                      1580  	Lcb0032
00000904  A553                1581  		cmp	83,D1
00000906  C107DC00000000    @ 1582  		ble	Lcb0033
0000090d  DC00000000        @ 1583  		jmp	S00182
00000912                      1584  	Lcb0033
00000912  44                  1585  		inc	D1
00000913  FCDD00000000      @ 1586  		mov	S01086,A1
00000919  801F                1587  		mov	31,D0
0000091b  F204                1588  		and	D1,D0
0000091d  F8C003              1589  		asl	3,D0
00000920  F1E0                1590  		mov	D0,A0
00000922  F174                1591  		add	A1,A0
00000924  70                  1592  		mov	(A0),D0
00000925  A4                  1593  		cmp	D1,D0
00000926  C907DC00000000    @ 1594  		beq	L01092
0000092d                      1595  	Lcb0034
0000092d                      1596  	L01235
                              1597  	;;LINE 0, 0, 1
0000092d                      1598  	.DWLopt340
0000092d  DB                  1599  		setlb
0000092e                      1600  	L01094
                              1601  	;;LINE 814, 0, 1
0000092e                      1602  	.DWLopt341
0000092e  A000                1603  		cmp	0,D0
00000930  C807DC00000000    @ 1604  		bne	Lcb0035
00000937  DC00000000        @ 1605  		jmp	S00182
0000093c                      1606  	Lcb0035
0000093c  2008                1607  		add	8,A0
0000093e  FCD800000000      @ 1608  		cmp	S01086+256,A0
00000944  C607DC00000000    @ 1609  		bcs	L01097
0000094b                      1610  	Lcb0036
0000094b  94                  1611  		mov	A1,A0
0000094c                      1612  	L01097
0000094c  70                  1613  		mov	(A0),D0
0000094d  A4                  1614  		cmp	D1,D0
0000094e  D9                  1615  		lne
0000094f                      1616  	L01092
0000094f  F82004              1617  		mov	(4,A0),A0
00000952  F0F4                1618  		jmp	(A0)
00000954                      1619  	S00157
                              1620  	;;LINE 819, 1, 1
00000954                      1621  	.DWLopt342
00000954  DC00000000        @ 1622  		jmp	S00182
00000959                      1623  	S00160
                              1624  	;;LINE 822, 1, 1
00000959                      1625  	.DWLopt343
00000959  FCA800000000      @ 1626  		movbu	(_guc_motor_block_cnt),D0
0000095f  A005                1627  		cmp	5,D0
                              1628  	;;LINE 821, 1, 1
00000961                      1629  	.DWLopt344
00000961  800B                1630  		mov	11,D0
00000963  FC8200000000      @ 1631  		movbu	D0,(_guc_LED_trip_code)
                              1632  	;;LINE 822, 0, 1
00000969                      1633  	.DWLopt345
00000969  C007DC00000000    @ 1634  		bge	Lcb0037
00000970  DC00000000        @ 1635  		jmp	L00154
00000975                      1636  	Lcb0037
                              1637  	;;LINE 826, 1, 1
00000975                      1638  	.DWLopt346
00000975  DC00000000        @ 1639  		jmp	Lopt000006
0000097a                      1640  	S00163
                              1641  	;;LINE 828, 1, 1
0000097a                      1642  	.DWLopt347
0000097a  8020                1643  		mov	32,D0
0000097c  FC8200000000      @ 1644  		movbu	D0,(_guc_SCI0_trip_code)
                              1645  	;;LINE 829, 1, 1
00000982                      1646  	.DWLopt348
00000982  8008                1647  		mov	8,D0
                              1648  	;;LINE 830, 1, 1
00000984                      1649  	.DWLopt349
00000984  DC00000000        @ 1650  		bra	Lopt000008
00000989                      1651  	S00164
                              1652  	;;LINE 832, 1, 1
00000989                      1653  	.DWLopt350
00000989  FCA800000000      @ 1654  		movbu	(_guc_Iout_fault_cnt),D0
0000098f  A005                1655  		cmp	5,D0
00000991  C207DC00000000    @ 1656  		blt	L00165
00000998                      1657  	Lcb0038
                              1658  	;;LINE 834, 1, 1
00000998                      1659  	.DWLopt351
00000998  8008                1660  		mov	8,D0
0000099a  FC8200000000      @ 1661  		movbu	D0,(_guc_SCI0_trip_code)
000009a0                      1662  	L00165
                              1663  	;;LINE 836, 1, 1
000009a0                      1664  	.DWLopt352
000009a0  8002                1665  		mov	2,D0
                              1666  	;;LINE 837, 1, 1
000009a2                      1667  	.DWLopt353
000009a2  DC00000000        @ 1668  		bra	Lopt000008
000009a7                      1669  	S00167
                              1670  	;;LINE 839, 1, 1
000009a7                      1671  	.DWLopt354
000009a7  FCA800000000      @ 1672  		movbu	(_guc_Iout_fault_cnt),D0
000009ad  A005                1673  		cmp	5,D0
000009af  C207DC00000000    @ 1674  		blt	L00168
000009b6                      1675  	Lcb0039
                              1676  	;;LINE 841, 1, 1
000009b6                      1677  	.DWLopt355
000009b6  8010                1678  		mov	16,D0
000009b8  FC8200000000      @ 1679  		movbu	D0,(_guc_SCI0_trip_code)
000009be                      1680  	L00168
                              1681  	;;LINE 843, 1, 1
000009be                      1682  	.DWLopt356
000009be  8004                1683  		mov	4,D0
                              1684  	;;LINE 844, 1, 1
000009c0                      1685  	.DWLopt357
000009c0  DC00000000        @ 1686  		bra	Lopt000008
000009c5                      1687  	S00169
                              1688  	;;LINE 846, 1, 1
000009c5                      1689  	.DWLopt358
000009c5  8018                1690  		mov	24,D0
000009c7  FC8200000000      @ 1691  		movbu	D0,(_guc_SCI0_trip_code)
                              1692  	;;LINE 847, 1, 1
000009cd                      1693  	.DWLopt359
000009cd  8006                1694  		mov	6,D0
                              1695  	;;LINE 848, 1, 1
000009cf                      1696  	.DWLopt360
000009cf  DC00000000        @ 1697  		bra	Lopt000008
000009d4                      1698  	S00170
                              1699  	;;LINE 850, 1, 1
000009d4                      1700  	.DWLopt361
000009d4  8014                1701  		mov	20,D0
000009d6  FC8200000000      @ 1702  		movbu	D0,(_guc_SCI0_trip_code)
                              1703  	;;LINE 851, 1, 1
000009dc                      1704  	.DWLopt362
000009dc  8005                1705  		mov	5,D0
                              1706  	;;LINE 852, 1, 1
000009de                      1707  	.DWLopt363
000009de  DC00000000        @ 1708  		bra	Lopt000008
000009e3                      1709  	S00171
                              1710  	;;LINE 857, 1, 1
000009e3                      1711  	.DWLopt364
000009e3  DC00000000        @ 1712  		bra	S00179
000009e8                      1713  	S00172
                              1714  	;;LINE 862, 1, 1
000009e8                      1715  	.DWLopt365
000009e8  DC00000000        @ 1716  		bra	S00179
000009ed                      1717  	S00173
                              1718  	;;LINE 865, 1, 1
000009ed                      1719  	.DWLopt366
000009ed  FCA800000000      @ 1720  		movbu	(_guc_ALM_fault_cnt),D0
000009f3  A003                1721  		cmp	3,D0
000009f5  C207DC00000000    @ 1722  		blt	L00154
000009fc                      1723  	Lcb003a
                              1724  	;;LINE 867, 1, 1
000009fc                      1725  	.DWLopt367
000009fc  8004                1726  		mov	4,D0
000009fe  FC8200000000      @ 1727  		movbu	D0,(_guc_SCI0_trip_code)
                              1728  	;;LINE 868, 1, 1
00000a04                      1729  	.DWLopt368
00000a04  8001                1730  		mov	1,D0
                              1731  	;;LINE 870, 1, 1
00000a06                      1732  	.DWLopt369
00000a06  DC00000000        @ 1733  		bra	Lopt000008
00000a0b                      1734  	S00176
                              1735  	;;LINE 872, 1, 1
00000a0b                      1736  	.DWLopt370
00000a0b  800C                1737  		mov	12,D0
00000a0d  FC8200000000      @ 1738  		movbu	D0,(_guc_SCI0_trip_code)
                              1739  	;;LINE 873, 1, 1
00000a13                      1740  	.DWLopt371
00000a13  8003                1741  		mov	3,D0
                              1742  	;;LINE 874, 1, 1
00000a15                      1743  	.DWLopt372
00000a15  DC00000000        @ 1744  		bra	Lopt000008
00000a1a                      1745  	S00177
                              1746  	;;LINE 876, 1, 1
00000a1a                      1747  	.DWLopt373
00000a1a  8040                1748  		mov	64,D0
00000a1c  FC8200000000      @ 1749  		movbu	D0,(_guc_SCI0_trip_code)
                              1750  	;;LINE 877, 1, 1
00000a22                      1751  	.DWLopt374
00000a22  800C                1752  		mov	12,D0
00000a24                      1753  	Lopt000008
                              1754  	;;LINE 877, 0, 1
00000a24                      1755  	.DWLopt375
                              1756  	;;LINE 829, 0, 1
00000a24                      1757  	.DWLopt376
                              1758  	;;LINE 836, 0, 1
00000a24                      1759  	.DWLopt377
                              1760  	;;LINE 843, 0, 1
00000a24                      1761  	.DWLopt378
                              1762  	;;LINE 847, 0, 1
00000a24                      1763  	.DWLopt379
                              1764  	;;LINE 851, 0, 1
00000a24                      1765  	.DWLopt380
                              1766  	;;LINE 868, 0, 1
00000a24                      1767  	.DWLopt381
                              1768  	;;LINE 873, 0, 1
00000a24                      1769  	.DWLopt382
00000a24  FC8200000000      @ 1770  		movbu	D0,(_guc_LED_trip_code)
                              1771  	;;LINE 878, 1, 1
00000a2a                      1772  	.DWLopt383
00000a2a  DC00000000        @ 1773  		bra	L00154
00000a2f                      1774  	S00178
00000a2f                      1775  	S00179
                              1776  	;;LINE 884, 1, 1
00000a2f                      1777  	.DWLopt384
                              1778  	;;LINE 855, 1, 1
00000a2f                      1779  	.DWLopt385
                              1780  	;;LINE 860, 1, 1
00000a2f                      1781  	.DWLopt386
                              1782  	;;LINE 880, 1, 1
00000a2f                      1783  	.DWLopt387
00000a2f  800B                1784  		mov	11,D0
00000a31  FC8200000000      @ 1785  		movbu	D0,(_guc_LED_trip_code)
00000a37                      1786  	Lopt000006
                              1787  	;;LINE 885, 1, 1
00000a37                      1788  	.DWLopt388
                              1789  	;;LINE 824, 1, 1
00000a37                      1790  	.DWLopt389
                              1791  	;;LINE 856, 1, 1
00000a37                      1792  	.DWLopt390
                              1793  	;;LINE 861, 1, 1
00000a37                      1794  	.DWLopt391
                              1795  	;;LINE 881, 1, 1
00000a37                      1796  	.DWLopt392
00000a37  8038                1797  		mov	56,D0
                              1798  	;;LINE 886, 1, 1
00000a39                      1799  	.DWLopt393
00000a39  DC00000000        @ 1800  		bra	Lopt000007
00000a3e                      1801  	S00180
00000a3e                      1802  	S00181
                              1803  	;;LINE 892, 1, 1
00000a3e                      1804  	.DWLopt394
                              1805  	;;LINE 888, 1, 1
00000a3e                      1806  	.DWLopt395
00000a3e  802C                1807  		mov	44,D0
00000a40  FC8200000000      @ 1808  		movbu	D0,(_guc_LED_trip_code)
                              1809  	;;LINE 893, 1, 1
00000a46                      1810  	.DWLopt396
                              1811  	;;LINE 889, 1, 1
00000a46                      1812  	.DWLopt397
00000a46  800B                1813  		mov	11,D0
                              1814  	;;LINE 894, 1, 1
00000a48                      1815  	.DWLopt398
00000a48  DC00000000        @ 1816  		bra	Lopt000007
00000a4d                      1817  	S00182
                              1818  	;;LINE 896, 1, 1
00000a4d                      1819  	.DWLopt399
                              1820  	;;LINE 817, 1, 1
00000a4d                      1821  	.DWLopt400
00000a4d  00                  1822  		clr	D0
00000a4e  FC8200000000      @ 1823  		movbu	D0,(_guc_LED_trip_code)
00000a54                      1824  	Lopt000007
                              1825  	;;LINE 897, 1, 1
00000a54                      1826  	.DWLopt401
                              1827  	;;LINE 818, 1, 1
00000a54                      1828  	.DWLopt402
                              1829  	;;LINE 824, 0, 1
00000a54                      1830  	.DWLopt403
                              1831  	;;LINE 856, 0, 1
00000a54                      1832  	.DWLopt404
                              1833  	;;LINE 861, 0, 1
00000a54                      1834  	.DWLopt405
                              1835  	;;LINE 881, 0, 1
00000a54                      1836  	.DWLopt406
                              1837  	;;LINE 885, 0, 1
00000a54                      1838  	.DWLopt407
                              1839  	;;LINE 889, 0, 1
00000a54                      1840  	.DWLopt408
                              1841  	;;LINE 893, 0, 1
00000a54                      1842  	.DWLopt409
00000a54  FC8200000000      @ 1843  		movbu	D0,(_guc_SCI0_trip_code)
00000a5a                      1844  	L00154
                              1845  	;;LINE 905, 1, 1
00000a5a                      1846  	.DWLopt410
00000a5a  FCAA00000000      @ 1847  		movbu	(_guc_SCI0_trip_code),D2
                              1848  	;;LINE 907, 1, 1
00000a60                      1849  	.DWLopt411
00000a60  FCA800000000      @ 1850  		movbu	(_guc_SCI0_trip_code),D0
                              1851  	;;LINE 905, 0, 1
00000a66                      1852  	.DWLopt412
00000a66  F8E20F              1853  		and	15,D2
00000a69                      1854  	.DWLopt304
                              1855  	;;LINE 907, 0, 1
00000a69                      1856  	.DWLopt413
00000a69  F1DD                1857  		mov	A3,D1
00000a6b  F204                1858  		and	D1,D0
00000a6d  14                  1859  		extbu	D0
00000a6e  F8C804              1860  		asr	4,D0
00000a71  DD000000000000    @ 1861  		call	_0data_to_Ascii
00000a78  FC8200000000      @ 1862  		movbu	D0,(_guc_SCI0_tx_buffer+14)
                              1863  	;;LINE 908, 1, 1
00000a7e                      1864  	.DWLopt414
00000a7e  16                  1865  		extbu	D2
00000a7f                      1866  	.DWLopt305
                              1867  	;;LINE 0, 0, 1
00000a7f                      1868  	.DWLopt415
00000a7f  88                  1869  		mov	D2,D0
                              1870  	;;LINE 908, 0, 1
00000a80                      1871  	.DWLopt416
00000a80  DD000000000000    @ 1872  		call	_0data_to_Ascii
00000a87  FC8200000000      @ 1873  		movbu	D0,(_guc_SCI0_tx_buffer+15)
                              1874  	;;LINE 924, 1, 1
00000a8d                      1875  	.DWLopt417
00000a8d  00                  1876  		clr	D0
00000a8e  DD000000000000    @ 1877  		call	_0data_to_Ascii
00000a95  FC8200000000      @ 1878  		movbu	D0,(_guc_SCI0_tx_buffer+16)
                              1879  	;;LINE 925, 1, 1
00000a9b                      1880  	.DWLopt418
00000a9b  00                  1881  		clr	D0
00000a9c  DD000000000000    @ 1882  		call	_0data_to_Ascii
00000aa3  FC8200000000      @ 1883  		movbu	D0,(_guc_SCI0_tx_buffer+17)
                              1884  	;;LINE 928, 1, 1
00000aa9                      1885  	.DWLopt419
00000aa9  2EFF00              1886  		mov	255,D2
00000aac                      1887  	.DWLopt302
                              1888  	;;LINE 929, 1, 1
00000aac                      1889  	.DWLopt420
00000aac  8001                1890  		mov	1,D0
00000aae                      1891  	.DWLopt300
                              1892  	;;LINE 929, 1, 1
00000aae                      1893  	.DWLopt421
00000aae  81                  1894  		mov	D0,D1
                              1895  	;;LINE 0, 0, 1
00000aaf                      1896  	.DWLopt422
00000aaf  DB                  1897  		setlb
00000ab0                      1898  	L00190
                              1899  	;;LINE 931, 1, 1
00000ab0                      1900  	.DWLopt423
00000ab0  14                  1901  		extbu	D0
00000ab1  FCDC00000000      @ 1902  		mov	_guc_SCI0_tx_buffer,A0
00000ab7  F400                1903  		movbu	(D0,A0),D0
00000ab9                      1904  	.DWLopt301
00000ab9  16                  1905  		extbu	D2
00000aba  F222                1906  		xor	D0,D2
                              1907  	;;LINE 929, 1, 1
00000abc                      1908  	.DWLopt424
00000abc  44                  1909  		inc	D1
00000abd  84                  1910  		mov	D1,D0
                              1911  	;;LINE 929, 1, 1
00000abe                      1912  	.DWLopt425
00000abe  15                  1913  		extbu	D1
00000abf  A512                1914  		cmp	18,D1
00000ac1  D0                  1915  		llt
                              1916  	;;LINE 941, 1, 1
00000ac2                      1917  	.DWLopt426
00000ac2  88                  1918  		mov	D2,D0
00000ac3  F1DD                1919  		mov	A3,D1
00000ac5  F204                1920  		and	D1,D0
00000ac7  14                  1921  		extbu	D0
00000ac8  F8C804              1922  		asr	4,D0
00000acb  DD000000000000    @ 1923  		call	_0data_to_Ascii
00000ad2  FC8200000000      @ 1924  		movbu	D0,(_guc_SCI0_tx_buffer+18)
                              1925  	;;LINE 942, 1, 1
00000ad8                      1926  	.DWLopt427
00000ad8  800F                1927  		mov	15,D0
00000ada  F208                1928  		and	D2,D0
00000adc                      1929  	.DWLopt303
00000adc  14                  1930  		extbu	D0
00000add  DD000000000000    @ 1931  		call	_0data_to_Ascii
00000ae4  FC8200000000      @ 1932  		movbu	D0,(_guc_SCI0_tx_buffer+19)
                              1933  	;;LINE 944, 1, 1
00000aea                      1934  	.DWLopt428
00000aea  8014                1935  		mov	20,D0
00000aec  FC8200000000      @ 1936  		movbu	D0,(_guc_SCI0_tx_len)
                              1937  	;;LINE 945, 1, 1
00000af2                      1938  	.DWLopt429
00000af2  DFF014              1939  		ret
00000af5                      1940  	.LDW30
                              1941  		FUNCTION	_0sci0_Renesas_tx_data_load,.LDW30-_0sci0_Renesas_tx_data_load
                              1942  		FUNCTION	_sci0_Renesas_tx_data_load,.LDW30-_sci0_Renesas_tx_data_load
                              1943  	.debug_MN_rsc		SECTION
                              1944  	;; Resource Information
                              1945  	;; resource_list  1
0000007c                      1946  	.LDW313
                              1947  		;; loc_data  1
0000007c  00000000          + 1948  		DD	.DWLopt300	;; address
00000080  01                  1949  		DC	0x1	;;   size of loc_exp
00000081  50                  1950  		DC	0x50	;;   DW_OP_reg0
                              1951  		;; loc_data  2
00000082  00000000          + 1952  		DD	.DWLopt301	;; address
00000086  01                  1953  		DC	0x1	;;   size of loc_exp
00000087  E1                  1954  		DC	0xe1	;;   DW_OP_MN_void
                              1955  		;; end
00000088  00000000            1956  		DD	0x0
0000008c  00                  1957  		DC	0x0
                              1958  	;; resource_list  2
0000008d                      1959  	.LDW316
                              1960  		;; loc_data  1
0000008d  00000000          + 1961  		DD	.DWLopt306	;; address
00000091  01                  1962  		DC	0x1	;;   size of loc_exp
00000092  52                  1963  		DC	0x52	;;   DW_OP_reg2
                              1964  		;; loc_data  2
00000093  00000000          + 1965  		DD	.DWLopt307	;; address
00000097  01                  1966  		DC	0x1	;;   size of loc_exp
00000098  E1                  1967  		DC	0xe1	;;   DW_OP_MN_void
                              1968  		;; loc_data  3
00000099  00000000          + 1969  		DD	.DWLopt308	;; address
0000009d  01                  1970  		DC	0x1	;;   size of loc_exp
0000009e  E1                  1971  		DC	0xe1	;;   DW_OP_MN_void
                              1972  		;; loc_data  4
0000009f  00000000          + 1973  		DD	.DWLopt309	;; address
000000a3  01                  1974  		DC	0x1	;;   size of loc_exp
000000a4  52                  1975  		DC	0x52	;;   DW_OP_reg2
                              1976  		;; loc_data  5
000000a5  00000000          + 1977  		DD	.DWLopt310	;; address
000000a9  01                  1978  		DC	0x1	;;   size of loc_exp
000000aa  E1                  1979  		DC	0xe1	;;   DW_OP_MN_void
                              1980  		;; loc_data  6
000000ab  00000000          + 1981  		DD	.DWLopt311	;; address
000000af  01                  1982  		DC	0x1	;;   size of loc_exp
000000b0  E1                  1983  		DC	0xe1	;;   DW_OP_MN_void
                              1984  		;; loc_data  7
000000b1  00000000          + 1985  		DD	.DWLopt312	;; address
000000b5  01                  1986  		DC	0x1	;;   size of loc_exp
000000b6  52                  1987  		DC	0x52	;;   DW_OP_reg2
                              1988  		;; loc_data  8
000000b7  00000000          + 1989  		DD	.DWLopt313	;; address
000000bb  01                  1990  		DC	0x1	;;   size of loc_exp
000000bc  52                  1991  		DC	0x52	;;   DW_OP_reg2
                              1992  		;; end
000000bd  00000000            1993  		DD	0x0
000000c1  00                  1994  		DC	0x0
                              1995  	;; resource_list  3
000000c2                      1996  	.LDW321
                              1997  		;; loc_data  1
000000c2  00000000          + 1998  		DD	.DWLopt302	;; address
000000c6  01                  1999  		DC	0x1	;;   size of loc_exp
000000c7  52                  2000  		DC	0x52	;;   DW_OP_reg2
                              2001  		;; loc_data  2
000000c8  00000000          + 2002  		DD	.DWLopt303	;; address
000000cc  01                  2003  		DC	0x1	;;   size of loc_exp
000000cd  E1                  2004  		DC	0xe1	;;   DW_OP_MN_void
                              2005  		;; end
000000ce  00000000            2006  		DD	0x0
000000d2  00                  2007  		DC	0x0
                              2008  	;; resource_list  4
000000d3                      2009  	.LDW324
                              2010  		;; loc_data  1
000000d3  00000000          + 2011  		DD	.DWLopt304	;; address
000000d7  01                  2012  		DC	0x1	;;   size of loc_exp
000000d8  52                  2013  		DC	0x52	;;   DW_OP_reg2
                              2014  		;; loc_data  2
000000d9  00000000          + 2015  		DD	.DWLopt305	;; address
000000dd  01                  2016  		DC	0x1	;;   size of loc_exp
000000de  E1                  2017  		DC	0xe1	;;   DW_OP_MN_void
                              2018  		;; end
000000df  00000000            2019  		DD	0x0
000000e3  00                  2020  		DC	0x0
                              2021  	;; End of Resource Information
                              2022  	.debug_frame		SECTION
                              2023  	;; Frame Description Entry(FDE)
0000007a  00000000          + 2024  		DD	.LDW430-.LDW429	;; length
0000007e                      2025  	.LDW429
0000007e  00000000          + 2026  		DD	.LFR_TOP	;; CIE_pointer
00000082  00000000          + 2027  		DD	_sci0_Renesas_tx_data_load	;; initial location
00000086  00000000          + 2028  		DD	.LDW30-_sci0_Renesas_tx_data_load	;; address_range
                              2029  		;; Prologue
0000008a  02                  2030  		DC	0x2	;; DW_CFA_advance_loc1(_0sci0_Renesas_tx_data_load-_sci0_Renesas_tx_data_load)
0000008b  00                + 2031  		DC	_0sci0_Renesas_tx_data_load-_sci0_Renesas_tx_data_load
0000008c  0E14                2032  		DC	0xe,0x14	;; DW_CFA_def_cfa_offset(20)
0000008e  8201                2033  		DC	0x82,0x1	;; DW_CFA_offset(D2,1)
00000090  8302                2034  		DC	0x83,0x2	;; DW_CFA_offset(D3,2)
00000092  8603                2035  		DC	0x86,0x3	;; DW_CFA_offset(A2,3)
00000094  8704                2036  		DC	0x87,0x4	;; DW_CFA_offset(A3,4)
                              2037  		;; Epilogue
00000096                      2038  	.LDW430
                              2039  	;; End of Frame Description Entry
                              2040  	;;FUNC E _sci0_Renesas_tx_data_load
                              2041  	;;FUNC S _SCI0_receive_int
                              2042  	.text		SECTION
                              2043  		GLOBAL	_SCI0_receive_int
                              2044  		GLOBAL	_0SCI0_receive_int
00000af5                      2045  	_SCI0_receive_int
                              2046  	;;PROLOG 0x4
00000af5  CF80                2047  		movm	[D2],(SP)
                              2048  	_0SCI0_receive_int		FUNCINFO _SCI0_receive_int,4,[D2]
                              2049  	;;LINE 951, 1, 1
00000af7                      2050  	.DWLopt433
00000af7  00                  2051  		clr	D0
00000af8                      2052  	.DWLopt431
                              2053  	;;LINE 951, 1, 1
00000af8                      2054  	.DWLopt434
00000af8  04                  2055  		clr	D1
                              2056  	;;LINE 953, 1, 1
00000af9                      2057  	.DWLopt435
00000af9  FCDC00000000      @ 2058  		mov	_guc_SCI0_rx_buffer,A0
                              2059  	;;LINE 0, 0, 1
00000aff                      2060  	.DWLopt436
00000aff  DB                  2061  		setlb
                              2062  	;;LINE 953, 0, 1
00000b00                      2063  	.DWLopt437
00000b00  14                  2064  		extbu	D0
00000b01  08                  2065  		clr	D2
00000b02  F460                2066  		movbu	D2,(D0,A0)
00000b04                      2067  	.DWLopt432
                              2068  	;;LINE 951, 1, 1
00000b04                      2069  	.DWLopt438
00000b04  44                  2070  		inc	D1
00000b05  84                  2071  		mov	D1,D0
                              2072  	;;LINE 951, 1, 1
00000b06                      2073  	.DWLopt439
00000b06  15                  2074  		extbu	D1
00000b07  A514                2075  		cmp	20,D1
00000b09  D0                  2076  		llt
                              2077  	;;LINE 956, 1, 1
00000b0a                      2078  	.DWLopt440
00000b0a  246489              2079  		mov	35172,A0
00000b0d  8002                2080  		mov	2,D0
00000b0f  F050                2081  		movbu	D0,(A0)
                              2082  	;;LINE 957, 1, 1
00000b11                      2083  	.DWLopt441
00000b11  386489              2084  		movhu	(35172),D0
00000b14  FAE0FFFD            2085  		and	65023,D0
00000b18  F070                2086  		movhu	D0,(A0)
                              2087  	;;LINE 959, 1, 1
00000b1a                      2088  	.DWLopt442
00000b1a  8001                2089  		mov	1,D0
00000b1c  F050                2090  		movbu	D0,(A0)
                              2091  	;;LINE 960, 1, 1
00000b1e                      2092  	.DWLopt443
00000b1e  386489              2093  		movhu	(35172),D0
00000b21  FAE40001            2094  		or	256,D0
00000b25  F070                2095  		movhu	D0,(A0)
                              2096  	;;LINE 962, 1, 1
00000b27                      2097  	.DWLopt444
00000b27  DE8004              2098  		retf
00000b2a                      2099  	.LDW31
                              2100  		FUNCTION	_0SCI0_receive_int,.LDW31-_0SCI0_receive_int
                              2101  		FUNCTION	_SCI0_receive_int,.LDW31-_SCI0_receive_int
                              2102  	.debug_MN_rsc		SECTION
                              2103  	;; Resource Information
                              2104  	;; resource_list  1
000000e4                      2105  	.LDW431
                              2106  		;; loc_data  1
000000e4  00000000          + 2107  		DD	.DWLopt431	;; address
000000e8  01                  2108  		DC	0x1	;;   size of loc_exp
000000e9  50                  2109  		DC	0x50	;;   DW_OP_reg0
                              2110  		;; loc_data  2
000000ea  00000000          + 2111  		DD	.DWLopt432	;; address
000000ee  01                  2112  		DC	0x1	;;   size of loc_exp
000000ef  E1                  2113  		DC	0xe1	;;   DW_OP_MN_void
                              2114  		;; end
000000f0  00000000            2115  		DD	0x0
000000f4  00                  2116  		DC	0x0
                              2117  	;; End of Resource Information
                              2118  	.debug_frame		SECTION
                              2119  	;; Frame Description Entry(FDE)
00000096  00000000          + 2120  		DD	.LDW446-.LDW445	;; length
0000009a                      2121  	.LDW445
0000009a  00000000          + 2122  		DD	.LFR_TOP	;; CIE_pointer
0000009e  00000000          + 2123  		DD	_SCI0_receive_int	;; initial location
000000a2  00000000          + 2124  		DD	.LDW31-_SCI0_receive_int	;; address_range
                              2125  		;; Prologue
000000a6  02                  2126  		DC	0x2	;; DW_CFA_advance_loc1(_0SCI0_receive_int-_SCI0_receive_int)
000000a7  00                + 2127  		DC	_0SCI0_receive_int-_SCI0_receive_int
000000a8  0E04                2128  		DC	0xe,0x4	;; DW_CFA_def_cfa_offset(4)
000000aa  8201                2129  		DC	0x82,0x1	;; DW_CFA_offset(D2,1)
                              2130  		;; Epilogue
000000ac                      2131  	.LDW446
                              2132  	;; End of Frame Description Entry
                              2133  	;;FUNC E _SCI0_receive_int
                              2134  	;;FUNC S _SCI0_rx_data_deal
                              2135  	.text		SECTION
                              2136  		GLOBAL	_SCI0_rx_data_deal
                              2137  		GLOBAL	_0SCI0_rx_data_deal
00000b2a                      2138  	_SCI0_rx_data_deal
                              2139  	;;PROLOG 0x1c
00000b2a  CFF0                2140  		movm	[D2,D3,A2,A3],(SP)
00000b2c  F8FEF4              2141  		add	-12,SP
                              2142  	_0SCI0_rx_data_deal		FUNCINFO _SCI0_rx_data_deal,28,[D2,D3,A2,A3]
                              2143  	;;LINE 972, 1, 1
00000b2f                      2144  	.DWLopt478
00000b2f  FCA800000000      @ 2145  		movbu	(_guc_SCI0_rx_buffer),D0
00000b35  FCDE00000000      @ 2146  		mov	_guc_SCI0_rx_buffer,A2
00000b3b  A055                2147  		cmp	85,D0
00000b3d  C907DC00000000    @ 2148  		beq	Lcb003b
00000b44  DC00000000        @ 2149  		jmp	L00202
00000b49                      2150  	Lcb003b
                              2151  	;;LINE 974, 1, 1
00000b49                      2152  	.DWLopt479
00000b49  FCA800000000      @ 2153  		movbu	(_guc_SCI0_rx_len),D0
00000b4f  A008                2154  		cmp	8,D0
00000b51  C907DC00000000    @ 2155  		beq	Lcb003c
00000b58  DC00000000        @ 2156  		jmp	L00204
00000b5d                      2157  	Lcb003c
                              2158  	;;LINE 976, 1, 1
00000b5d                      2159  	.DWLopt480
00000b5d  98                  2160  		mov	A2,A0
00000b5e  28FE                2161  		add	-2,D0
00000b60  1C                  2162  		exthu	D0
00000b61  DD000000000000    @ 2163  		call	_0CRC16
00000b68  F89304              2164  		movhu	D0,(4,SP)
                              2165  	;;LINE 978, 1, 1
00000b6b                      2166  	.DWLopt481
00000b6b  FCA900000000      @ 2167  		movbu	(_guc_SCI0_rx_len),D1
00000b71  F8BA04              2168  		movbu	(4,SP),D2
00000b74  80FE                2169  		mov	-2,D0
00000b76  E4                  2170  		add	D1,D0
00000b77  F402                2171  		movbu	(D0,A2),D0
00000b79  A2                  2172  		cmp	D0,D2
00000b7a  C907DC00000000    @ 2173  		beq	Lcb003d
00000b81  DC00000000        @ 2174  		jmp	L00210
00000b86                      2175  	Lcb003d
00000b86  29FF                2176  		add	-1,D1
00000b88  F8BA05              2177  		movbu	(5,SP),D2
00000b8b  F406                2178  		movbu	(D1,A2),D0
00000b8d  A2                  2179  		cmp	D0,D2
00000b8e  C907DC00000000    @ 2180  		beq	Lcb003e
00000b95  DC00000000        @ 2181  		jmp	L00210
00000b9a                      2182  	Lcb003e
                              2183  	;;LINE 982, 1, 1
00000b9a                      2184  	.DWLopt482
00000b9a  FCAC00000000      @ 2185  		movhu	(_flg_SCI0),D0
00000ba0  FAE40001            2186  		or	256,D0
00000ba4  FC8300000000      @ 2187  		movhu	D0,(_flg_SCI0)
                              2188  	;;LINE 986, 1, 1
00000baa                      2189  	.DWLopt483
00000baa  FCAC00000000      @ 2190  		movhu	(_flg_SCI0),D0
00000bb0  F8E401              2191  		or	1,D0
00000bb3  FC8300000000      @ 2192  		movhu	D0,(_flg_SCI0)
                              2193  	;;LINE 989, 1, 1
00000bb9                      2194  	.DWLopt484
00000bb9  FCAC00000000      @ 2195  		movhu	(_flg_SCI0),D0
00000bbf  FAE0FDFF            2196  		and	65533,D0
00000bc3  FC8300000000      @ 2197  		movhu	D0,(_flg_SCI0)
                              2198  	;;LINE 992, 1, 1
00000bc9                      2199  	.DWLopt485
00000bc9  FCAC00000000      @ 2200  		movhu	(_flg_SCI0),D0
00000bcf  FAE07FFF            2201  		and	65407,D0
00000bd3  FC8300000000      @ 2202  		movhu	D0,(_flg_SCI0)
                              2203  	;;LINE 981, 1, 1
00000bd9                      2204  	.DWLopt486
00000bd9  00                  2205  		clr	D0
00000bda  FC8200000000      @ 2206  		movbu	D0,(_guc_SCI0_type_cnt)
                              2207  	;;LINE 983, 1, 1
00000be0                      2208  	.DWLopt487
00000be0  00                  2209  		clr	D0
00000be1  FC8300000000      @ 2210  		movhu	D0,(_gus_SCI0_check_delaytimer)
                              2211  	;;LINE 984, 1, 1
00000be7                      2212  	.DWLopt488
00000be7  FC8300000000      @ 2213  		movhu	D0,(_gss_SCI0_init_delaytimer)
                              2214  	;;LINE 987, 1, 1
00000bed                      2215  	.DWLopt489
00000bed  800A                2216  		mov	10,D0
00000bef  FC8300000000      @ 2217  		movhu	D0,(_gss_SCI0_tx_delaytimer)
                              2218  	;;LINE 990, 1, 1
00000bf5                      2219  	.DWLopt490
00000bf5  00                  2220  		clr	D0
00000bf6  FC8300000000      @ 2221  		movhu	D0,(_gss_SCI0_rx_delaytimer)
                              2222  	;;LINE 993, 1, 1
00000bfc                      2223  	.DWLopt491
00000bfc  00                  2224  		clr	D0
00000bfd  FC8300000000      @ 2225  		movhu	D0,(_gss_SCI0_fault_delaytimer)
                              2226  	;;LINE 998, 1, 1
00000c03                      2227  	.DWLopt492
00000c03  FCAC00000000      @ 2228  		movhu	(_flg_ctrl),D0
00000c09  F8EC20              2229  		btst	32,D0
                              2230  	;;LINE 996, 1, 1
00000c0c                      2231  	.DWLopt493
00000c0c  8008                2232  		mov	8,D0
00000c0e  FC8200000000      @ 2233  		movbu	D0,(_guc_SCI0_tx_len)
                              2234  	;;LINE 998, 0, 1
00000c14                      2235  	.DWLopt494
00000c14  C807DC00000000    @ 2236  		bne	Lcb003f
                              2237  	;;LINE 1518, 1, 1
00000c1b                      2238  	.DWLopt495
00000c1b  DFF01C              2239  		ret
00000c1e                      2240  	Lcb003f
                              2241  	;;LINE 1001, 1, 1
00000c1e                      2242  	.DWLopt496
00000c1e  FCA800000000      @ 2243  		movbu	(_guc_SCI0_rx_buffer+3),D0
00000c24                      2244  	.DWLopt467
                              2245  	;;LINE 1002, 1, 1
00000c24                      2246  	.DWLopt497
00000c24  A020                2247  		cmp	32,D0
00000c26  C007DC00000000    @ 2248  		bge	Lcb0040
00000c2d  DC00000000        @ 2249  		jmp	L00221
00000c32                      2250  	Lcb0040
00000c32  A028                2251  		cmp	40,D0
00000c34  C107DC00000000    @ 2252  		ble	Lcb0041
00000c3b  DC00000000        @ 2253  		jmp	L00221
00000c40                      2254  	Lcb0041
                              2255  	;;LINE 1005, 1, 1
00000c40                      2256  	.DWLopt498
00000c40  FCAC00000000      @ 2257  		movhu	(_flg_fault),D0
                              2258  	;;LINE 1013, 1, 1
00000c46                      2259  	.DWLopt499
00000c46  FCA900000000      @ 2260  		movbu	(_guc_SCI0_rx_buffer+1),D1
                              2261  	;;LINE 1015, 1, 1
00000c4c                      2262  	.DWLopt500
00000c4c  FCAE00000000      @ 2263  		movhu	(_ram_para+206),D2
                              2264  	;;LINE 1005, 0, 1
00000c52                      2265  	.DWLopt501
00000c52  FAE0FFFD            2266  		and	65023,D0
00000c56  FC8300000000      @ 2267  		movhu	D0,(_flg_fault)
                              2268  	;;LINE 1015, 0, 1
00000c5c                      2269  	.DWLopt502
00000c5c  1A                  2270  		exth	D2
                              2271  	;;LINE 1004, 1, 1
00000c5d                      2272  	.DWLopt503
00000c5d  00                  2273  		clr	D0
00000c5e  FC8200000000      @ 2274  		movbu	D0,(_guc_motor_ID_error_cnt)
                              2275  	;;LINE 1007, 1, 1
00000c64                      2276  	.DWLopt504
00000c64  00                  2277  		clr	D0
00000c65  FC8200000000      @ 2278  		movbu	D0,(_guc_motor_ID)
                              2279  	;;LINE 1010, 1, 1
00000c6b                      2280  	.DWLopt505
00000c6b  FCA800000000      @ 2281  		movbu	(_guc_SCI0_rx_buffer+2),D0
00000c71                      2282  	.DWLopt451
                              2283  	;;LINE 1013, 0, 1
00000c71                      2284  	.DWLopt506
00000c71  F8E07F              2285  		and	127,D0
00000c74  F8C008              2286  		asl	8,D0
00000c77  1C                  2287  		exthu	D0
00000c78  E4                  2288  		add	D1,D0
                              2289  	;;LINE 1015, 0, 1
00000c79                      2290  	.DWLopt507
00000c79  81                  2291  		mov	D0,D1
00000c7a  1D                  2292  		exthu	D1
00000c7b  A9                  2293  		cmp	D2,D1
00000c7c  C107DC00000000    @ 2294  		ble	L00225
                              2295  	;;LINE 1017, 1, 1
00000c83                      2296  	.DWLopt508
00000c83  FCAC00000000      @ 2297  		movhu	(_ram_para+206),D0
00000c89                      2298  	.DWLopt452
00000c89                      2299  	L00225
                              2300  	;;LINE 1020, 1, 1
00000c89                      2301  	.DWLopt509
00000c89  FC8300000000      @ 2302  		movhu	D0,(_gus_host_speed_set)
00000c8f                      2303  	.DWLopt453
                              2304  	;;LINE 1022, 1, 1
00000c8f                      2305  	.DWLopt510
00000c8f  1C                  2306  		exthu	D0
00000c90  A000                2307  		cmp	0,D0
00000c92  C807DC00000000    @ 2308  		bne	L00228
                              2309  	;;LINE 1026, 1, 1
00000c99                      2310  	.DWLopt511
00000c99  FCAC00000000      @ 2311  		movhu	(_flg_ctrl),D0
00000c9f  FAE0F7FF            2312  		and	65527,D0
00000ca3  FC8300000000      @ 2313  		movhu	D0,(_flg_ctrl)
                              2314  	;;LINE 1028, 1, 1
00000ca9                      2315  	.DWLopt512
00000ca9  DD000000000000    @ 2316  		call	_0motor_var_init
                              2317  	;;LINE 1030, 1, 1
00000cb0                      2318  	.DWLopt513
00000cb0  00                  2319  		clr	D0
00000cb1  FC8300000000      @ 2320  		movhu	D0,(_gus_host_setfreq)
                              2321  	;;LINE 1032, 1, 1
00000cb7                      2322  	.DWLopt514
00000cb7  FC8200000000      @ 2323  		movbu	D0,(_guc_Iout_fault_cnt)
                              2324  	;;LINE 1033, 1, 1
00000cbd                      2325  	.DWLopt515
00000cbd  FC8200000000      @ 2326  		movbu	D0,(_guc_motor_block_cnt)
                              2327  	;;LINE 1034, 1, 1
00000cc3                      2328  	.DWLopt516
00000cc3  FC8200000000      @ 2329  		movbu	D0,(_guc_ALM_fault_cnt)
                              2330  	;;LINE 1036, 1, 1
00000cc9                      2331  	.DWLopt517
00000cc9  FCAC00000000      @ 2332  		movhu	(_flg_fault),D0
00000ccf  F8EC04              2333  		btst	4,D0
00000cd2  C907DC00000000    @ 2334  		beq	L00237
00000cd9  F8EC08              2335  		btst	8,D0
00000cdc  C807DC00000000    @ 2336  		bne	L00237
                              2337  	;;LINE 1038, 1, 1
00000ce3                      2338  	.DWLopt518
00000ce3  FCAC00000000      @ 2339  		movhu	(_gss_trip_clear_cnt),D0
00000ce9  40                  2340  		inc	D0
00000cea  FC8300000000      @ 2341  		movhu	D0,(_gss_trip_clear_cnt)
                              2342  	;;LINE 1039, 1, 1
00000cf0                      2343  	.DWLopt519
00000cf0  18                  2344  		exth	D0
00000cf1  A00A                2345  		cmp	10,D0
00000cf3  C207DC00000000    @ 2346  		blt	L00237
                              2347  	;;LINE 1042, 1, 1
00000cfa                      2348  	.DWLopt520
00000cfa  FCAC00000000      @ 2349  		movhu	(_flg_fault),D0
00000d00  F8E408              2350  		or	8,D0
00000d03  FC8300000000      @ 2351  		movhu	D0,(_flg_fault)
                              2352  	;;LINE 1041, 1, 1
00000d09                      2353  	.DWLopt521
00000d09  00                  2354  		clr	D0
00000d0a  FC8300000000      @ 2355  		movhu	D0,(_gss_trip_clear_cnt)
                              2356  	;;LINE 0, 0, 1
00000d10                      2357  	.DWLopt522
00000d10  DC00000000        @ 2358  		bra	L00237
00000d15                      2359  	L00228
                              2360  	;;LINE 1053, 1, 1
00000d15                      2361  	.DWLopt523
00000d15  FCAC00000000      @ 2362  		movhu	(_ram_para+196),D0
                              2363  	;;LINE 1054, 1, 1
00000d1b                      2364  	.DWLopt524
00000d1b  FCAD00000000      @ 2365  		movhu	(_gus_host_speed_set),D1
                              2366  	;;LINE 1053, 0, 1
00000d21                      2367  	.DWLopt525
00000d21  18                  2368  		exth	D0
                              2369  	;;LINE 1054, 0, 1
00000d22                      2370  	.DWLopt526
00000d22  F601                2371  		udf00	D0,D1
                              2372  	;;LINE 1057, 1, 1
00000d24                      2373  	.DWLopt527
00000d24  84                  2374  		mov	D1,D0
00000d25  54                  2375  		asl2	D0
00000d26  E4                  2376  		add	D1,D0
00000d27  1C                  2377  		exthu	D0
00000d28  F92003              2378  		udf02	3,D0
00000d2b  FC8300000000      @ 2379  		movhu	D0,(_gus_host_setfreq)
                              2380  	;;LINE 1050, 1, 1
00000d31                      2381  	.DWLopt528
00000d31  FCAC00000000      @ 2382  		movhu	(_flg_ctrl),D0
                              2383  	;;LINE 1059, 1, 1
00000d37                      2384  	.DWLopt529
00000d37  FCAD00000000      @ 2385  		movhu	(_gus_host_setfreq),D1
                              2386  	;;LINE 1050, 0, 1
00000d3d                      2387  	.DWLopt530
00000d3d  F8E408              2388  		or	8,D0
00000d40  FC8300000000      @ 2389  		movhu	D0,(_flg_ctrl)
                              2390  	;;LINE 1059, 0, 1
00000d46                      2391  	.DWLopt531
00000d46  FCAC00000000      @ 2392  		movhu	(_gus_MAX_setfreq),D0
00000d4c  A1                  2393  		cmp	D0,D1
00000d4d  C107DC00000000    @ 2394  		ble	L00237
                              2395  	;;LINE 1061, 1, 1
00000d54                      2396  	.DWLopt532
00000d54  FC8300000000      @ 2397  		movhu	D0,(_gus_host_setfreq)
00000d5a                      2398  	L00237
                              2399  	;;LINE 1066, 1, 1
00000d5a                      2400  	.DWLopt533
00000d5a  FCA800000000      @ 2401  		movbu	(_guc_SCI0_rx_buffer+2),D0
00000d60                      2402  	.DWLopt468
                              2403  	;;LINE 1069, 1, 1
00000d60                      2404  	.DWLopt534
00000d60  FCAD00000000      @ 2405  		movhu	(_flg_ctrl),D1
                              2406  	;;LINE 1067, 1, 1
00000d66                      2407  	.DWLopt535
00000d66  F8E080              2408  		and	128,D0
                              2409  	;;LINE 1069, 0, 1
00000d69                      2410  	.DWLopt536
00000d69  F8ED04              2411  		btst	4,D1
00000d6c  C807DC00000000    @ 2412  		bne	L00240
                              2413  	;;LINE 1071, 1, 1
00000d73                      2414  	.DWLopt537
00000d73  14                  2415  		extbu	D0
00000d74  A000                2416  		cmp	0,D0
00000d76                      2417  	.DWLopt469
00000d76  C807DC00000000    @ 2418  		bne	L00241
00000d7d  DC00000000        @ 2419  		jmp	Lopt000010
00000d82                      2420  	L00241
00000d82  DC00000000        @ 2421  		jmp	L00325
00000d87                      2422  	L00240
                              2423  	;;LINE 1082, 1, 1
00000d87                      2424  	.DWLopt538
00000d87  FCAD00000000      @ 2425  		movhu	(_gus_host_speed_set),D1
00000d8d  A500                2426  		cmp	0,D1
00000d8f  C807DC00000000    @ 2427  		bne	Lcb004a
                              2428  	;;LINE 1518, 0, 1
00000d96                      2429  	.DWLopt539
00000d96  DFF01C              2430  		ret
00000d99                      2431  	Lcb004a
                              2432  	;;LINE 1084, 1, 1
00000d99                      2433  	.DWLopt540
00000d99  14                  2434  		extbu	D0
00000d9a                      2435  	.DWLopt470
00000d9a  A000                2436  		cmp	0,D0
00000d9c  C807DC00000000    @ 2437  		bne	L00245
00000da3  FCAD00000000      @ 2438  		movhu	(_flg_ctrl),D1
00000da9  F8ED40              2439  		btst	64,D1
00000dac  C907DC00000000    @ 2440  		beq	L00245
00000db3  DC00000000        @ 2441  		jmp	Lopt000012
00000db8                      2442  	L00245
                              2443  	;;LINE 1093, 1, 1
00000db8                      2444  	.DWLopt541
00000db8  A000                2445  		cmp	0,D0
00000dba  C807DC00000000    @ 2446  		bne	Lcb004d
                              2447  	;;LINE 1518, 0, 1
00000dc1                      2448  	.DWLopt542
00000dc1  DFF01C              2449  		ret
00000dc4                      2450  	Lcb004d
                              2451  	;;LINE 1093, 0, 1
00000dc4                      2452  	.DWLopt543
00000dc4  FCAC00000000      @ 2453  		movhu	(_flg_ctrl),D0
00000dca  F8EC40              2454  		btst	64,D0
00000dcd  C907DC00000000    @ 2455  		beq	Lcb004e
                              2456  	;;LINE 1518, 0, 1
00000dd4                      2457  	.DWLopt544
00000dd4  DFF01C              2458  		ret
00000dd7                      2459  	Lcb004e
00000dd7  DC00000000        @ 2460  		jmp	Lopt000012
00000ddc                      2461  	L00221
                              2462  	;;LINE 1108, 1, 1
00000ddc                      2463  	.DWLopt545
00000ddc  FCA800000000      @ 2464  		movbu	(_guc_motor_ID_error_cnt),D0
00000de2  40                  2465  		inc	D0
00000de3  FC8200000000      @ 2466  		movbu	D0,(_guc_motor_ID_error_cnt)
                              2467  	;;LINE 1109, 1, 1
00000de9                      2468  	.DWLopt546
00000de9  14                  2469  		extbu	D0
00000dea  A00A                2470  		cmp	10,D0
00000dec  C007DC00000000    @ 2471  		bge	Lcb004f
                              2472  	;;LINE 1518, 0, 1
00000df3                      2473  	.DWLopt547
00000df3  DFF01C              2474  		ret
00000df6                      2475  	Lcb004f
                              2476  	;;LINE 1111, 1, 1
00000df6                      2477  	.DWLopt548
00000df6  00                  2478  		clr	D0
00000df7  FC8200000000      @ 2479  		movbu	D0,(_guc_motor_ID_error_cnt)
                              2480  	;;LINE 1113, 1, 1
00000dfd                      2481  	.DWLopt549
00000dfd  FCAC00000000      @ 2482  		movhu	(_flg_fault),D0
00000e03  2D0002              2483  		mov	512,D1
00000e06  F204                2484  		and	D1,D0
00000e08  C907DC00000000    @ 2485  		beq	Lcb0050
                              2486  	;;LINE 1518, 0, 1
00000e0f                      2487  	.DWLopt550
00000e0f  DFF01C              2488  		ret
00000e12                      2489  	Lcb0050
                              2490  	;;LINE 1115, 1, 1
00000e12                      2491  	.DWLopt551
00000e12  FCAC00000000      @ 2492  		movhu	(_flg_fault),D0
00000e18  F214                2493  		or	D1,D0
00000e1a  FC8300000000      @ 2494  		movhu	D0,(_flg_fault)
                              2495  	;;LINE 1116, 1, 1
00000e20                      2496  	.DWLopt552
00000e20  8053                2497  		mov	83,D0
00000e22  DD000000000000    @ 2498  		call	_0trip_stop_deal
                              2499  	;;LINE 1518, 0, 1
00000e29                      2500  	.DWLopt553
00000e29  DFF01C              2501  		ret
00000e2c                      2502  	L00210
                              2503  	;;LINE 1124, 1, 1
00000e2c                      2504  	.DWLopt554
00000e2c  FCAC00000000      @ 2505  		movhu	(_flg_SCI0),D0
00000e32  2D0001              2506  		mov	256,D1
00000e35  F204                2507  		and	D1,D0
00000e37  C907DC00000000    @ 2508  		beq	Lcb0051
                              2509  	;;LINE 1518, 0, 1
00000e3e                      2510  	.DWLopt555
00000e3e  DFF01C              2511  		ret
00000e41                      2512  	Lcb0051
                              2513  	;;LINE 1126, 1, 1
00000e41                      2514  	.DWLopt556
00000e41  FCA800000000      @ 2515  		movbu	(_guc_SCI0_type_cnt),D0
00000e47  40                  2516  		inc	D0
00000e48  FC8200000000      @ 2517  		movbu	D0,(_guc_SCI0_type_cnt)
                              2518  	;;LINE 1127, 1, 1
00000e4e                      2519  	.DWLopt557
00000e4e  14                  2520  		extbu	D0
00000e4f  A005                2521  		cmp	5,D0
00000e51  C007DC00000000    @ 2522  		bge	Lcb0052
                              2523  	;;LINE 1518, 0, 1
00000e58                      2524  	.DWLopt558
00000e58  DFF01C              2525  		ret
00000e5b                      2526  	Lcb0052
                              2527  	;;LINE 1130, 1, 1
00000e5b                      2528  	.DWLopt559
00000e5b  FCAC00000000      @ 2529  		movhu	(_flg_SCI0),D0
00000e61  F214                2530  		or	D1,D0
00000e63  FC8300000000      @ 2531  		movhu	D0,(_flg_SCI0)
                              2532  	;;LINE 1129, 1, 1
00000e69                      2533  	.DWLopt560
00000e69  00                  2534  		clr	D0
00000e6a  FC8200000000      @ 2535  		movbu	D0,(_guc_SCI0_type_cnt)
                              2536  	;;LINE 1132, 1, 1
00000e70                      2537  	.DWLopt561
00000e70  8004                2538  		mov	4,D0
00000e72  DC00000000        @ 2539  		jmp	Lopt000014
00000e77                      2540  	L00204
                              2541  	;;LINE 1137, 1, 1
00000e77                      2542  	.DWLopt562
00000e77  A004                2543  		cmp	4,D0
00000e79  C907DC00000000    @ 2544  		beq	Lcb0053
                              2545  	;;LINE 1518, 0, 1
00000e80                      2546  	.DWLopt563
00000e80  DFF01C              2547  		ret
00000e83                      2548  	Lcb0053
                              2549  	;;LINE 1139, 1, 1
00000e83                      2550  	.DWLopt564
00000e83  FCA800000000      @ 2551  		movbu	(_guc_SCI0_rx_buffer),D0
00000e89                      2552  	.DWLopt471
                              2553  	;;LINE 1140, 1, 1
00000e89                      2554  	.DWLopt565
00000e89  FCA900000000      @ 2555  		movbu	(_guc_SCI0_rx_buffer+1),D1
                              2556  	;;LINE 1141, 1, 1
00000e8f                      2557  	.DWLopt566
00000e8f  E4                  2558  		add	D1,D0
00000e90  FCA900000000      @ 2559  		movbu	(_guc_SCI0_rx_buffer+2),D1
                              2560  	;;LINE 1144, 1, 1
00000e96                      2561  	.DWLopt567
00000e96  E4                  2562  		add	D1,D0
00000e97  FCA900000000      @ 2563  		movbu	(_guc_SCI0_rx_buffer+3),D1
00000e9d  F230                2564  		not	D0
00000e9f  40                  2565  		inc	D0
00000ea0  14                  2566  		extbu	D0
00000ea1  A4                  2567  		cmp	D1,D0
00000ea2  C907DC00000000    @ 2568  		beq	Lcb0054
                              2569  	;;LINE 1518, 0, 1
00000ea9                      2570  	.DWLopt568
00000ea9  DFF01C              2571  		ret
00000eac                      2572  	Lcb0054
                              2573  	;;LINE 1147, 1, 1
00000eac                      2574  	.DWLopt569
00000eac  FCAC00000000      @ 2575  		movhu	(_flg_SCI0),D0
                              2576  	;;LINE 1168, 1, 1
00000eb2                      2577  	.DWLopt570
00000eb2  FCA900000000      @ 2578  		movbu	(_guc_SCI0_rx_buffer+1),D1
                              2579  	;;LINE 1147, 0, 1
00000eb8                      2580  	.DWLopt571
00000eb8  FAE40001            2581  		or	256,D0
00000ebc  FC8300000000      @ 2582  		movhu	D0,(_flg_SCI0)
                              2583  	;;LINE 1151, 1, 1
00000ec2                      2584  	.DWLopt572
00000ec2  FCAC00000000      @ 2585  		movhu	(_flg_SCI0),D0
                              2586  	;;LINE 1170, 1, 1
00000ec8                      2587  	.DWLopt573
00000ec8  FCAE00000000      @ 2588  		movhu	(_ram_para+206),D2
                              2589  	;;LINE 1151, 0, 1
00000ece                      2590  	.DWLopt574
00000ece  F8E401              2591  		or	1,D0
00000ed1  FC8300000000      @ 2592  		movhu	D0,(_flg_SCI0)
                              2593  	;;LINE 1154, 1, 1
00000ed7                      2594  	.DWLopt575
00000ed7  FCAC00000000      @ 2595  		movhu	(_flg_SCI0),D0
                              2596  	;;LINE 1170, 0, 1
00000edd                      2597  	.DWLopt576
00000edd  1A                  2598  		exth	D2
                              2599  	;;LINE 1154, 0, 1
00000ede                      2600  	.DWLopt577
00000ede  FAE0FDFF            2601  		and	65533,D0
00000ee2  FC8300000000      @ 2602  		movhu	D0,(_flg_SCI0)
                              2603  	;;LINE 1157, 1, 1
00000ee8                      2604  	.DWLopt578
00000ee8  FCAC00000000      @ 2605  		movhu	(_flg_SCI0),D0
00000eee  FAE07FFF            2606  		and	65407,D0
00000ef2  FC8300000000      @ 2607  		movhu	D0,(_flg_SCI0)
                              2608  	;;LINE 1146, 1, 1
00000ef8                      2609  	.DWLopt579
00000ef8  00                  2610  		clr	D0
00000ef9  FC8200000000      @ 2611  		movbu	D0,(_guc_SCI0_type_cnt)
                              2612  	;;LINE 1148, 1, 1
00000eff                      2613  	.DWLopt580
00000eff  00                  2614  		clr	D0
00000f00  FC8300000000      @ 2615  		movhu	D0,(_gus_SCI0_check_delaytimer)
                              2616  	;;LINE 1149, 1, 1
00000f06                      2617  	.DWLopt581
00000f06  FC8300000000      @ 2618  		movhu	D0,(_gss_SCI0_init_delaytimer)
                              2619  	;;LINE 1152, 1, 1
00000f0c                      2620  	.DWLopt582
00000f0c  800A                2621  		mov	10,D0
00000f0e  FC8300000000      @ 2622  		movhu	D0,(_gss_SCI0_tx_delaytimer)
                              2623  	;;LINE 1155, 1, 1
00000f14                      2624  	.DWLopt583
00000f14  00                  2625  		clr	D0
00000f15  FC8300000000      @ 2626  		movhu	D0,(_gss_SCI0_rx_delaytimer)
                              2627  	;;LINE 1158, 1, 1
00000f1b                      2628  	.DWLopt584
00000f1b  00                  2629  		clr	D0
00000f1c  FC8300000000      @ 2630  		movhu	D0,(_gss_SCI0_fault_delaytimer)
                              2631  	;;LINE 1160, 1, 1
00000f22                      2632  	.DWLopt585
00000f22  FC8200000000      @ 2633  		movbu	D0,(_guc_motor_ID)
                              2634  	;;LINE 1163, 1, 1
00000f28                      2635  	.DWLopt586
00000f28  8007                2636  		mov	7,D0
00000f2a  FC8200000000      @ 2637  		movbu	D0,(_guc_SCI0_tx_len)
                              2638  	;;LINE 1166, 1, 1
00000f30                      2639  	.DWLopt587
00000f30  FCA800000000      @ 2640  		movbu	(_guc_SCI0_rx_buffer+2),D0
00000f36                      2641  	.DWLopt454
                              2642  	;;LINE 1168, 0, 1
00000f36                      2643  	.DWLopt588
00000f36  F8C008              2644  		asl	8,D0
00000f39  1C                  2645  		exthu	D0
00000f3a  E4                  2646  		add	D1,D0
                              2647  	;;LINE 1170, 0, 1
00000f3b                      2648  	.DWLopt589
00000f3b  81                  2649  		mov	D0,D1
00000f3c  1D                  2650  		exthu	D1
00000f3d  A9                  2651  		cmp	D2,D1
00000f3e  C107DC00000000    @ 2652  		ble	L00259
                              2653  	;;LINE 1172, 1, 1
00000f45                      2654  	.DWLopt590
00000f45  FCAC00000000      @ 2655  		movhu	(_ram_para+206),D0
00000f4b                      2656  	.DWLopt455
00000f4b                      2657  	L00259
                              2658  	;;LINE 1175, 1, 1
00000f4b                      2659  	.DWLopt591
00000f4b  FC8300000000      @ 2660  		movhu	D0,(_gus_host_speed_set)
00000f51                      2661  	.DWLopt456
                              2662  	;;LINE 1177, 1, 1
00000f51                      2663  	.DWLopt592
00000f51  1C                  2664  		exthu	D0
00000f52  A000                2665  		cmp	0,D0
00000f54  C807DC00000000    @ 2666  		bne	L00260
                              2667  	;;LINE 1181, 1, 1
00000f5b                      2668  	.DWLopt593
00000f5b  FCAC00000000      @ 2669  		movhu	(_flg_ctrl),D0
00000f61  FAE0F7FF            2670  		and	65527,D0
00000f65  FC8300000000      @ 2671  		movhu	D0,(_flg_ctrl)
                              2672  	;;LINE 1182, 1, 1
00000f6b                      2673  	.DWLopt594
00000f6b  00                  2674  		clr	D0
00000f6c  FC8300000000      @ 2675  		movhu	D0,(_gus_host_setfreq)
                              2676  	;;LINE 1184, 1, 1
00000f72                      2677  	.DWLopt595
00000f72  FC8200000000      @ 2678  		movbu	D0,(_guc_Iout_fault_cnt)
                              2679  	;;LINE 1185, 1, 1
00000f78                      2680  	.DWLopt596
00000f78  FC8200000000      @ 2681  		movbu	D0,(_guc_motor_block_cnt)
                              2682  	;;LINE 1186, 1, 1
00000f7e                      2683  	.DWLopt597
00000f7e  FC8200000000      @ 2684  		movbu	D0,(_guc_ALM_fault_cnt)
                              2685  	;;LINE 1188, 1, 1
00000f84                      2686  	.DWLopt598
00000f84  FCAC00000000      @ 2687  		movhu	(_flg_fault),D0
00000f8a  F8EC04              2688  		btst	4,D0
00000f8d  C807DC00000000    @ 2689  		bne	Lcb0057
                              2690  	;;LINE 1518, 0, 1
00000f94                      2691  	.DWLopt599
00000f94  DFF01C              2692  		ret
00000f97                      2693  	Lcb0057
                              2694  	;;LINE 1188, 0, 1
00000f97                      2695  	.DWLopt600
00000f97  F8EC08              2696  		btst	8,D0
00000f9a  C907DC00000000    @ 2697  		beq	Lcb0058
                              2698  	;;LINE 1518, 0, 1
00000fa1                      2699  	.DWLopt601
00000fa1  DFF01C              2700  		ret
00000fa4                      2701  	Lcb0058
                              2702  	;;LINE 1190, 1, 1
00000fa4                      2703  	.DWLopt602
00000fa4  FCAC00000000      @ 2704  		movhu	(_gss_trip_clear_cnt),D0
00000faa  40                  2705  		inc	D0
00000fab  FC8300000000      @ 2706  		movhu	D0,(_gss_trip_clear_cnt)
                              2707  	;;LINE 1191, 1, 1
00000fb1                      2708  	.DWLopt603
00000fb1  18                  2709  		exth	D0
00000fb2  A00A                2710  		cmp	10,D0
00000fb4  C007DC00000000    @ 2711  		bge	Lcb0059
                              2712  	;;LINE 1518, 0, 1
00000fbb                      2713  	.DWLopt604
00000fbb  DFF01C              2714  		ret
00000fbe                      2715  	Lcb0059
                              2716  	;;LINE 1194, 1, 1
00000fbe                      2717  	.DWLopt605
00000fbe  FCAC00000000      @ 2718  		movhu	(_flg_fault),D0
00000fc4  F8E408              2719  		or	8,D0
00000fc7  FC8300000000      @ 2720  		movhu	D0,(_flg_fault)
                              2721  	;;LINE 1193, 1, 1
00000fcd                      2722  	.DWLopt606
00000fcd  00                  2723  		clr	D0
00000fce  FC8300000000      @ 2724  		movhu	D0,(_gss_trip_clear_cnt)
                              2725  	;;LINE 1518, 0, 1
00000fd4                      2726  	.DWLopt607
00000fd4  DFF01C              2727  		ret
00000fd7                      2728  	L00260
                              2729  	;;LINE 1205, 1, 1
00000fd7                      2730  	.DWLopt608
00000fd7  FCAD00000000      @ 2731  		movhu	(_ram_para+196),D1
                              2732  	;;LINE 1206, 1, 1
00000fdd                      2733  	.DWLopt609
00000fdd  FCAC00000000      @ 2734  		movhu	(_gus_host_speed_set),D0
                              2735  	;;LINE 1205, 0, 1
00000fe3                      2736  	.DWLopt610
00000fe3  19                  2737  		exth	D1
                              2738  	;;LINE 1206, 0, 1
00000fe4                      2739  	.DWLopt611
00000fe4  F604                2740  		udf00	D1,D0
00000fe6  81                  2741  		mov	D0,D1
                              2742  	;;LINE 1208, 1, 1
00000fe7                      2743  	.DWLopt612
00000fe7  54                  2744  		asl2	D0
00000fe8  E4                  2745  		add	D1,D0
00000fe9  1C                  2746  		exthu	D0
00000fea  F92003              2747  		udf02	3,D0
00000fed  FC8300000000      @ 2748  		movhu	D0,(_gus_host_setfreq)
                              2749  	;;LINE 1202, 1, 1
00000ff3                      2750  	.DWLopt613
00000ff3  FCAC00000000      @ 2751  		movhu	(_flg_ctrl),D0
                              2752  	;;LINE 1210, 1, 1
00000ff9                      2753  	.DWLopt614
00000ff9  FCAD00000000      @ 2754  		movhu	(_gus_host_setfreq),D1
                              2755  	;;LINE 1202, 0, 1
00000fff                      2756  	.DWLopt615
00000fff  F8E408              2757  		or	8,D0
00001002  FC8300000000      @ 2758  		movhu	D0,(_flg_ctrl)
                              2759  	;;LINE 1210, 0, 1
00001008                      2760  	.DWLopt616
00001008  FCAC00000000      @ 2761  		movhu	(_gus_MAX_setfreq),D0
0000100e  A1                  2762  		cmp	D0,D1
0000100f  C307DC00000000    @ 2763  		bgt	Lcb005a
                              2764  	;;LINE 1518, 0, 1
00001016                      2765  	.DWLopt617
00001016  DFF01C              2766  		ret
00001019                      2767  	Lcb005a
00001019  DC00000000        @ 2768  		jmp	Lopt000013
0000101e                      2769  	L00202
                              2770  	;;LINE 1219, 1, 1
0000101e                      2771  	.DWLopt618
0000101e  A03E                2772  		cmp	62,D0
00001020  C907DC00000000    @ 2773  		beq	Lcb005b
00001027  DC00000000        @ 2774  		jmp	L00266
0000102c                      2775  	Lcb005b
                              2776  	;;LINE 1221, 1, 1
0000102c                      2777  	.DWLopt619
0000102c  2EFF00              2778  		mov	255,D2
0000102f                      2779  	.DWLopt476
                              2780  	;;LINE 1222, 1, 1
0000102f                      2781  	.DWLopt620
0000102f  8001                2782  		mov	1,D0
00001031                      2783  	.DWLopt461
                              2784  	;;LINE 1222, 1, 1
00001031                      2785  	.DWLopt621
00001031  81                  2786  		mov	D0,D1
                              2787  	;;LINE 0, 0, 1
00001032                      2788  	.DWLopt622
00001032  DB                  2789  		setlb
                              2790  	;;LINE 1224, 1, 1
00001033                      2791  	.DWLopt623
00001033  14                  2792  		extbu	D0
00001034  F402                2793  		movbu	(D0,A2),D0
00001036                      2794  	.DWLopt462
00001036  16                  2795  		extbu	D2
00001037  F222                2796  		xor	D0,D2
                              2797  	;;LINE 1222, 1, 1
00001039                      2798  	.DWLopt624
00001039  44                  2799  		inc	D1
0000103a  84                  2800  		mov	D1,D0
                              2801  	;;LINE 1222, 1, 1
0000103b                      2802  	.DWLopt625
0000103b  15                  2803  		extbu	D1
0000103c  A50A                2804  		cmp	10,D1
0000103e  D0                  2805  		llt
                              2806  	;;LINE 1227, 1, 1
0000103f                      2807  	.DWLopt626
0000103f  FCA800000000      @ 2808  		movbu	(_guc_SCI0_rx_buffer+10),D0
00001045  DD000000000000    @ 2809  		call	_0Ascii_to_data
0000104c  83                  2810  		mov	D0,D3
0000104d                      2811  	.DWLopt465
                              2812  	;;LINE 1228, 1, 1
0000104d                      2813  	.DWLopt627
0000104d  FCA800000000      @ 2814  		movbu	(_guc_SCI0_rx_buffer+11),D0
00001053  DD000000000000    @ 2815  		call	_0Ascii_to_data
                              2816  	;;LINE 1233, 1, 1
0000105a                      2817  	.DWLopt628
0000105a  F8C304              2818  		asl	4,D3
0000105d  E3                  2819  		add	D0,D3
0000105e  17                  2820  		extbu	D3
0000105f  16                  2821  		extbu	D2
00001060  AE                  2822  		cmp	D3,D2
00001061                      2823  	.DWLopt477
00001061                      2824  	.DWLopt466
00001061  C907DC00000000    @ 2825  		beq	Lcb005c
00001068  DC00000000        @ 2826  		jmp	L00275
0000106d                      2827  	Lcb005c
                              2828  	;;LINE 1235, 1, 1
0000106d                      2829  	.DWLopt629
0000106d  FCAC00000000      @ 2830  		movhu	(_flg_SCI0),D0
00001073  2D0001              2831  		mov	256,D1
00001076  F204                2832  		and	D1,D0
00001078  C807DC00000000    @ 2833  		bne	L00276
                              2834  	;;LINE 1237, 1, 1
0000107f                      2835  	.DWLopt630
0000107f  FCAC00000000      @ 2836  		movhu	(_flg_SCI0),D0
00001085  F214                2837  		or	D1,D0
00001087  FC8300000000      @ 2838  		movhu	D0,(_flg_SCI0)
                              2839  	;;LINE 1238, 1, 1
0000108d                      2840  	.DWLopt631
0000108d  00                  2841  		clr	D0
0000108e  FC8200000000      @ 2842  		movbu	D0,(_guc_SCI0_type_cnt)
                              2843  	;;LINE 1239, 1, 1
00001094                      2844  	.DWLopt632
00001094  FCAC00000000      @ 2845  		movhu	(_flg_SCI0),D0
0000109a  FAE40002            2846  		or	512,D0
0000109e  FC8300000000      @ 2847  		movhu	D0,(_flg_SCI0)
                              2848  	;;LINE 1240, 1, 1
000010a4                      2849  	.DWLopt633
000010a4  2CB000              2850  		mov	176,D0
000010a7  0204A1              2851  		movbu	D0,(41220)
000010aa                      2852  	L00276
                              2853  	;;LINE 1243, 1, 1
000010aa                      2854  	.DWLopt634
000010aa  00                  2855  		clr	D0
000010ab  FC8300000000      @ 2856  		movhu	D0,(_gus_SCI0_check_delaytimer)
                              2857  	;;LINE 1244, 1, 1
000010b1                      2858  	.DWLopt635
000010b1  FC8300000000      @ 2859  		movhu	D0,(_gss_SCI0_init_delaytimer)
                              2860  	;;LINE 1246, 1, 1
000010b7                      2861  	.DWLopt636
000010b7  FCAC00000000      @ 2862  		movhu	(_flg_SCI0),D0
000010bd  F8E401              2863  		or	1,D0
000010c0  FC8300000000      @ 2864  		movhu	D0,(_flg_SCI0)
                              2865  	;;LINE 1247, 1, 1
000010c6                      2866  	.DWLopt637
000010c6  800A                2867  		mov	10,D0
000010c8  FC8300000000      @ 2868  		movhu	D0,(_gss_SCI0_tx_delaytimer)
                              2869  	;;LINE 1249, 1, 1
000010ce                      2870  	.DWLopt638
000010ce  FCAC00000000      @ 2871  		movhu	(_flg_SCI0),D0
000010d4  FAE0FDFF            2872  		and	65533,D0
000010d8  FC8300000000      @ 2873  		movhu	D0,(_flg_SCI0)
                              2874  	;;LINE 1250, 1, 1
000010de                      2875  	.DWLopt639
000010de  00                  2876  		clr	D0
000010df  FC8300000000      @ 2877  		movhu	D0,(_gss_SCI0_rx_delaytimer)
                              2878  	;;LINE 1252, 1, 1
000010e5                      2879  	.DWLopt640
000010e5  FCAC00000000      @ 2880  		movhu	(_flg_SCI0),D0
000010eb  FAE07FFF            2881  		and	65407,D0
000010ef  FC8300000000      @ 2882  		movhu	D0,(_flg_SCI0)
                              2883  	;;LINE 1253, 1, 1
000010f5                      2884  	.DWLopt641
000010f5  00                  2885  		clr	D0
000010f6  FC8300000000      @ 2886  		movhu	D0,(_gss_SCI0_fault_delaytimer)
                              2887  	;;LINE 1255, 1, 1
000010fc                      2888  	.DWLopt642
000010fc  DD000000000000    @ 2889  		call	_0Renesas_rx_data_deal
                              2890  	;;LINE 1518, 0, 1
00001103                      2891  	.DWLopt643
00001103  DFF01C              2892  		ret
00001106                      2893  	L00275
                              2894  	;;LINE 1259, 1, 1
00001106                      2895  	.DWLopt644
00001106  FCAC00000000      @ 2896  		movhu	(_flg_SCI0),D0
0000110c  2D0001              2897  		mov	256,D1
0000110f  F204                2898  		and	D1,D0
00001111  C907DC00000000    @ 2899  		beq	Lcb005e
                              2900  	;;LINE 1518, 0, 1
00001118                      2901  	.DWLopt645
00001118  DFF01C              2902  		ret
0000111b                      2903  	Lcb005e
                              2904  	;;LINE 1261, 1, 1
0000111b                      2905  	.DWLopt646
0000111b  FCA800000000      @ 2906  		movbu	(_guc_SCI0_type_cnt),D0
00001121  40                  2907  		inc	D0
00001122  FC8200000000      @ 2908  		movbu	D0,(_guc_SCI0_type_cnt)
                              2909  	;;LINE 1262, 1, 1
00001128                      2910  	.DWLopt647
00001128  14                  2911  		extbu	D0
00001129  A005                2912  		cmp	5,D0
0000112b  C007DC00000000    @ 2913  		bge	Lcb005f
                              2914  	;;LINE 1518, 0, 1
00001132                      2915  	.DWLopt648
00001132  DFF01C              2916  		ret
00001135                      2917  	Lcb005f
                              2918  	;;LINE 1264, 1, 1
00001135                      2919  	.DWLopt649
00001135  00                  2920  		clr	D0
00001136  FC8200000000      @ 2921  		movbu	D0,(_guc_SCI0_type_cnt)
                              2922  	;;LINE 1265, 1, 1
0000113c                      2923  	.DWLopt650
0000113c  FCAC00000000      @ 2924  		movhu	(_flg_SCI0),D0
                              2925  	;;LINE 1266, 1, 1
00001142                      2926  	.DWLopt651
00001142  F214                2927  		or	D1,D0
00001144  FAE40002            2928  		or	512,D0
00001148  FC8300000000      @ 2929  		movhu	D0,(_flg_SCI0)
                              2930  	;;LINE 1267, 1, 1
0000114e                      2931  	.DWLopt652
0000114e  2CB000              2932  		mov	176,D0
00001151  0204A1              2933  		movbu	D0,(41220)
                              2934  	;;LINE 1269, 1, 1
00001154                      2935  	.DWLopt653
00001154  800C                2936  		mov	12,D0
00001156  DC00000000        @ 2937  		jmp	Lopt000014
0000115b                      2938  	L00266
                              2939  	;;LINE 1276, 1, 1
0000115b                      2940  	.DWLopt654
0000115b  FCA900000000      @ 2941  		movbu	(_guc_comm_address),D1
00001161  28D0                2942  		add	-48,D0
00001163  A4                  2943  		cmp	D1,D0
00001164  C907DC00000000    @ 2944  		beq	Lcb0060
                              2945  	;;LINE 1518, 0, 1
0000116b                      2946  	.DWLopt655
0000116b  DFF01C              2947  		ret
0000116e                      2948  	Lcb0060
                              2949  	;;LINE 1278, 1, 1
0000116e                      2950  	.DWLopt656
0000116e  FCA800000000      @ 2951  		movbu	(_guc_SCI0_rx_len),D0
00001174  98                  2952  		mov	A2,A0
00001175  28FE                2953  		add	-2,D0
00001177  1C                  2954  		exthu	D0
00001178  DD000000000000    @ 2955  		call	_0CRC16
0000117f  F89304              2956  		movhu	D0,(4,SP)
                              2957  	;;LINE 1280, 1, 1
00001182                      2958  	.DWLopt657
00001182  FCA900000000      @ 2959  		movbu	(_guc_SCI0_rx_len),D1
00001188  F8BA04              2960  		movbu	(4,SP),D2
0000118b  80FE                2961  		mov	-2,D0
0000118d  E4                  2962  		add	D1,D0
0000118e  F402                2963  		movbu	(D0,A2),D0
00001190  A2                  2964  		cmp	D0,D2
00001191  C907DC00000000    @ 2965  		beq	Lcb0061
00001198  DC00000000        @ 2966  		jmp	L00286
0000119d                      2967  	Lcb0061
0000119d  29FF                2968  		add	-1,D1
0000119f  F8B805              2969  		movbu	(5,SP),D0
000011a2  F416                2970  		movbu	(D1,A2),D1
000011a4  A4                  2971  		cmp	D1,D0
000011a5  C907DC00000000    @ 2972  		beq	Lcb0062
000011ac  DC00000000        @ 2973  		jmp	L00286
000011b1                      2974  	Lcb0062
                              2975  	;;LINE 1284, 1, 1
000011b1                      2976  	.DWLopt658
000011b1  FCAC00000000      @ 2977  		movhu	(_flg_SCI0),D0
000011b7  FAE40001            2978  		or	256,D0
000011bb  FC8300000000      @ 2979  		movhu	D0,(_flg_SCI0)
                              2980  	;;LINE 1288, 1, 1
000011c1                      2981  	.DWLopt659
000011c1  FCAC00000000      @ 2982  		movhu	(_flg_SCI0),D0
000011c7  F8E401              2983  		or	1,D0
000011ca  FC8300000000      @ 2984  		movhu	D0,(_flg_SCI0)
                              2985  	;;LINE 1291, 1, 1
000011d0                      2986  	.DWLopt660
000011d0  FCAC00000000      @ 2987  		movhu	(_flg_SCI0),D0
000011d6  FAE0FDFF            2988  		and	65533,D0
000011da  FC8300000000      @ 2989  		movhu	D0,(_flg_SCI0)
                              2990  	;;LINE 1294, 1, 1
000011e0                      2991  	.DWLopt661
000011e0  FCAC00000000      @ 2992  		movhu	(_flg_SCI0),D0
000011e6  FAE07FFF            2993  		and	65407,D0
000011ea  FC8300000000      @ 2994  		movhu	D0,(_flg_SCI0)
                              2995  	;;LINE 1283, 1, 1
000011f0                      2996  	.DWLopt662
000011f0  00                  2997  		clr	D0
000011f1  FC8200000000      @ 2998  		movbu	D0,(_guc_SCI0_type_cnt)
                              2999  	;;LINE 1285, 1, 1
000011f7                      3000  	.DWLopt663
000011f7  00                  3001  		clr	D0
000011f8  FC8300000000      @ 3002  		movhu	D0,(_gus_SCI0_check_delaytimer)
                              3003  	;;LINE 1286, 1, 1
000011fe                      3004  	.DWLopt664
000011fe  FC8300000000      @ 3005  		movhu	D0,(_gss_SCI0_init_delaytimer)
                              3006  	;;LINE 1289, 1, 1
00001204                      3007  	.DWLopt665
00001204  800A                3008  		mov	10,D0
00001206  FC8300000000      @ 3009  		movhu	D0,(_gss_SCI0_tx_delaytimer)
                              3010  	;;LINE 1292, 1, 1
0000120c                      3011  	.DWLopt666
0000120c  00                  3012  		clr	D0
0000120d  FC8300000000      @ 3013  		movhu	D0,(_gss_SCI0_rx_delaytimer)
                              3014  	;;LINE 1295, 1, 1
00001213                      3015  	.DWLopt667
00001213  00                  3016  		clr	D0
00001214  FC8300000000      @ 3017  		movhu	D0,(_gss_SCI0_fault_delaytimer)
                              3018  	;;LINE 1298, 1, 1
0000121a                      3019  	.DWLopt668
0000121a  8010                3020  		mov	16,D0
0000121c  FC8200000000      @ 3021  		movbu	D0,(_guc_SCI0_tx_len)
                              3022  	;;LINE 1300, 1, 1
00001222                      3023  	.DWLopt669
00001222  FCAC00000000      @ 3024  		movhu	(_flg_ctrl),D0
00001228  F8EC20              3025  		btst	32,D0
0000122b  C807DC00000000    @ 3026  		bne	Lcb0063
                              3027  	;;LINE 1518, 0, 1
00001232                      3028  	.DWLopt670
00001232  DFF01C              3029  		ret
00001235                      3030  	Lcb0063
                              3031  	;;LINE 1302, 1, 1
00001235                      3032  	.DWLopt671
00001235  F8EC04              3033  		btst	4,D0
00001238  C907DC00000000    @ 3034  		beq	Lcb0064
0000123f  DC00000000        @ 3035  		jmp	L00288
00001244                      3036  	Lcb0064
                              3037  	;;LINE 1304, 1, 1
00001244                      3038  	.DWLopt672
00001244  FCA800000000      @ 3039  		movbu	(_guc_SCI0_rx_buffer+1),D0
0000124a  FC8200000000      @ 3040  		movbu	D0,(_guc_motor_ID)
                              3041  	;;LINE 1305, 1, 1
00001250                      3042  	.DWLopt673
00001250  FCA900000000      @ 3043  		movbu	(_guc_motor_ID),D1
00001256  A520                3044  		cmp	32,D1
00001258  C007DC00000000    @ 3045  		bge	Lcb0065
0000125f  DC00000000        @ 3046  		jmp	L00289
00001264                      3047  	Lcb0065
00001264  A528                3048  		cmp	40,D1
00001266  C107DC00000000    @ 3049  		ble	Lcb0066
0000126d  DC00000000        @ 3050  		jmp	L00289
00001272                      3051  	Lcb0066
                              3052  	;;LINE 1308, 1, 1
00001272                      3053  	.DWLopt674
00001272  FCAC00000000      @ 3054  		movhu	(_flg_fault),D0
00001278  FAE0FFFD            3055  		and	65023,D0
0000127c  FC8300000000      @ 3056  		movhu	D0,(_flg_fault)
                              3057  	;;LINE 1307, 1, 1
00001282                      3058  	.DWLopt675
00001282  00                  3059  		clr	D0
00001283  FC8200000000      @ 3060  		movbu	D0,(_guc_motor_ID_error_cnt)
                              3061  	;;LINE 1310, 1, 1
00001289                      3062  	.DWLopt676
00001289  FCAC00000000      @ 3063  		movhu	(_ram_para+214),D0
0000128f  18                  3064  		exth	D0
00001290  A4                  3065  		cmp	D1,D0
00001291  C807DC00000000    @ 3066  		bne	Lcb0067
00001298  DC00000000        @ 3067  		jmp	L00303
0000129d                      3068  	Lcb0067
                              3069  	;;LINE 1312, 1, 1
0000129d                      3070  	.DWLopt677
0000129d  DD000000000000    @ 3071  		call	_0disable_irq
                              3072  	;;LINE 1319, 1, 1
000012a4                      3073  	.DWLopt678
000012a4  FCA800000000      @ 3074  		movbu	(_guc_motor_ID),D0
000012aa  FC8300000000      @ 3075  		movhu	D0,(_ram_para+214)
                              3076  	;;LINE 1320, 1, 1
000012b0                      3077  	.DWLopt679
000012b0  FCDC00000000      @ 3078  		mov	_ram_para+214,A0
000012b6  806B                3079  		mov	107,D0
000012b8  8501                3080  		mov	1,D1
000012ba  DD000000000000    @ 3081  		call	_0writeword_to_eeprom
                              3082  	;;LINE 1322, 1, 1
000012c1                      3083  	.DWLopt680
000012c1  261082              3084  		mov	33296,A2
000012c4  2CD900              3085  		mov	217,D0
000012c7  F052                3086  		movbu	D0,(A2)
                              3087  	;;LINE 1322, 1, 1
000012c9                      3088  	.DWLopt681
000012c9  270282              3089  		mov	33282,A3
000012cc  340282              3090  		movbu	(33282),D0
000012cf  F8E440              3091  		or	64,D0
000012d2  F053                3092  		movbu	D0,(A3)
                              3093  	;;LINE 1322, 1, 1
000012d4                      3094  	.DWLopt682
000012d4  2CFF00              3095  		mov	255,D0
000012d7  F052                3096  		movbu	D0,(A2)
                              3097  	;;LINE 1325, 1, 1
000012d9                      3098  	.DWLopt683
000012d9  08                  3099  		clr	D2
000012da                      3100  	.DWLopt463
                              3101  	;;LINE 1325, 1, 1
000012da                      3102  	.DWLopt684
000012da  0C                  3103  		clr	D3
000012db                      3104  	L00297
                              3105  	;;LINE 1330, 1, 1
000012db                      3106  	.DWLopt685
000012db  FCAC00000000      @ 3107  		movhu	(_ram_para+214),D0
000012e1  18                  3108  		exth	D0
000012e2  16                  3109  		extbu	D2
000012e3                      3110  	.DWLopt464
000012e3  EA                  3111  		add	D2,D2
000012e4  F90042              3112  		udf00	66,D0
000012e7  FCC000000000      @ 3113  		add	_App_para,D0
000012ed  FCDCC0F7FFFF        3114  		mov	-2112,A0
000012f3  F160                3115  		add	D0,A0
000012f5  F498                3116  		movhu	(D2,A0),D1
000012f7  F1E8                3117  		mov	D2,A0
000012f9  FCD000000000      @ 3118  		add	_App_index,A0
000012ff  F060                3119  		movhu	(A0),D0
00001301  E0                  3120  		add	D0,D0
00001302  FCDD00000000      @ 3121  		mov	_ram_para,A1
00001308  F4D1                3122  		movhu	D1,(D0,A1)
                              3123  	;;LINE 1331, 1, 1
0000130a                      3124  	.DWLopt686
0000130a  F060                3125  		movhu	(A0),D0
0000130c  F068                3126  		movhu	(A0),D2
0000130e  E0                  3127  		add	D0,D0
0000130f  F1E0                3128  		mov	D0,A0
00001311  F174                3129  		add	A1,A0
00001313  8501                3130  		mov	1,D1
                              3131  	;;LINE 0, 0, 1
00001315                      3132  	.DWLopt687
00001315  88                  3133  		mov	D2,D0
                              3134  	;;LINE 1331, 0, 1
00001316                      3135  	.DWLopt688
00001316  DD000000000000    @ 3136  		call	_0writeword_to_eeprom
                              3137  	;;LINE 1332, 1, 1
0000131d                      3138  	.DWLopt689
0000131d  2CD900              3139  		mov	217,D0
00001320  F052                3140  		movbu	D0,(A2)
                              3141  	;;LINE 1332, 1, 1
00001322                      3142  	.DWLopt690
00001322  340282              3143  		movbu	(33282),D0
00001325  F8E440              3144  		or	64,D0
00001328  F053                3145  		movbu	D0,(A3)
                              3146  	;;LINE 1332, 1, 1
0000132a                      3147  	.DWLopt691
0000132a  2CFF00              3148  		mov	255,D0
0000132d  F052                3149  		movbu	D0,(A2)
                              3150  	;;LINE 1325, 1, 1
0000132f                      3151  	.DWLopt692
0000132f  4C                  3152  		inc	D3
00001330  8E                  3153  		mov	D3,D2
                              3154  	;;LINE 1325, 1, 1
00001331                      3155  	.DWLopt693
00001331  17                  3156  		extbu	D3
00001332  AF21                3157  		cmp	33,D3
00001334  C000              + 3158  		blt	L00297
                              3159  	;;LINE 1337, 1, 1
00001336                      3160  	.DWLopt694
00001336  240482              3161  		mov	33284,A0
00001339  00                  3162  		clr	D0
0000133a  F050                3163  		movbu	D0,(A0)
                              3164  	;;LINE 1337, 1, 1
0000133c                      3165  	.DWLopt695
0000133c  8001                3166  		mov	1,D0
0000133e  F050                3167  		movbu	D0,(A0)
                              3168  	;;LINE 0, 0, 1
00001340                      3169  	.DWLopt696
00001340  DC00000000        @ 3170  		bra	L00303
00001345                      3171  	L00289
                              3172  	;;LINE 1342, 1, 1
00001345                      3173  	.DWLopt697
00001345  FCA800000000      @ 3174  		movbu	(_guc_motor_ID_error_cnt),D0
0000134b  40                  3175  		inc	D0
0000134c  FC8200000000      @ 3176  		movbu	D0,(_guc_motor_ID_error_cnt)
                              3177  	;;LINE 1343, 1, 1
00001352                      3178  	.DWLopt698
00001352  14                  3179  		extbu	D0
00001353  A00A                3180  		cmp	10,D0
00001355  C207DC00000000    @ 3181  		blt	L00303
                              3182  	;;LINE 1345, 1, 1
0000135c                      3183  	.DWLopt699
0000135c  00                  3184  		clr	D0
0000135d  FC8200000000      @ 3185  		movbu	D0,(_guc_motor_ID_error_cnt)
                              3186  	;;LINE 1347, 1, 1
00001363                      3187  	.DWLopt700
00001363  FCAC00000000      @ 3188  		movhu	(_flg_fault),D0
00001369  2D0002              3189  		mov	512,D1
0000136c  F204                3190  		and	D1,D0
0000136e  C807DC00000000    @ 3191  		bne	L00303
                              3192  	;;LINE 1349, 1, 1
00001375                      3193  	.DWLopt701
00001375  FCAC00000000      @ 3194  		movhu	(_flg_fault),D0
0000137b  F214                3195  		or	D1,D0
0000137d  FC8300000000      @ 3196  		movhu	D0,(_flg_fault)
                              3197  	;;LINE 1350, 1, 1
00001383                      3198  	.DWLopt702
00001383  8053                3199  		mov	83,D0
00001385  DD000000000000    @ 3200  		call	_0trip_stop_deal
0000138c                      3201  	L00303
                              3202  	;;LINE 1355, 1, 1
0000138c                      3203  	.DWLopt703
0000138c  FCA900000000      @ 3204  		movbu	(_guc_SCI0_rx_buffer+5),D1
                              3205  	;;LINE 1356, 1, 1
00001392                      3206  	.DWLopt704
00001392  FCAC00000000      @ 3207  		movhu	(_EEPROM_InitData+964),D0
                              3208  	;;LINE 1355, 0, 1
00001398                      3209  	.DWLopt705
00001398  F9010A              3210  		udf00	10,D1
0000139b                      3211  	.DWLopt457
                              3212  	;;LINE 1356, 0, 1
0000139b                      3213  	.DWLopt706
0000139b  86                  3214  		mov	D1,D2
0000139c  1E                  3215  		exthu	D2
0000139d  18                  3216  		exth	D0
0000139e  A2                  3217  		cmp	D0,D2
0000139f  C207DC00000000    @ 3218  		blt	L00288
000013a6  FCAC00000000      @ 3219  		movhu	(_EEPROM_InitData+962),D0
000013ac  18                  3220  		exth	D0
000013ad  A2                  3221  		cmp	D0,D2
000013ae  C307DC00000000    @ 3222  		bgt	L00288
                              3223  	;;LINE 1359, 1, 1
000013b5                      3224  	.DWLopt707
000013b5  FCAC00000000      @ 3225  		movhu	(_ram_para+192),D0
000013bb  18                  3226  		exth	D0
000013bc  A8                  3227  		cmp	D2,D0
000013bd  C907DC00000000    @ 3228  		beq	L00288
                              3229  	;;LINE 1363, 1, 1
000013c4                      3230  	.DWLopt708
000013c4  FC8700000000      @ 3231  		movhu	D1,(_ram_para+192)
000013ca                      3232  	.DWLopt458
                              3233  	;;LINE 1365, 1, 1
000013ca                      3234  	.DWLopt709
000013ca  FCAD00000000      @ 3235  		movhu	(_ram_para+190),D1
                              3236  	;;LINE 1375, 1, 1
000013d0                      3237  	.DWLopt710
000013d0  00                  3238  		clr	D0
                              3239  	;;LINE 1365, 0, 1
000013d1                      3240  	.DWLopt711
000013d1  19                  3241  		exth	D1
                              3242  	;;LINE 1375, 0, 1
000013d2                      3243  	.DWLopt712
000013d2  FC8300000000      @ 3244  		movhu	D0,(_gus_phase_adv_degree)
                              3245  	;;LINE 1365, 0, 1
000013d8                      3246  	.DWLopt713
000013d8  FCAC00000000      @ 3247  		movhu	(_gus_Hall_freq),D0
000013de  A4                  3248  		cmp	D1,D0
000013df  C107DC00000000    @ 3249  		ble	L00314
                              3250  	;;LINE 1368, 1, 1
000013e6                      3251  	.DWLopt714
000013e6  FCAC00000000      @ 3252  		movhu	(_ram_para+190),D0
000013ec  FCAD00000000      @ 3253  		movhu	(_gus_Hall_freq),D1
000013f2  18                  3254  		exth	D0
000013f3  F101                3255  		sub	D0,D1
                              3256  	;;LINE 1369, 1, 1
000013f5                      3257  	.DWLopt715
000013f5  FCAC00000000      @ 3258  		movhu	(_ram_para+192),D0
000013fb  18                  3259  		exth	D0
                              3260  	;;LINE 1370, 1, 1
000013fc                      3261  	.DWLopt716
000013fc  F611                3262  		udf01	D0,D1
000013fe  FB358813            3263  		udfu03	5000,D1
00001402  4608                3264  		mov	D1,(8,SP)
                              3265  	;;LINE 1371, 1, 1
00001404                      3266  	.DWLopt717
00001404  FC8700000000      @ 3267  		movhu	D1,(_gus_phase_adv_degree)
0000140a                      3268  	L00314
                              3269  	;;LINE 1378, 1, 1
0000140a                      3270  	.DWLopt718
0000140a  FCAD00000000      @ 3271  		movhu	(_ram_para+194),D1
00001410  FCAC00000000      @ 3272  		movhu	(_gus_phase_adv_degree),D0
00001416  19                  3273  		exth	D1
00001417  A4                  3274  		cmp	D1,D0
00001418  C207DC00000000    @ 3275  		blt	L00288
                              3276  	;;LINE 1380, 1, 1
0000141f                      3277  	.DWLopt719
0000141f  FCAC00000000      @ 3278  		movhu	(_ram_para+194),D0
00001425  FC8300000000      @ 3279  		movhu	D0,(_gus_phase_adv_degree)
0000142b                      3280  	L00288
                              3281  	;;LINE 1391, 1, 1
0000142b                      3282  	.DWLopt720
0000142b  FCA900000000      @ 3283  		movbu	(_guc_SCI0_rx_buffer+3),D1
00001431                      3284  	.DWLopt459
                              3285  	;;LINE 1394, 1, 1
00001431                      3286  	.DWLopt721
00001431  FCA800000000      @ 3287  		movbu	(_guc_SCI0_rx_buffer+2),D0
                              3288  	;;LINE 1396, 1, 1
00001437                      3289  	.DWLopt722
00001437  FCAE00000000      @ 3290  		movhu	(_ram_para+206),D2
                              3291  	;;LINE 1394, 0, 1
0000143d                      3292  	.DWLopt723
0000143d  F8E17F              3293  		and	127,D1
00001440  F8C108              3294  		asl	8,D1
00001443  1D                  3295  		exthu	D1
00001444  E1                  3296  		add	D0,D1
                              3297  	;;LINE 1396, 0, 1
00001445                      3298  	.DWLopt724
00001445  1A                  3299  		exth	D2
00001446  84                  3300  		mov	D1,D0
00001447  1C                  3301  		exthu	D0
00001448  A8                  3302  		cmp	D2,D0
00001449  C107DC00000000    @ 3303  		ble	L00316
                              3304  	;;LINE 1398, 1, 1
00001450                      3305  	.DWLopt725
00001450  FCAD00000000      @ 3306  		movhu	(_ram_para+206),D1
00001456                      3307  	.DWLopt460
00001456                      3308  	L00316
                              3309  	;;LINE 1401, 1, 1
00001456                      3310  	.DWLopt726
00001456  FC8700000000      @ 3311  		movhu	D1,(_gus_host_speed_set)
                              3312  	;;LINE 1403, 1, 1
0000145c                      3313  	.DWLopt727
0000145c  FE020000000000    @ 3314  		btst	2,(_guc_SCI0_rx_buffer+4)
00001463  C907DC00000000    @ 3315  		beq	L00317
                              3316  	;;LINE 1405, 1, 1
0000146a                      3317  	.DWLopt728
0000146a  FCAC00000000      @ 3318  		movhu	(_flg_theta),D0
00001470  F8E404              3319  		or	4,D0
00001473  DC00000000        @ 3320  		bra	Lopt000015
00001478                      3321  	L00317
                              3322  	;;LINE 1409, 1, 1
00001478                      3323  	.DWLopt729
00001478  FCAC00000000      @ 3324  		movhu	(_flg_theta),D0
0000147e  FAE0FBFF            3325  		and	65531,D0
00001482                      3326  	Lopt000015
                              3327  	;;LINE 1409, 0, 1
00001482                      3328  	.DWLopt730
                              3329  	;;LINE 1405, 0, 1
00001482                      3330  	.DWLopt731
00001482  FC8300000000      @ 3331  		movhu	D0,(_flg_theta)
                              3332  	;;LINE 1412, 1, 1
00001488                      3333  	.DWLopt732
00001488  FCAC00000000      @ 3334  		movhu	(_flg_theta),D0
0000148e  F8EC04              3335  		btst	4,D0
00001491  C807DC00000000    @ 3336  		bne	L00320
00001498  FE020000000000    @ 3337  		btst	1,(_guc_SCI0_rx_buffer+4)
0000149f  C907DC00000000    @ 3338  		beq	L00320
000014a6  FCAC00000000      @ 3339  		movhu	(_gus_host_speed_set),D0
000014ac  A000                3340  		cmp	0,D0
000014ae  C907DC00000000    @ 3341  		beq	L00320
                              3342  	;;LINE 1422, 1, 1
000014b5                      3343  	.DWLopt733
000014b5  FCAC00000000      @ 3344  		movhu	(_ram_para+196),D0
                              3345  	;;LINE 1423, 1, 1
000014bb                      3346  	.DWLopt734
000014bb  1D                  3347  		exthu	D1
                              3348  	;;LINE 1422, 0, 1
000014bc                      3349  	.DWLopt735
000014bc  18                  3350  		exth	D0
                              3351  	;;LINE 1423, 0, 1
000014bd                      3352  	.DWLopt736
000014bd  F601                3353  		udf00	D0,D1
                              3354  	;;LINE 1426, 1, 1
000014bf                      3355  	.DWLopt737
000014bf  84                  3356  		mov	D1,D0
000014c0  54                  3357  		asl2	D0
000014c1  E4                  3358  		add	D1,D0
000014c2  1C                  3359  		exthu	D0
000014c3  F92003              3360  		udf02	3,D0
000014c6  FC8300000000      @ 3361  		movhu	D0,(_gus_host_setfreq)
                              3362  	;;LINE 1416, 1, 1
000014cc                      3363  	.DWLopt738
000014cc  FCAC00000000      @ 3364  		movhu	(_flg_ctrl),D0
                              3365  	;;LINE 1428, 1, 1
000014d2                      3366  	.DWLopt739
000014d2  FCAD00000000      @ 3367  		movhu	(_gus_host_setfreq),D1
                              3368  	;;LINE 1416, 0, 1
000014d8                      3369  	.DWLopt740
000014d8  F8E408              3370  		or	8,D0
000014db  FC8300000000      @ 3371  		movhu	D0,(_flg_ctrl)
                              3372  	;;LINE 1428, 0, 1
000014e1                      3373  	.DWLopt741
000014e1  FCAC00000000      @ 3374  		movhu	(_gus_MAX_setfreq),D0
000014e7  A1                  3375  		cmp	D0,D1
000014e8  C107DC00000000    @ 3376  		ble	L00322
                              3377  	;;LINE 1430, 1, 1
000014ef                      3378  	.DWLopt742
000014ef  FC8300000000      @ 3379  		movhu	D0,(_gus_host_setfreq)
                              3380  	;;LINE 0, 0, 1
000014f5                      3381  	.DWLopt743
000014f5  DC00000000        @ 3382  		bra	L00322
000014fa                      3383  	L00320
                              3384  	;;LINE 1435, 1, 1
000014fa                      3385  	.DWLopt744
000014fa  FCAC00000000      @ 3386  		movhu	(_flg_ctrl),D0
00001500  FAE0F7FF            3387  		and	65527,D0
00001504  FC8300000000      @ 3388  		movhu	D0,(_flg_ctrl)
                              3389  	;;LINE 1437, 1, 1
0000150a                      3390  	.DWLopt745
0000150a  DD000000000000    @ 3391  		call	_0motor_var_init
                              3392  	;;LINE 1439, 1, 1
00001511                      3393  	.DWLopt746
00001511  00                  3394  		clr	D0
00001512  FC8300000000      @ 3395  		movhu	D0,(_gus_host_setfreq)
                              3396  	;;LINE 1440, 1, 1
00001518                      3397  	.DWLopt747
00001518  FC8200000000      @ 3398  		movbu	D0,(_guc_Iout_fault_cnt)
                              3399  	;;LINE 1441, 1, 1
0000151e                      3400  	.DWLopt748
0000151e  FC8200000000      @ 3401  		movbu	D0,(_guc_motor_block_cnt)
                              3402  	;;LINE 1442, 1, 1
00001524                      3403  	.DWLopt749
00001524  FC8200000000      @ 3404  		movbu	D0,(_guc_ALM_fault_cnt)
0000152a                      3405  	L00322
                              3406  	;;LINE 1445, 1, 1
0000152a                      3407  	.DWLopt750
0000152a  FCAC00000000      @ 3408  		movhu	(_flg_fault),D0
00001530  F8EC04              3409  		btst	4,D0
00001533  C907DC00000000    @ 3410  		beq	L00323
0000153a  FE020000000000    @ 3411  		btst	4,(_guc_SCI0_rx_buffer+4)
00001541  C907DC00000000    @ 3412  		beq	L00323
00001548  F8EC08              3413  		btst	8,D0
0000154b  C807DC00000000    @ 3414  		bne	L00323
                              3415  	;;LINE 1453, 1, 1
00001552                      3416  	.DWLopt751
00001552  F8E408              3417  		or	8,D0
00001555  FC8300000000      @ 3418  		movhu	D0,(_flg_fault)
0000155b                      3419  	L00323
                              3420  	;;LINE 1459, 1, 1
0000155b                      3421  	.DWLopt752
0000155b  FCA800000000      @ 3422  		movbu	(_guc_SCI0_rx_buffer+3),D0
00001561                      3423  	.DWLopt472
                              3424  	;;LINE 1461, 1, 1
00001561                      3425  	.DWLopt753
00001561  FCAD00000000      @ 3426  		movhu	(_flg_ctrl),D1
                              3427  	;;LINE 1460, 1, 1
00001567                      3428  	.DWLopt754
00001567  F8E080              3429  		and	128,D0
                              3430  	;;LINE 1461, 0, 1
0000156a                      3431  	.DWLopt755
0000156a  F8ED04              3432  		btst	4,D1
0000156d  C807DC00000000    @ 3433  		bne	L00324
                              3434  	;;LINE 1463, 1, 1
00001574                      3435  	.DWLopt756
00001574  14                  3436  		extbu	D0
00001575  A000                3437  		cmp	0,D0
00001577                      3438  	.DWLopt473
00001577  C807DC00000000    @ 3439  		bne	L00325
0000157e                      3440  	Lopt000010
                              3441  	;;LINE 1465, 1, 1
0000157e                      3442  	.DWLopt757
                              3443  	;;LINE 1073, 1, 1
0000157e                      3444  	.DWLopt758
0000157e  FCAC00000000      @ 3445  		movhu	(_flg_ctrl),D0
00001584  FAE0BFFF            3446  		and	65471,D0
00001588  DC00000000        @ 3447  		bra	Lopt000011
0000158d                      3448  	L00325
                              3449  	;;LINE 1469, 1, 1
0000158d                      3450  	.DWLopt759
                              3451  	;;LINE 1077, 1, 1
0000158d                      3452  	.DWLopt760
0000158d  FCAC00000000      @ 3453  		movhu	(_flg_ctrl),D0
00001593  F8E440              3454  		or	64,D0
00001596                      3455  	.DWLopt474
00001596                      3456  	Lopt000011
                              3457  	;;LINE 1469, 0, 1
00001596                      3458  	.DWLopt761
                              3459  	;;LINE 1465, 0, 1
00001596                      3460  	.DWLopt762
                              3461  	;;LINE 1077, 0, 1
00001596                      3462  	.DWLopt763
                              3463  	;;LINE 1073, 0, 1
00001596                      3464  	.DWLopt764
00001596  FC8300000000      @ 3465  		movhu	D0,(_flg_ctrl)
                              3466  	;;LINE 1518, 0, 1
0000159c                      3467  	.DWLopt765
0000159c  DFF01C              3468  		ret
0000159f                      3469  	L00324
                              3470  	;;LINE 1474, 1, 1
0000159f                      3471  	.DWLopt766
0000159f  FCAD00000000      @ 3472  		movhu	(_gus_host_speed_set),D1
000015a5  A500                3473  		cmp	0,D1
000015a7  C807DC00000000    @ 3474  		bne	Lcb007b
                              3475  	;;LINE 1518, 0, 1
000015ae                      3476  	.DWLopt767
000015ae  DFF01C              3477  		ret
000015b1                      3478  	Lcb007b
                              3479  	;;LINE 1476, 1, 1
000015b1                      3480  	.DWLopt768
000015b1  14                  3481  		extbu	D0
000015b2                      3482  	.DWLopt475
000015b2  A000                3483  		cmp	0,D0
000015b4  C807DC00000000    @ 3484  		bne	L00329
000015bb  FCAD00000000      @ 3485  		movhu	(_flg_ctrl),D1
000015c1  F8ED40              3486  		btst	64,D1
000015c4  C807DC00000000    @ 3487  		bne	Lopt000012
000015cb                      3488  	L00329
                              3489  	;;LINE 1485, 1, 1
000015cb                      3490  	.DWLopt769
000015cb  A000                3491  		cmp	0,D0
000015cd  C907DC00000000    @ 3492  		beq	L00265
000015d4  FCAC00000000      @ 3493  		movhu	(_flg_ctrl),D0
000015da  F8EC40              3494  		btst	64,D0
000015dd  C807DC00000000    @ 3495  		bne	L00265
000015e4                      3496  	Lopt000012
                              3497  	;;LINE 1489, 1, 1
000015e4                      3498  	.DWLopt770
                              3499  	;;LINE 1480, 1, 1
000015e4                      3500  	.DWLopt771
                              3501  	;;LINE 1097, 1, 1
000015e4                      3502  	.DWLopt772
                              3503  	;;LINE 1088, 1, 1
000015e4                      3504  	.DWLopt773
000015e4  FCAC00000000      @ 3505  		movhu	(_flg_ctrl),D0
000015ea  FAE0F7FF            3506  		and	65527,D0
000015ee  FC8300000000      @ 3507  		movhu	D0,(_flg_ctrl)
                              3508  	;;LINE 1491, 1, 1
000015f4                      3509  	.DWLopt774
                              3510  	;;LINE 1482, 1, 1
000015f4                      3511  	.DWLopt775
                              3512  	;;LINE 1099, 1, 1
000015f4                      3513  	.DWLopt776
                              3514  	;;LINE 1090, 1, 1
000015f4                      3515  	.DWLopt777
000015f4  00                  3516  		clr	D0
000015f5  FC8300000000      @ 3517  		movhu	D0,(_gus_host_speed_set)
000015fb                      3518  	Lopt000013
                              3519  	;;LINE 1492, 1, 1
000015fb                      3520  	.DWLopt778
                              3521  	;;LINE 1483, 1, 1
000015fb                      3522  	.DWLopt779
                              3523  	;;LINE 1212, 1, 1
000015fb                      3524  	.DWLopt780
                              3525  	;;LINE 1100, 1, 1
000015fb                      3526  	.DWLopt781
                              3527  	;;LINE 1091, 1, 1
000015fb                      3528  	.DWLopt782
000015fb  FC8300000000      @ 3529  		movhu	D0,(_gus_host_setfreq)
                              3530  	;;LINE 0, 0, 1
00001601                      3531  	.DWLopt783
00001601  DC00000000        @ 3532  		bra	L00265
00001606                      3533  	L00286
                              3534  	;;LINE 1504, 1, 1
00001606                      3535  	.DWLopt784
00001606  FCAC00000000      @ 3536  		movhu	(_flg_SCI0),D0
0000160c  2D0001              3537  		mov	256,D1
0000160f  F204                3538  		and	D1,D0
00001611  C807DC00000000    @ 3539  		bne	L00265
                              3540  	;;LINE 1506, 1, 1
00001618                      3541  	.DWLopt785
00001618  FCA800000000      @ 3542  		movbu	(_guc_SCI0_type_cnt),D0
0000161e  40                  3543  		inc	D0
0000161f  FC8200000000      @ 3544  		movbu	D0,(_guc_SCI0_type_cnt)
                              3545  	;;LINE 1507, 1, 1
00001625                      3546  	.DWLopt786
00001625  14                  3547  		extbu	D0
00001626  A005                3548  		cmp	5,D0
00001628  C207DC00000000    @ 3549  		blt	L00265
                              3550  	;;LINE 1510, 1, 1
0000162f                      3551  	.DWLopt787
0000162f  FCAC00000000      @ 3552  		movhu	(_flg_SCI0),D0
00001635  F214                3553  		or	D1,D0
00001637  FC8300000000      @ 3554  		movhu	D0,(_flg_SCI0)
                              3555  	;;LINE 1509, 1, 1
0000163d                      3556  	.DWLopt788
0000163d  00                  3557  		clr	D0
0000163e  FC8200000000      @ 3558  		movbu	D0,(_guc_SCI0_type_cnt)
                              3559  	;;LINE 1512, 1, 1
00001644                      3560  	.DWLopt789
00001644  800A                3561  		mov	10,D0
00001646                      3562  	Lopt000014
                              3563  	;;LINE 1512, 0, 1
00001646                      3564  	.DWLopt790
                              3565  	;;LINE 1269, 0, 1
00001646                      3566  	.DWLopt791
                              3567  	;;LINE 1132, 0, 1
00001646                      3568  	.DWLopt792
00001646  FC8200000000      @ 3569  		movbu	D0,(_guc_SCI0_rx_len)
0000164c                      3570  	L00265
                              3571  	;;LINE 1518, 0, 1
0000164c                      3572  	.DWLopt793
0000164c  DFF01C              3573  		ret
0000164f                      3574  	.LDW32
                              3575  		FUNCTION	_0SCI0_rx_data_deal,.LDW32-_0SCI0_rx_data_deal
                              3576  		FUNCTION	_SCI0_rx_data_deal,.LDW32-_SCI0_rx_data_deal
                              3577  	.debug_MN_rsc		SECTION
                              3578  	;; Resource Information
                              3579  	;; resource_list  1
000000f5                      3580  	.LDW447
                              3581  		;; loc_data  1
000000f5  00000000          + 3582  		DD	.DWLopt461	;; address
000000f9  01                  3583  		DC	0x1	;;   size of loc_exp
000000fa  50                  3584  		DC	0x50	;;   DW_OP_reg0
                              3585  		;; loc_data  2
000000fb  00000000          + 3586  		DD	.DWLopt462	;; address
000000ff  01                  3587  		DC	0x1	;;   size of loc_exp
00000100  E1                  3588  		DC	0xe1	;;   DW_OP_MN_void
                              3589  		;; loc_data  3
00000101  00000000          + 3590  		DD	.DWLopt463	;; address
00000105  01                  3591  		DC	0x1	;;   size of loc_exp
00000106  52                  3592  		DC	0x52	;;   DW_OP_reg2
                              3593  		;; loc_data  4
00000107  00000000          + 3594  		DD	.DWLopt464	;; address
0000010b  01                  3595  		DC	0x1	;;   size of loc_exp
0000010c  E1                  3596  		DC	0xe1	;;   DW_OP_MN_void
                              3597  		;; end
0000010d  00000000            3598  		DD	0x0
00000111  00                  3599  		DC	0x0
                              3600  	;; resource_list  2
00000112                      3601  	.LDW450
                              3602  		;; loc_data  1
00000112  00000000          + 3603  		DD	.DWLopt467	;; address
00000116  01                  3604  		DC	0x1	;;   size of loc_exp
00000117  50                  3605  		DC	0x50	;;   DW_OP_reg0
                              3606  		;; loc_data  2
00000118  00000000          + 3607  		DD	.DWLopt468	;; address
0000011c  01                  3608  		DC	0x1	;;   size of loc_exp
0000011d  50                  3609  		DC	0x50	;;   DW_OP_reg0
                              3610  		;; loc_data  3
0000011e  00000000          + 3611  		DD	.DWLopt469	;; address
00000122  01                  3612  		DC	0x1	;;   size of loc_exp
00000123  E1                  3613  		DC	0xe1	;;   DW_OP_MN_void
                              3614  		;; loc_data  4
00000124  00000000          + 3615  		DD	.DWLopt470	;; address
00000128  01                  3616  		DC	0x1	;;   size of loc_exp
00000129  E1                  3617  		DC	0xe1	;;   DW_OP_MN_void
                              3618  		;; loc_data  5
0000012a  00000000          + 3619  		DD	.DWLopt471	;; address
0000012e  01                  3620  		DC	0x1	;;   size of loc_exp
0000012f  50                  3621  		DC	0x50	;;   DW_OP_reg0
                              3622  		;; loc_data  6
00000130  00000000          + 3623  		DD	.DWLopt472	;; address
00000134  01                  3624  		DC	0x1	;;   size of loc_exp
00000135  50                  3625  		DC	0x50	;;   DW_OP_reg0
                              3626  		;; loc_data  7
00000136  00000000          + 3627  		DD	.DWLopt473	;; address
0000013a  01                  3628  		DC	0x1	;;   size of loc_exp
0000013b  E1                  3629  		DC	0xe1	;;   DW_OP_MN_void
                              3630  		;; loc_data  8
0000013c  00000000          + 3631  		DD	.DWLopt474	;; address
00000140  01                  3632  		DC	0x1	;;   size of loc_exp
00000141  50                  3633  		DC	0x50	;;   DW_OP_reg0
                              3634  		;; loc_data  9
00000142  00000000          + 3635  		DD	.DWLopt475	;; address
00000146  01                  3636  		DC	0x1	;;   size of loc_exp
00000147  E1                  3637  		DC	0xe1	;;   DW_OP_MN_void
                              3638  		;; loc_data  10
00000148  00000000          + 3639  		DD	.DWLopt476	;; address
0000014c  01                  3640  		DC	0x1	;;   size of loc_exp
0000014d  52                  3641  		DC	0x52	;;   DW_OP_reg2
                              3642  		;; loc_data  11
0000014e  00000000          + 3643  		DD	.DWLopt477	;; address
00000152  01                  3644  		DC	0x1	;;   size of loc_exp
00000153  E1                  3645  		DC	0xe1	;;   DW_OP_MN_void
                              3646  		;; end
00000154  00000000            3647  		DD	0x0
00000158  00                  3648  		DC	0x0
                              3649  	;; resource_list  3
00000159                      3650  	.LDW459
                              3651  		;; loc_data  1
00000159  00000000          + 3652  		DD	.DWLopt451	;; address
0000015d  01                  3653  		DC	0x1	;;   size of loc_exp
0000015e  50                  3654  		DC	0x50	;;   DW_OP_reg0
                              3655  		;; loc_data  2
0000015f  00000000          + 3656  		DD	.DWLopt452	;; address
00000163  01                  3657  		DC	0x1	;;   size of loc_exp
00000164  50                  3658  		DC	0x50	;;   DW_OP_reg0
                              3659  		;; loc_data  3
00000165  00000000          + 3660  		DD	.DWLopt453	;; address
00000169  01                  3661  		DC	0x1	;;   size of loc_exp
0000016a  E1                  3662  		DC	0xe1	;;   DW_OP_MN_void
                              3663  		;; loc_data  4
0000016b  00000000          + 3664  		DD	.DWLopt454	;; address
0000016f  01                  3665  		DC	0x1	;;   size of loc_exp
00000170  50                  3666  		DC	0x50	;;   DW_OP_reg0
                              3667  		;; loc_data  5
00000171  00000000          + 3668  		DD	.DWLopt455	;; address
00000175  01                  3669  		DC	0x1	;;   size of loc_exp
00000176  50                  3670  		DC	0x50	;;   DW_OP_reg0
                              3671  		;; loc_data  6
00000177  00000000          + 3672  		DD	.DWLopt456	;; address
0000017b  01                  3673  		DC	0x1	;;   size of loc_exp
0000017c  E1                  3674  		DC	0xe1	;;   DW_OP_MN_void
                              3675  		;; loc_data  7
0000017d  00000000          + 3676  		DD	.DWLopt457	;; address
00000181  01                  3677  		DC	0x1	;;   size of loc_exp
00000182  51                  3678  		DC	0x51	;;   DW_OP_reg1
                              3679  		;; loc_data  8
00000183  00000000          + 3680  		DD	.DWLopt458	;; address
00000187  01                  3681  		DC	0x1	;;   size of loc_exp
00000188  E1                  3682  		DC	0xe1	;;   DW_OP_MN_void
                              3683  		;; loc_data  9
00000189  00000000          + 3684  		DD	.DWLopt459	;; address
0000018d  01                  3685  		DC	0x1	;;   size of loc_exp
0000018e  51                  3686  		DC	0x51	;;   DW_OP_reg1
                              3687  		;; loc_data  10
0000018f  00000000          + 3688  		DD	.DWLopt460	;; address
00000193  01                  3689  		DC	0x1	;;   size of loc_exp
00000194  51                  3690  		DC	0x51	;;   DW_OP_reg1
                              3691  		;; end
00000195  00000000            3692  		DD	0x0
00000199  00                  3693  		DC	0x0
                              3694  	;; resource_list  4
0000019a                      3695  	.LDW486
                              3696  		;; loc_data  1
0000019a  00000000          + 3697  		DD	.DWLopt465	;; address
0000019e  01                  3698  		DC	0x1	;;   size of loc_exp
0000019f  53                  3699  		DC	0x53	;;   DW_OP_reg3
                              3700  		;; loc_data  2
000001a0  00000000          + 3701  		DD	.DWLopt466	;; address
000001a4  01                  3702  		DC	0x1	;;   size of loc_exp
000001a5  E1                  3703  		DC	0xe1	;;   DW_OP_MN_void
                              3704  		;; end
000001a6  00000000            3705  		DD	0x0
000001aa  00                  3706  		DC	0x0
                              3707  	;; End of Resource Information
                              3708  	.debug_frame		SECTION
                              3709  	;; Frame Description Entry(FDE)
000000ac  00000000          + 3710  		DD	.LDW755-.LDW754	;; length
000000b0                      3711  	.LDW754
000000b0  00000000          + 3712  		DD	.LFR_TOP	;; CIE_pointer
000000b4  00000000          + 3713  		DD	_SCI0_rx_data_deal	;; initial location
000000b8  00000000          + 3714  		DD	.LDW32-_SCI0_rx_data_deal	;; address_range
                              3715  		;; Prologue
000000bc  02                  3716  		DC	0x2	;; DW_CFA_advance_loc1(_0SCI0_rx_data_deal-_SCI0_rx_data_deal)
000000bd  00                + 3717  		DC	_0SCI0_rx_data_deal-_SCI0_rx_data_deal
000000be  0E1C                3718  		DC	0xe,0x1c	;; DW_CFA_def_cfa_offset(28)
000000c0  8201                3719  		DC	0x82,0x1	;; DW_CFA_offset(D2,1)
000000c2  8302                3720  		DC	0x83,0x2	;; DW_CFA_offset(D3,2)
000000c4  8603                3721  		DC	0x86,0x3	;; DW_CFA_offset(A2,3)
000000c6  8704                3722  		DC	0x87,0x4	;; DW_CFA_offset(A3,4)
                              3723  		;; Epilogue
000000c8                      3724  	.LDW755
                              3725  	;; End of Frame Description Entry
                              3726  	;;FUNC E _SCI0_rx_data_deal
                              3727  	;;FUNC S _Renesas_rx_data_deal
                              3728  	.text		SECTION
                              3729  		GLOBAL	_Renesas_rx_data_deal
                              3730  		GLOBAL	_0Renesas_rx_data_deal
0000164f                      3731  	_Renesas_rx_data_deal
                              3732  	;;PROLOG 0x10
0000164f  CFE0                3733  		movm	[D2,D3,A2],(SP)
00001651  F8FEFC              3734  		add	-4,SP
                              3735  	_0Renesas_rx_data_deal		FUNCINFO _Renesas_rx_data_deal,16,[D2,D3,A2]
                              3736  	;;LINE 1531, 1, 1
00001654                      3737  	.DWLopt802
00001654  8020                3738  		mov	32,D0
00001656  FC8200000000      @ 3739  		movbu	D0,(_guc_motor_ID)
                              3740  	;;LINE 1532, 1, 1
0000165c                      3741  	.DWLopt803
0000165c  FCAC00000000      @ 3742  		movhu	(_flg_ctrl),D0
00001662  FAE0BFFF            3743  		and	65471,D0
00001666  FC8300000000      @ 3744  		movhu	D0,(_flg_ctrl)
                              3745  	;;LINE 1535, 1, 1
0000166c                      3746  	.DWLopt804
0000166c  8014                3747  		mov	20,D0
0000166e  FC8200000000      @ 3748  		movbu	D0,(_guc_SCI0_tx_len)
                              3749  	;;LINE 1537, 1, 1
00001674                      3750  	.DWLopt805
00001674  FCA800000000      @ 3751  		movbu	(_guc_SCI0_rx_buffer+2),D0
0000167a  DD000000000000    @ 3752  		call	_0Ascii_to_data
                              3753  	;;LINE 1538, 1, 1
00001681                      3754  	.DWLopt806
00001681  82                  3755  		mov	D0,D2
                              3756  	;;LINE 1540, 1, 1
00001682                      3757  	.DWLopt807
00001682  FCA800000000      @ 3758  		movbu	(_guc_SCI0_rx_buffer+3),D0
00001688  DD000000000000    @ 3759  		call	_0Ascii_to_data
                              3760  	;;LINE 1538, 0, 1
0000168f                      3761  	.DWLopt808
0000168f  F8C20C              3762  		asl	12,D2
00001692  F1EA                3763  		mov	D2,A2
00001694                      3764  	.DWLopt801
                              3765  	;;LINE 1541, 1, 1
00001694                      3766  	.DWLopt809
00001694  82                  3767  		mov	D0,D2
                              3768  	;;LINE 1543, 1, 1
00001695                      3769  	.DWLopt810
00001695  FCA800000000      @ 3770  		movbu	(_guc_SCI0_rx_buffer+4),D0
0000169b  DD000000000000    @ 3771  		call	_0Ascii_to_data
                              3772  	;;LINE 1541, 0, 1
000016a2                      3773  	.DWLopt811
000016a2  F8C208              3774  		asl	8,D2
000016a5                      3775  	.DWLopt799
                              3776  	;;LINE 1544, 1, 1
000016a5                      3777  	.DWLopt812
000016a5  83                  3778  		mov	D0,D3
                              3779  	;;LINE 1546, 1, 1
000016a6                      3780  	.DWLopt813
000016a6  FCA800000000      @ 3781  		movbu	(_guc_SCI0_rx_buffer+5),D0
000016ac  DD000000000000    @ 3782  		call	_0Ascii_to_data
                              3783  	;;LINE 1555, 1, 1
000016b3                      3784  	.DWLopt814
000016b3  FCAD00000000      @ 3785  		movhu	(_ram_para+206),D1
                              3786  	;;LINE 1544, 0, 1
000016b9                      3787  	.DWLopt815
000016b9  17                  3788  		extbu	D3
000016ba  F8C304              3789  		asl	4,D3
000016bd                      3790  	.DWLopt797
                              3791  	;;LINE 1553, 1, 1
000016bd                      3792  	.DWLopt816
000016bd  F15A                3793  		add	A2,D2
000016bf  EE                  3794  		add	D3,D2
000016c0                      3795  	.DWLopt798
000016c0  14                  3796  		extbu	D0
000016c1  E2                  3797  		add	D0,D2
000016c2  1E                  3798  		exthu	D2
000016c3  F90206              3799  		udf00	6,D2
000016c6                      3800  	.DWLopt800
000016c6                      3801  	.DWLopt794
                              3802  	;;LINE 1555, 0, 1
000016c6                      3803  	.DWLopt817
000016c6  19                  3804  		exth	D1
000016c7  88                  3805  		mov	D2,D0
000016c8  1C                  3806  		exthu	D0
000016c9  A4                  3807  		cmp	D1,D0
000016ca  C107DC00000000    @ 3808  		ble	L00350
                              3809  	;;LINE 1557, 1, 1
000016d1                      3810  	.DWLopt818
000016d1  FCAE00000000      @ 3811  		movhu	(_ram_para+206),D2
000016d7                      3812  	.DWLopt795
000016d7                      3813  	L00350
                              3814  	;;LINE 1560, 1, 1
000016d7                      3815  	.DWLopt819
000016d7  FC8B00000000      @ 3816  		movhu	D2,(_gus_host_speed_set)
000016dd                      3817  	.DWLopt796
                              3818  	;;LINE 1563, 1, 1
000016dd                      3819  	.DWLopt820
000016dd  FCAC00000000      @ 3820  		movhu	(_gus_host_speed_set),D0
000016e3  A000                3821  		cmp	0,D0
000016e5  C807DC00000000    @ 3822  		bne	L00353
                              3823  	;;LINE 1567, 1, 1
000016ec                      3824  	.DWLopt821
000016ec  FCAC00000000      @ 3825  		movhu	(_flg_ctrl),D0
000016f2  FAE0F7FF            3826  		and	65527,D0
000016f6  FC8300000000      @ 3827  		movhu	D0,(_flg_ctrl)
                              3828  	;;LINE 1569, 1, 1
000016fc                      3829  	.DWLopt822
000016fc  DD000000000000    @ 3830  		call	_0motor_var_init
                              3831  	;;LINE 1571, 1, 1
00001703                      3832  	.DWLopt823
00001703  00                  3833  		clr	D0
00001704  FC8300000000      @ 3834  		movhu	D0,(_gus_host_setfreq)
                              3835  	;;LINE 1573, 1, 1
0000170a                      3836  	.DWLopt824
0000170a  FC8200000000      @ 3837  		movbu	D0,(_guc_Iout_fault_cnt)
                              3838  	;;LINE 1574, 1, 1
00001710                      3839  	.DWLopt825
00001710  FC8200000000      @ 3840  		movbu	D0,(_guc_motor_block_cnt)
                              3841  	;;LINE 1575, 1, 1
00001716                      3842  	.DWLopt826
00001716  FC8200000000      @ 3843  		movbu	D0,(_guc_ALM_fault_cnt)
                              3844  	;;LINE 1577, 1, 1
0000171c                      3845  	.DWLopt827
0000171c  FCAC00000000      @ 3846  		movhu	(_flg_fault),D0
00001722  F8EC04              3847  		btst	4,D0
00001725  C807DC00000000    @ 3848  		bne	Lcb0084
                              3849  	;;LINE 1604, 1, 1
0000172c                      3850  	.DWLopt828
0000172c  DFE010              3851  		ret
0000172f                      3852  	Lcb0084
                              3853  	;;LINE 1577, 0, 1
0000172f                      3854  	.DWLopt829
0000172f  F8EC08              3855  		btst	8,D0
00001732  C907DC00000000    @ 3856  		beq	Lcb0085
                              3857  	;;LINE 1604, 0, 1
00001739                      3858  	.DWLopt830
00001739  DFE010              3859  		ret
0000173c                      3860  	Lcb0085
                              3861  	;;LINE 1579, 1, 1
0000173c                      3862  	.DWLopt831
0000173c  FCAC00000000      @ 3863  		movhu	(_gss_trip_clear_cnt),D0
00001742  40                  3864  		inc	D0
00001743  FC8300000000      @ 3865  		movhu	D0,(_gss_trip_clear_cnt)
                              3866  	;;LINE 1580, 1, 1
00001749                      3867  	.DWLopt832
00001749  18                  3868  		exth	D0
0000174a  A00A                3869  		cmp	10,D0
0000174c  C207DC00000000    @ 3870  		blt	L00363
                              3871  	;;LINE 1583, 1, 1
00001753                      3872  	.DWLopt833
00001753  FCAC00000000      @ 3873  		movhu	(_flg_fault),D0
00001759  F8E408              3874  		or	8,D0
0000175c  FC8300000000      @ 3875  		movhu	D0,(_flg_fault)
                              3876  	;;LINE 1582, 1, 1
00001762                      3877  	.DWLopt834
00001762  00                  3878  		clr	D0
00001763  FC8300000000      @ 3879  		movhu	D0,(_gss_trip_clear_cnt)
                              3880  	;;LINE 0, 0, 1
00001769                      3881  	.DWLopt835
00001769  DC00000000        @ 3882  		bra	L00363
0000176e                      3883  	L00353
                              3884  	;;LINE 1594, 1, 1
0000176e                      3885  	.DWLopt836
0000176e  FCAD00000000      @ 3886  		movhu	(_ram_para+196),D1
                              3887  	;;LINE 1595, 1, 1
00001774                      3888  	.DWLopt837
00001774  FCAC00000000      @ 3889  		movhu	(_gus_host_speed_set),D0
                              3890  	;;LINE 1594, 0, 1
0000177a                      3891  	.DWLopt838
0000177a  19                  3892  		exth	D1
                              3893  	;;LINE 1595, 0, 1
0000177b                      3894  	.DWLopt839
0000177b  F601                3895  		udf00	D0,D1
                              3896  	;;LINE 1597, 1, 1
0000177d                      3897  	.DWLopt840
0000177d  84                  3898  		mov	D1,D0
0000177e  54                  3899  		asl2	D0
0000177f  E4                  3900  		add	D1,D0
00001780  1C                  3901  		exthu	D0
00001781  F92003              3902  		udf02	3,D0
00001784  FC8300000000      @ 3903  		movhu	D0,(_gus_host_setfreq)
                              3904  	;;LINE 1591, 1, 1
0000178a                      3905  	.DWLopt841
0000178a  FCAC00000000      @ 3906  		movhu	(_flg_ctrl),D0
                              3907  	;;LINE 1599, 1, 1
00001790                      3908  	.DWLopt842
00001790  FCAD00000000      @ 3909  		movhu	(_gus_host_setfreq),D1
                              3910  	;;LINE 1591, 0, 1
00001796                      3911  	.DWLopt843
00001796  F8E408              3912  		or	8,D0
00001799  FC8300000000      @ 3913  		movhu	D0,(_flg_ctrl)
                              3914  	;;LINE 1599, 0, 1
0000179f                      3915  	.DWLopt844
0000179f  FCAC00000000      @ 3916  		movhu	(_gus_MAX_setfreq),D0
000017a5  A1                  3917  		cmp	D0,D1
000017a6  C107DC00000000    @ 3918  		ble	L00363
                              3919  	;;LINE 1601, 1, 1
000017ad                      3920  	.DWLopt845
000017ad  FC8300000000      @ 3921  		movhu	D0,(_gus_host_setfreq)
000017b3                      3922  	L00363
                              3923  	;;LINE 1604, 0, 1
000017b3                      3924  	.DWLopt846
000017b3  DFE010              3925  		ret
000017b6                      3926  	.LDW33
                              3927  		FUNCTION	_0Renesas_rx_data_deal,.LDW33-_0Renesas_rx_data_deal
                              3928  		FUNCTION	_Renesas_rx_data_deal,.LDW33-_Renesas_rx_data_deal
                              3929  	.debug_MN_rsc		SECTION
                              3930  	;; Resource Information
                              3931  	;; resource_list  1
000001ab                      3932  	.LDW756
                              3933  		;; loc_data  1
000001ab  00000000          + 3934  		DD	.DWLopt801	;; address
000001af  01                  3935  		DC	0x1	;;   size of loc_exp
000001b0  56                  3936  		DC	0x56	;;   DW_OP_reg6
                              3937  		;; end
000001b1  00000000            3938  		DD	0x0
000001b5  00                  3939  		DC	0x0
                              3940  	;; resource_list  2
000001b6                      3941  	.LDW759
                              3942  		;; loc_data  1
000001b6  00000000          + 3943  		DD	.DWLopt794	;; address
000001ba  01                  3944  		DC	0x1	;;   size of loc_exp
000001bb  52                  3945  		DC	0x52	;;   DW_OP_reg2
                              3946  		;; loc_data  2
000001bc  00000000          + 3947  		DD	.DWLopt795	;; address
000001c0  01                  3948  		DC	0x1	;;   size of loc_exp
000001c1  52                  3949  		DC	0x52	;;   DW_OP_reg2
                              3950  		;; loc_data  3
000001c2  00000000          + 3951  		DD	.DWLopt796	;; address
000001c6  01                  3952  		DC	0x1	;;   size of loc_exp
000001c7  E1                  3953  		DC	0xe1	;;   DW_OP_MN_void
                              3954  		;; end
000001c8  00000000            3955  		DD	0x0
000001cc  00                  3956  		DC	0x0
                              3957  	;; resource_list  3
000001cd                      3958  	.LDW764
                              3959  		;; loc_data  1
000001cd  00000000          + 3960  		DD	.DWLopt797	;; address
000001d1  01                  3961  		DC	0x1	;;   size of loc_exp
000001d2  53                  3962  		DC	0x53	;;   DW_OP_reg3
                              3963  		;; loc_data  2
000001d3  00000000          + 3964  		DD	.DWLopt798	;; address
000001d7  01                  3965  		DC	0x1	;;   size of loc_exp
000001d8  E1                  3966  		DC	0xe1	;;   DW_OP_MN_void
                              3967  		;; end
000001d9  00000000            3968  		DD	0x0
000001dd  00                  3969  		DC	0x0
                              3970  	;; resource_list  4
000001de                      3971  	.LDW767
                              3972  		;; loc_data  1
000001de  00000000          + 3973  		DD	.DWLopt799	;; address
000001e2  01                  3974  		DC	0x1	;;   size of loc_exp
000001e3  52                  3975  		DC	0x52	;;   DW_OP_reg2
                              3976  		;; loc_data  2
000001e4  00000000          + 3977  		DD	.DWLopt800	;; address
000001e8  01                  3978  		DC	0x1	;;   size of loc_exp
000001e9  E1                  3979  		DC	0xe1	;;   DW_OP_MN_void
                              3980  		;; end
000001ea  00000000            3981  		DD	0x0
000001ee  00                  3982  		DC	0x0
                              3983  	;; End of Resource Information
                              3984  	.debug_frame		SECTION
                              3985  	;; Frame Description Entry(FDE)
000000c8  00000000          + 3986  		DD	.LDW805-.LDW804	;; length
000000cc                      3987  	.LDW804
000000cc  00000000          + 3988  		DD	.LFR_TOP	;; CIE_pointer
000000d0  00000000          + 3989  		DD	_Renesas_rx_data_deal	;; initial location
000000d4  00000000          + 3990  		DD	.LDW33-_Renesas_rx_data_deal	;; address_range
                              3991  		;; Prologue
000000d8  02                  3992  		DC	0x2	;; DW_CFA_advance_loc1(_0Renesas_rx_data_deal-_Renesas_rx_data_deal)
000000d9  00                + 3993  		DC	_0Renesas_rx_data_deal-_Renesas_rx_data_deal
000000da  0E10                3994  		DC	0xe,0x10	;; DW_CFA_def_cfa_offset(16)
000000dc  8201                3995  		DC	0x82,0x1	;; DW_CFA_offset(D2,1)
000000de  8302                3996  		DC	0x83,0x2	;; DW_CFA_offset(D3,2)
000000e0  8603                3997  		DC	0x86,0x3	;; DW_CFA_offset(A2,3)
                              3998  		;; Epilogue
000000e2                      3999  	.LDW805
                              4000  	;; End of Frame Description Entry
                              4001  	;;FUNC E _Renesas_rx_data_deal
                              4002  	;;FUNC S _SCI0_tx_delaytime
                              4003  	.text		SECTION
                              4004  		GLOBAL	_SCI0_tx_delaytime
                              4005  		GLOBAL	_0SCI0_tx_delaytime
000017b6                      4006  	_SCI0_tx_delaytime
                              4007  	;;PROLOG 0x0
                              4008  	_0SCI0_tx_delaytime		FUNCINFO _SCI0_tx_delaytime,0,[]
                              4009  	;;LINE 1608, 1, 1
000017b6                      4010  	.DWLopt847
000017b6  FCAC00000000      @ 4011  		movhu	(_flg_SCI0),D0
000017bc  F8EC01              4012  		btst	1,D0
000017bf  C907DC00000000    @ 4013  		beq	L00367
                              4014  	;;LINE 1610, 1, 1
000017c6                      4015  	.DWLopt848
000017c6  FCAC00000000      @ 4016  		movhu	(_gss_SCI0_tx_delaytimer),D0
000017cc  28FF                4017  		add	-1,D0
000017ce  FC8300000000      @ 4018  		movhu	D0,(_gss_SCI0_tx_delaytimer)
                              4019  	;;LINE 1611, 1, 1
000017d4                      4020  	.DWLopt849
000017d4  18                  4021  		exth	D0
000017d5  A000                4022  		cmp	0,D0
000017d7  C307DC00000000    @ 4023  		bgt	L00367
                              4024  	;;LINE 1614, 1, 1
000017de                      4025  	.DWLopt850
000017de  FCAC00000000      @ 4026  		movhu	(_flg_SCI0),D0
                              4027  	;;LINE 1616, 1, 1
000017e4                      4028  	.DWLopt851
000017e4  FAE0FEFF            4029  		and	65534,D0
000017e8  F8E404              4030  		or	4,D0
000017eb  FC8300000000      @ 4031  		movhu	D0,(_flg_SCI0)
                              4032  	;;LINE 1613, 1, 1
000017f1                      4033  	.DWLopt852
000017f1  00                  4034  		clr	D0
000017f2  FC8300000000      @ 4035  		movhu	D0,(_gss_SCI0_tx_delaytimer)
000017f8                      4036  	L00367
                              4037  	;;LINE 1619, 1, 1
000017f8                      4038  	.DWLopt853
000017f8  DE0000              4039  		retf
000017fb                      4040  	.LDW34
                              4041  		FUNCTION	_0SCI0_tx_delaytime,.LDW34-_0SCI0_tx_delaytime
                              4042  		FUNCTION	_SCI0_tx_delaytime,.LDW34-_SCI0_tx_delaytime
                              4043  	;; Resource Information
                              4044  		;; No Information
                              4045  	.debug_frame		SECTION
                              4046  	;; Frame Description Entry(FDE)
000000e2  00000000          + 4047  		DD	.LDW814-.LDW813	;; length
000000e6                      4048  	.LDW813
000000e6  00000000          + 4049  		DD	.LFR_TOP	;; CIE_pointer
000000ea  00000000          + 4050  		DD	_SCI0_tx_delaytime	;; initial location
000000ee  00000000          + 4051  		DD	.LDW34-_SCI0_tx_delaytime	;; address_range
                              4052  		;; Prologue
000000f2  02                  4053  		DC	0x2	;; DW_CFA_advance_loc1(_0SCI0_tx_delaytime-_SCI0_tx_delaytime)
000000f3  00                + 4054  		DC	_0SCI0_tx_delaytime-_SCI0_tx_delaytime
000000f4  0E00                4055  		DC	0xe,0x0	;; DW_CFA_def_cfa_offset(0)
                              4056  		;; Epilogue
000000f6                      4057  	.LDW814
                              4058  	;; End of Frame Description Entry
                              4059  	;;FUNC E _SCI0_tx_delaytime
                              4060  	;;FUNC S _SCI0_rx_delaytime
                              4061  	.text		SECTION
                              4062  		GLOBAL	_SCI0_rx_delaytime
                              4063  		GLOBAL	_0SCI0_rx_delaytime
000017fb                      4064  	_SCI0_rx_delaytime
                              4065  	;;PROLOG 0x0
                              4066  	_0SCI0_rx_delaytime		FUNCINFO _SCI0_rx_delaytime,0,[]
                              4067  	;;LINE 1623, 1, 1
000017fb                      4068  	.DWLopt854
000017fb  FCAC00000000      @ 4069  		movhu	(_flg_SCI0),D0
00001801  F8EC02              4070  		btst	2,D0
00001804  C907DC00000000    @ 4071  		beq	L00372
                              4072  	;;LINE 1625, 1, 1
0000180b                      4073  	.DWLopt855
0000180b  FCAC00000000      @ 4074  		movhu	(_gss_SCI0_rx_delaytimer),D0
00001811  28FF                4075  		add	-1,D0
00001813  FC8300000000      @ 4076  		movhu	D0,(_gss_SCI0_rx_delaytimer)
                              4077  	;;LINE 1626, 1, 1
00001819                      4078  	.DWLopt856
00001819  18                  4079  		exth	D0
0000181a  A000                4080  		cmp	0,D0
0000181c  C307DC00000000    @ 4081  		bgt	L00372
                              4082  	;;LINE 1629, 1, 1
00001823                      4083  	.DWLopt857
00001823  FCAC00000000      @ 4084  		movhu	(_flg_SCI0),D0
                              4085  	;;LINE 1631, 1, 1
00001829                      4086  	.DWLopt858
00001829  FAE0FDFF            4087  		and	65533,D0
0000182d  F8E408              4088  		or	8,D0
00001830  FC8300000000      @ 4089  		movhu	D0,(_flg_SCI0)
                              4090  	;;LINE 1628, 1, 1
00001836                      4091  	.DWLopt859
00001836  00                  4092  		clr	D0
00001837  FC8300000000      @ 4093  		movhu	D0,(_gss_SCI0_rx_delaytimer)
0000183d                      4094  	L00372
                              4095  	;;LINE 1634, 1, 1
0000183d                      4096  	.DWLopt860
0000183d  DE0000              4097  		retf
00001840                      4098  	.LDW35
                              4099  		FUNCTION	_0SCI0_rx_delaytime,.LDW35-_0SCI0_rx_delaytime
                              4100  		FUNCTION	_SCI0_rx_delaytime,.LDW35-_SCI0_rx_delaytime
                              4101  	;; Resource Information
                              4102  		;; No Information
                              4103  	.debug_frame		SECTION
                              4104  	;; Frame Description Entry(FDE)
000000f6  00000000          + 4105  		DD	.LDW823-.LDW822	;; length
000000fa                      4106  	.LDW822
000000fa  00000000          + 4107  		DD	.LFR_TOP	;; CIE_pointer
000000fe  00000000          + 4108  		DD	_SCI0_rx_delaytime	;; initial location
00000102  00000000          + 4109  		DD	.LDW35-_SCI0_rx_delaytime	;; address_range
                              4110  		;; Prologue
00000106  02                  4111  		DC	0x2	;; DW_CFA_advance_loc1(_0SCI0_rx_delaytime-_SCI0_rx_delaytime)
00000107  00                + 4112  		DC	_0SCI0_rx_delaytime-_SCI0_rx_delaytime
00000108  0E00                4113  		DC	0xe,0x0	;; DW_CFA_def_cfa_offset(0)
                              4114  		;; Epilogue
0000010a                      4115  	.LDW823
                              4116  	;; End of Frame Description Entry
                              4117  	;;FUNC E _SCI0_rx_delaytime
                              4118  	;;FUNC S _SCI0_rx_end_delaytime
                              4119  	.text		SECTION
                              4120  		GLOBAL	_SCI0_rx_end_delaytime
                              4121  		GLOBAL	_0SCI0_rx_end_delaytime
00001840                      4122  	_SCI0_rx_end_delaytime
                              4123  	;;PROLOG 0x0
                              4124  	_0SCI0_rx_end_delaytime		FUNCINFO _SCI0_rx_end_delaytime,0,[]
                              4125  	;;LINE 1638, 1, 1
00001840                      4126  	.DWLopt861
00001840  FCAC00000000      @ 4127  		movhu	(_flg_SCI0),D0
00001846  F8EC20              4128  		btst	32,D0
00001849  C807DC00000000    @ 4129  		bne	Lcb008c
                              4130  	;;LINE 1664, 1, 1
00001850                      4131  	.DWLopt862
00001850  DE0000              4132  		retf
00001853                      4133  	Lcb008c
                              4134  	;;LINE 1640, 1, 1
00001853                      4135  	.DWLopt863
00001853  FCAC00000000      @ 4136  		movhu	(_gss_SCI0_rx_end_delaytimer),D0
00001859  40                  4137  		inc	D0
0000185a  FC8300000000      @ 4138  		movhu	D0,(_gss_SCI0_rx_end_delaytimer)
                              4139  	;;LINE 1641, 1, 1
00001860                      4140  	.DWLopt864
00001860  18                  4141  		exth	D0
00001861  A00F                4142  		cmp	15,D0
00001863  C007DC00000000    @ 4143  		bge	Lcb008d
                              4144  	;;LINE 1664, 0, 1
0000186a                      4145  	.DWLopt865
0000186a  DE0000              4146  		retf
0000186d                      4147  	Lcb008d
                              4148  	;;LINE 1643, 1, 1
0000186d                      4149  	.DWLopt866
0000186d  00                  4150  		clr	D0
0000186e  FC8300000000      @ 4151  		movhu	D0,(_gss_SCI0_rx_end_delaytimer)
                              4152  	;;LINE 1644, 1, 1
00001874                      4153  	.DWLopt867
00001874  FCAC00000000      @ 4154  		movhu	(_flg_SCI0),D0
0000187a  FAE0DFFF            4155  		and	65503,D0
0000187e  FC8300000000      @ 4156  		movhu	D0,(_flg_SCI0)
                              4157  	;;LINE 1646, 1, 1
00001884                      4158  	.DWLopt868
00001884  386489              4159  		movhu	(35172),D0
00001887  FAE0FFFE            4160  		and	65279,D0
0000188b  036489              4161  		movhu	D0,(35172)
                              4162  	;;LINE 1648, 1, 1
0000188e                      4163  	.DWLopt869
0000188e  FCAC00000000      @ 4164  		movhu	(_flg_SCI0),D0
00001894  F8E402              4165  		or	2,D0
00001897  FC8300000000      @ 4166  		movhu	D0,(_flg_SCI0)
                              4167  	;;LINE 1649, 1, 1
0000189d                      4168  	.DWLopt870
0000189d  8005                4169  		mov	5,D0
0000189f  FC8300000000      @ 4170  		movhu	D0,(_gss_SCI0_rx_delaytimer)
                              4171  	;;LINE 1651, 1, 1
000018a5                      4172  	.DWLopt871
000018a5  FCAC00000000      @ 4173  		movhu	(_flg_SCI0),D0
000018ab  2D0001              4174  		mov	256,D1
000018ae  F204                4175  		and	D1,D0
000018b0  C807DC00000000    @ 4176  		bne	L00377
                              4177  	;;LINE 1653, 1, 1
000018b7                      4178  	.DWLopt872
000018b7  FCA800000000      @ 4179  		movbu	(_guc_SCI0_type_cnt),D0
000018bd  40                  4180  		inc	D0
000018be  FC8200000000      @ 4181  		movbu	D0,(_guc_SCI0_type_cnt)
                              4182  	;;LINE 1654, 1, 1
000018c4                      4183  	.DWLopt873
000018c4  14                  4184  		extbu	D0
000018c5  A005                4185  		cmp	5,D0
000018c7  C207DC00000000    @ 4186  		blt	L00377
                              4187  	;;LINE 1657, 1, 1
000018ce                      4188  	.DWLopt874
000018ce  FCAC00000000      @ 4189  		movhu	(_flg_SCI0),D0
000018d4  F214                4190  		or	D1,D0
000018d6  FC8300000000      @ 4191  		movhu	D0,(_flg_SCI0)
                              4192  	;;LINE 1656, 1, 1
000018dc                      4193  	.DWLopt875
000018dc  00                  4194  		clr	D0
000018dd  FC8200000000      @ 4195  		movbu	D0,(_guc_SCI0_type_cnt)
                              4196  	;;LINE 1659, 1, 1
000018e3                      4197  	.DWLopt876
000018e3  8004                4198  		mov	4,D0
000018e5  FC8200000000      @ 4199  		movbu	D0,(_guc_SCI0_rx_len)
000018eb                      4200  	L00377
                              4201  	;;LINE 1664, 0, 1
000018eb                      4202  	.DWLopt877
000018eb  DE0000              4203  		retf
000018ee                      4204  	.LDW36
                              4205  		FUNCTION	_0SCI0_rx_end_delaytime,.LDW36-_0SCI0_rx_end_delaytime
                              4206  		FUNCTION	_SCI0_rx_end_delaytime,.LDW36-_SCI0_rx_end_delaytime
                              4207  	;; Resource Information
                              4208  		;; No Information
                              4209  	.debug_frame		SECTION
                              4210  	;; Frame Description Entry(FDE)
0000010a  00000000          + 4211  		DD	.LDW840-.LDW839	;; length
0000010e                      4212  	.LDW839
0000010e  00000000          + 4213  		DD	.LFR_TOP	;; CIE_pointer
00000112  00000000          + 4214  		DD	_SCI0_rx_end_delaytime	;; initial location
00000116  00000000          + 4215  		DD	.LDW36-_SCI0_rx_end_delaytime	;; address_range
                              4216  		;; Prologue
0000011a  02                  4217  		DC	0x2	;; DW_CFA_advance_loc1(_0SCI0_rx_end_delaytime-_SCI0_rx_end_delaytime)
0000011b  00                + 4218  		DC	_0SCI0_rx_end_delaytime-_SCI0_rx_end_delaytime
0000011c  0E00                4219  		DC	0xe,0x0	;; DW_CFA_def_cfa_offset(0)
                              4220  		;; Epilogue
0000011e                      4221  	.LDW840
                              4222  	;; End of Frame Description Entry
                              4223  	;;FUNC E _SCI0_rx_end_delaytime
                              4224  	;;FUNC S _SCI0_fault_delaytime
                              4225  	.text		SECTION
                              4226  		GLOBAL	_SCI0_fault_delaytime
                              4227  		GLOBAL	_0SCI0_fault_delaytime
000018ee                      4228  	_SCI0_fault_delaytime
                              4229  	;;PROLOG 0x4
000018ee  F8FEFC              4230  		add	-4,SP
                              4231  	_0SCI0_fault_delaytime		FUNCINFO _SCI0_fault_delaytime,4,[]
                              4232  	;;LINE 1668, 1, 1
000018f1                      4233  	.DWLopt878
000018f1  FCAC00000000      @ 4234  		movhu	(_flg_ctrl),D0
000018f7  F8EC20              4235  		btst	32,D0
000018fa  C907DC00000000    @ 4236  		beq	L00387
00001901  FCAC00000000      @ 4237  		movhu	(_flg_SCI0),D0
00001907  F8E080              4238  		and	128,D0
0000190a  C807DC00000000    @ 4239  		bne	L00387
                              4240  	;;LINE 1670, 1, 1
00001911                      4241  	.DWLopt879
00001911  FCAC00000000      @ 4242  		movhu	(_gss_SCI0_fault_delaytimer),D0
00001917  40                  4243  		inc	D0
00001918  FC8300000000      @ 4244  		movhu	D0,(_gss_SCI0_fault_delaytimer)
                              4245  	;;LINE 1671, 1, 1
0000191e                      4246  	.DWLopt880
0000191e  18                  4247  		exth	D0
0000191f  A01E                4248  		cmp	30,D0
00001921  C207DC00000000    @ 4249  		blt	L00387
                              4250  	;;LINE 1673, 1, 1
00001928                      4251  	.DWLopt881
00001928  00                  4252  		clr	D0
00001929  FC8300000000      @ 4253  		movhu	D0,(_gss_SCI0_fault_delaytimer)
                              4254  	;;LINE 1675, 1, 1
0000192f                      4255  	.DWLopt882
0000192f  FCAC00000000      @ 4256  		movhu	(_flg_SCI0),D0
00001935  F8E480              4257  		or	128,D0
00001938  FC8300000000      @ 4258  		movhu	D0,(_flg_SCI0)
                              4259  	;;LINE 1676, 1, 1
0000193e                      4260  	.DWLopt883
0000193e  8028                4261  		mov	40,D0
00001940  DD000000000000    @ 4262  		call	_0trip_stop_deal
00001947                      4263  	L00387
                              4264  	;;LINE 1679, 1, 1
00001947                      4265  	.DWLopt884
00001947  DF0004              4266  		ret
0000194a                      4267  	.LDW37
                              4268  		FUNCTION	_0SCI0_fault_delaytime,.LDW37-_0SCI0_fault_delaytime
                              4269  		FUNCTION	_SCI0_fault_delaytime,.LDW37-_SCI0_fault_delaytime
                              4270  	;; Resource Information
                              4271  		;; No Information
                              4272  	.debug_frame		SECTION
                              4273  	;; Frame Description Entry(FDE)
0000011e  00000000          + 4274  		DD	.LDW849-.LDW848	;; length
00000122                      4275  	.LDW848
00000122  00000000          + 4276  		DD	.LFR_TOP	;; CIE_pointer
00000126  00000000          + 4277  		DD	_SCI0_fault_delaytime	;; initial location
0000012a  00000000          + 4278  		DD	.LDW37-_SCI0_fault_delaytime	;; address_range
                              4279  		;; Prologue
0000012e  02                  4280  		DC	0x2	;; DW_CFA_advance_loc1(_0SCI0_fault_delaytime-_SCI0_fault_delaytime)
0000012f  00                + 4281  		DC	_0SCI0_fault_delaytime-_SCI0_fault_delaytime
00000130  0E04                4282  		DC	0xe,0x4	;; DW_CFA_def_cfa_offset(4)
                              4283  		;; Epilogue
00000132                      4284  	.LDW849
                              4285  	;; End of Frame Description Entry
                              4286  	;;FUNC E _SCI0_fault_delaytime
                              4287  	;;FUNC S _SCI0_tx_int
                              4288  	.text		SECTION
                              4289  		GLOBAL	_SCI0_tx_int
                              4290  		GLOBAL	_0SCI0_tx_int
0000194a                      4291  	_SCI0_tx_int
                              4292  	;;PROLOG 0x0
                              4293  	_0SCI0_tx_int		FUNCINFO _SCI0_tx_int,0,[]
                              4294  	;;LINE 1683, 1, 1
0000194a                      4295  	.DWLopt885
0000194a  FCAC00000000      @ 4296  		movhu	(_flg_SCI0),D0
00001950  F8EC10              4297  		btst	16,D0
00001953  C907DC00000000    @ 4298  		beq	L00395
                              4299  	;;LINE 1685, 1, 1
0000195a                      4300  	.DWLopt886
0000195a  FCA900000000      @ 4301  		movbu	(_guc_SCI0_tx_point),D1
00001960  FCA800000000      @ 4302  		movbu	(_guc_SCI0_tx_len),D0
00001966  A1                  4303  		cmp	D0,D1
00001967  C007DC00000000    @ 4304  		bge	L00397
                              4305  	;;LINE 1687, 1, 1
0000196e                      4306  	.DWLopt887
0000196e  FCA800000000      @ 4307  		movbu	(_guc_SCI0_tx_point),D0
00001974  FCDC00000000      @ 4308  		mov	_guc_SCI0_tx_buffer,A0
0000197a  F400                4309  		movbu	(D0,A0),D0
0000197c  0210A1              4310  		movbu	D0,(41232)
0000197f  FCA800000000      @ 4311  		movbu	(_guc_SCI0_tx_point),D0
00001985  40                  4312  		inc	D0
00001986  FC8200000000      @ 4313  		movbu	D0,(_guc_SCI0_tx_point)
0000198c  DC00000000        @ 4314  		bra	L00395
00001991                      4315  	L00397
                              4316  	;;LINE 1691, 1, 1
00001991                      4317  	.DWLopt888
00001991  00                  4318  		clr	D0
00001992  FC8200000000      @ 4319  		movbu	D0,(_guc_SCI0_tx_point)
                              4320  	;;LINE 1692, 1, 1
00001998                      4321  	.DWLopt889
00001998  FCAC00000000      @ 4322  		movhu	(_flg_SCI0),D0
0000199e  FAE0EFFF            4323  		and	65519,D0
000019a2  FC8300000000      @ 4324  		movhu	D0,(_flg_SCI0)
                              4325  	;;LINE 1694, 1, 1
000019a8                      4326  	.DWLopt890
000019a8  386489              4327  		movhu	(35172),D0
000019ab  FAE0FFFD            4328  		and	65023,D0
000019af  036489              4329  		movhu	D0,(35172)
                              4330  	;;LINE 1696, 1, 1
000019b2                      4331  	.DWLopt891
000019b2  FCAC00000000      @ 4332  		movhu	(_flg_SCI0),D0
000019b8  F8E402              4333  		or	2,D0
000019bb  FC8300000000      @ 4334  		movhu	D0,(_flg_SCI0)
                              4335  	;;LINE 1697, 1, 1
000019c1                      4336  	.DWLopt892
000019c1  8005                4337  		mov	5,D0
000019c3  FC8300000000      @ 4338  		movhu	D0,(_gss_SCI0_rx_delaytimer)
000019c9                      4339  	L00395
                              4340  	;;LINE 1700, 1, 1
000019c9                      4341  	.DWLopt893
000019c9  DE0000              4342  		retf
000019cc                      4343  	.LDW38
                              4344  		FUNCTION	_0SCI0_tx_int,.LDW38-_0SCI0_tx_int
                              4345  		FUNCTION	_SCI0_tx_int,.LDW38-_SCI0_tx_int
                              4346  	;; Resource Information
                              4347  		;; No Information
                              4348  	.debug_frame		SECTION
                              4349  	;; Frame Description Entry(FDE)
00000132  00000000          + 4350  		DD	.LDW860-.LDW859	;; length
00000136                      4351  	.LDW859
00000136  00000000          + 4352  		DD	.LFR_TOP	;; CIE_pointer
0000013a  00000000          + 4353  		DD	_SCI0_tx_int	;; initial location
0000013e  00000000          + 4354  		DD	.LDW38-_SCI0_tx_int	;; address_range
                              4355  		;; Prologue
00000142  02                  4356  		DC	0x2	;; DW_CFA_advance_loc1(_0SCI0_tx_int-_SCI0_tx_int)
00000143  00                + 4357  		DC	_0SCI0_tx_int-_SCI0_tx_int
00000144  0E00                4358  		DC	0xe,0x0	;; DW_CFA_def_cfa_offset(0)
                              4359  		;; Epilogue
00000146                      4360  	.LDW860
                              4361  	;; End of Frame Description Entry
                              4362  	;;FUNC E _SCI0_tx_int
                              4363  	;;FUNC S _SCI0_rx_int
                              4364  	.text		SECTION
                              4365  		GLOBAL	_SCI0_rx_int
                              4366  		GLOBAL	_0SCI0_rx_int
000019cc                      4367  	_SCI0_rx_int
                              4368  	;;PROLOG 0x0
                              4369  	_0SCI0_rx_int		FUNCINFO _SCI0_rx_int,0,[]
                              4370  	;;LINE 1706, 1, 1
000019cc                      4371  	.DWLopt897
000019cc  00                  4372  		clr	D0
000019cd  FC8300000000      @ 4373  		movhu	D0,(_gss_SCI0_rx_end_delaytimer)
                              4374  	;;LINE 1708, 1, 1
000019d3                      4375  	.DWLopt898
000019d3  350CA1              4376  		movbu	(41228),D1
000019d6                      4377  	.DWLopt894
                              4378  	;;LINE 1710, 1, 1
000019d6                      4379  	.DWLopt899
000019d6  FCAC00000000      @ 4380  		movhu	(_flg_SCI0),D0
000019dc  F8EC20              4381  		btst	32,D0
000019df  C807DC00000000    @ 4382  		bne	L00549
000019e6  84                  4383  		mov	D1,D0
000019e7  14                  4384  		extbu	D0
000019e8  A055                4385  		cmp	85,D0
000019ea  C207DC00000000    @ 4386  		blt	L00551
000019f1  A059                4387  		cmp	89,D0
000019f3  C107DC00000000    @ 4388  		ble	L00548
000019fa                      4389  	L00551
000019fa  A030                4390  		cmp	48,D0
000019fc  C207DC00000000    @ 4391  		blt	L00549
00001a03  A033                4392  		cmp	51,D0
00001a05  C107DC00000000    @ 4393  		ble	L00548
00001a0c                      4394  	L00549
00001a0c  84                  4395  		mov	D1,D0
00001a0d  14                  4396  		extbu	D0
00001a0e  A03E                4397  		cmp	62,D0
00001a10  C807DC00000000    @ 4398  		bne	L00406
00001a17                      4399  	L00548
                              4400  	;;LINE 1715, 1, 1
00001a17                      4401  	.DWLopt900
00001a17  FCAC00000000      @ 4402  		movhu	(_flg_SCI0),D0
                              4403  	;;LINE 1716, 1, 1
00001a1d                      4404  	.DWLopt901
00001a1d  FC8600000000      @ 4405  		movbu	D1,(_guc_SCI0_rx_buffer)
00001a23                      4406  	.DWLopt895
                              4407  	;;LINE 1715, 0, 1
00001a23                      4408  	.DWLopt902
00001a23  F8E420              4409  		or	32,D0
00001a26  FC8300000000      @ 4410  		movhu	D0,(_flg_SCI0)
                              4411  	;;LINE 1717, 1, 1
00001a2c                      4412  	.DWLopt903
00001a2c  8001                4413  		mov	1,D0
00001a2e  FC8200000000      @ 4414  		movbu	D0,(_guc_SCI0_rx_point)
00001a34  DC00000000        @ 4415  		bra	L00410
00001a39                      4416  	L00406
                              4417  	;;LINE 1719, 1, 1
00001a39                      4418  	.DWLopt904
00001a39  FCAC00000000      @ 4419  		movhu	(_flg_SCI0),D0
00001a3f  F8EC20              4420  		btst	32,D0
00001a42  C907DC00000000    @ 4421  		beq	L00410
                              4422  	;;LINE 1721, 1, 1
00001a49                      4423  	.DWLopt905
00001a49  FCA800000000      @ 4424  		movbu	(_guc_SCI0_rx_point),D0
00001a4f  FCDC00000000      @ 4425  		mov	_guc_SCI0_rx_buffer,A0
00001a55  F450                4426  		movbu	D1,(D0,A0)
00001a57                      4427  	.DWLopt896
00001a57  FCA800000000      @ 4428  		movbu	(_guc_SCI0_rx_point),D0
00001a5d  40                  4429  		inc	D0
00001a5e  FC8200000000      @ 4430  		movbu	D0,(_guc_SCI0_rx_point)
                              4431  	;;LINE 1723, 1, 1
00001a64                      4432  	.DWLopt906
00001a64  FCA900000000      @ 4433  		movbu	(_guc_SCI0_rx_point),D1
00001a6a  FCA800000000      @ 4434  		movbu	(_guc_SCI0_rx_len),D0
00001a70  A1                  4435  		cmp	D0,D1
00001a71  C207DC00000000    @ 4436  		blt	L00410
                              4437  	;;LINE 1725, 1, 1
00001a78                      4438  	.DWLopt907
00001a78  386489              4439  		movhu	(35172),D0
00001a7b  FAE0FFFE            4440  		and	65279,D0
00001a7f  036489              4441  		movhu	D0,(35172)
                              4442  	;;LINE 1727, 1, 1
00001a82                      4443  	.DWLopt908
00001a82  00                  4444  		clr	D0
00001a83  FC8200000000      @ 4445  		movbu	D0,(_guc_SCI0_rx_point)
                              4446  	;;LINE 1728, 1, 1
00001a89                      4447  	.DWLopt909
00001a89  FCAC00000000      @ 4448  		movhu	(_flg_SCI0),D0
                              4449  	;;LINE 1731, 1, 1
00001a8f                      4450  	.DWLopt910
00001a8f  FAE0DFFF            4451  		and	65503,D0
00001a93  F8E442              4452  		or	66,D0
00001a96  FC8300000000      @ 4453  		movhu	D0,(_flg_SCI0)
                              4454  	;;LINE 1732, 1, 1
00001a9c                      4455  	.DWLopt911
00001a9c  8032                4456  		mov	50,D0
00001a9e  FC8300000000      @ 4457  		movhu	D0,(_gss_SCI0_rx_delaytimer)
00001aa4                      4458  	L00410
                              4459  	;;LINE 1735, 1, 1
00001aa4                      4460  	.DWLopt912
00001aa4  DE0000              4461  		retf
00001aa7                      4462  	.LDW39
                              4463  		FUNCTION	_0SCI0_rx_int,.LDW39-_0SCI0_rx_int
                              4464  		FUNCTION	_SCI0_rx_int,.LDW39-_SCI0_rx_int
                              4465  	.debug_MN_rsc		SECTION
                              4466  	;; Resource Information
                              4467  	;; resource_list  1
000001ef                      4468  	.LDW861
                              4469  		;; loc_data  1
000001ef  00000000          + 4470  		DD	.DWLopt894	;; address
000001f3  01                  4471  		DC	0x1	;;   size of loc_exp
000001f4  51                  4472  		DC	0x51	;;   DW_OP_reg1
                              4473  		;; loc_data  2
000001f5  00000000          + 4474  		DD	.DWLopt895	;; address
000001f9  01                  4475  		DC	0x1	;;   size of loc_exp
000001fa  E1                  4476  		DC	0xe1	;;   DW_OP_MN_void
                              4477  		;; loc_data  3
000001fb  00000000          + 4478  		DD	.DWLopt896	;; address
000001ff  01                  4479  		DC	0x1	;;   size of loc_exp
00000200  E1                  4480  		DC	0xe1	;;   DW_OP_MN_void
                              4481  		;; end
00000201  00000000            4482  		DD	0x0
00000205  00                  4483  		DC	0x0
                              4484  	;; End of Resource Information
                              4485  	.debug_frame		SECTION
                              4486  	;; Frame Description Entry(FDE)
00000146  00000000          + 4487  		DD	.LDW882-.LDW881	;; length
0000014a                      4488  	.LDW881
0000014a  00000000          + 4489  		DD	.LFR_TOP	;; CIE_pointer
0000014e  00000000          + 4490  		DD	_SCI0_rx_int	;; initial location
00000152  00000000          + 4491  		DD	.LDW39-_SCI0_rx_int	;; address_range
                              4492  		;; Prologue
00000156  02                  4493  		DC	0x2	;; DW_CFA_advance_loc1(_0SCI0_rx_int-_SCI0_rx_int)
00000157  00                + 4494  		DC	_0SCI0_rx_int-_SCI0_rx_int
00000158  0E00                4495  		DC	0xe,0x0	;; DW_CFA_def_cfa_offset(0)
                              4496  		;; Epilogue
0000015a                      4497  	.LDW882
                              4498  	;; End of Frame Description Entry
                              4499  	;;FUNC E _SCI0_rx_int
                              4500  	;;FUNC S _CRC16
                              4501  	.text		SECTION
                              4502  		GLOBAL	_CRC16
                              4503  		GLOBAL	_0CRC16
00001aa7                      4504  	_CRC16
                              4505  	;;PROLOG 0x8
00001aa7  CFC0                4506  		movm	[D2,D3],(SP)
                              4507  	_0CRC16		FUNCINFO _CRC16,8,[D2,D3]
00001aa9                      4508  	.DWLopt913
00001aa9                      4509  	.DWLopt916
                              4510  	;;LINE 0, 0, 1
00001aa9                      4511  	.DWLopt926
00001aa9  81                  4512  		mov	D0,D1
00001aaa                      4513  	.DWLopt924
00001aaa                      4514  	.DWLopt917
                              4515  	;;LINE 1742, 1, 1
00001aaa                      4516  	.DWLopt927
00001aaa  FCCCFFFF0000        4517  		mov	65535,D0
00001ab0                      4518  	.DWLopt919
                              4519  	;;LINE 1744, 1, 1
00001ab0                      4520  	.DWLopt928
00001ab0  1D                  4521  		exthu	D1
00001ab1                      4522  	.DWLopt925
00001ab1  A500                4523  		cmp	0,D1
00001ab3  C107DC00000000    @ 4524  		ble	L00419
                              4525  	;;LINE 1746, 1, 1
00001aba                      4526  	.DWLopt929
00001aba  08                  4527  		clr	D2
00001abb  FCDDFFFFFFFF        4528  		mov	-1,A1
00001ac1  F165                4529  		add	D1,A1
00001ac3  B500                4530  		cmp	0,A1
00001ac5  C207DC00000000    @ 4531  		blt	L00428
00001acc                      4532  	L00422
                              4533  	;;LINE 1748, 1, 1
00001acc                      4534  	.DWLopt930
00001acc  F044                4535  		movbu	(A0),D1
00001ace                      4536  	.DWLopt918
00001ace                      4537  	.DWLopt914
00001ace  1C                  4538  		exthu	D0
00001acf  F224                4539  		xor	D1,D0
                              4540  	;;LINE 1749, 1, 1
00001ad1                      4541  	.DWLopt931
00001ad1  41                  4542  		inc	A0
00001ad2                      4543  	.DWLopt915
                              4544  	;;LINE 1750, 1, 1
00001ad2                      4545  	.DWLopt932
00001ad2  04                  4546  		clr	D1
                              4547  	;;LINE 0, 0, 1
00001ad3                      4548  	.DWLopt933
00001ad3  DB                  4549  		setlb
                              4550  	;;LINE 1752, 1, 1
00001ad4                      4551  	.DWLopt934
00001ad4  83                  4552  		mov	D0,D3
00001ad5                      4553  	.DWLopt920
00001ad5  1F                  4554  		exthu	D3
                              4555  	;;LINE 1754, 1, 1
00001ad6                      4556  	.DWLopt935
00001ad6  8C                  4557  		mov	D3,D0
00001ad7  F8C801              4558  		asr	1,D0
00001ada  FAE801A0            4559  		xor	40961,D0
                              4560  	;;LINE 1752, 0, 1
00001ade                      4561  	.DWLopt936
00001ade  F8EF01              4562  		btst	1,D3
00001ae1  C807DC00000000    @ 4563  		bne	L00427
                              4564  	;;LINE 1758, 1, 1
00001ae8                      4565  	.DWLopt937
00001ae8  F8CB01              4566  		asr	1,D3
00001aeb  8C                  4567  		mov	D3,D0
00001aec                      4568  	.DWLopt921
00001aec                      4569  	L00427
                              4570  	;;LINE 1750, 1, 1
00001aec                      4571  	.DWLopt938
00001aec  44                  4572  		inc	D1
00001aed  1D                  4573  		exthu	D1
00001aee  A507                4574  		cmp	7,D1
00001af0  D3                  4575  		lle
                              4576  	;;LINE 1746, 1, 1
00001af1                      4577  	.DWLopt939
00001af1  48                  4578  		inc	D2
00001af2  1E                  4579  		exthu	D2
00001af3  F196                4580  		cmp	A1,D2
00001af5  C300              + 4581  		ble	L00422
                              4582  	;;LINE 0, 0, 1
00001af7                      4583  	.DWLopt940
00001af7  DC00000000        @ 4584  		bra	L00428
00001afc                      4585  	L00419
                              4586  	;;LINE 1765, 1, 1
00001afc                      4587  	.DWLopt941
00001afc  00                  4588  		clr	D0
00001afd                      4589  	.DWLopt922
00001afd                      4590  	L00428
                              4591  	;;LINE 1768, 1, 1
00001afd                      4592  	.DWLopt942
00001afd  1C                  4593  		exthu	D0
00001afe                      4594  	.DWLopt923
                              4595  	;;LINE 1769, 1, 1
00001afe                      4596  	.DWLopt943
00001afe  DEC008              4597  		retf
00001b01                      4598  	.LDW40
                              4599  		FUNCTION	_0CRC16,.LDW40-_0CRC16
                              4600  		FUNCTION	_CRC16,.LDW40-_CRC16
                              4601  	.debug_MN_rsc		SECTION
                              4602  	;; Resource Information
                              4603  	;; resource_list  1
00000206                      4604  	.LDW883
                              4605  		;; loc_data  1
00000206  00000000          + 4606  		DD	.DWLopt919	;; address
0000020a  01                  4607  		DC	0x1	;;   size of loc_exp
0000020b  50                  4608  		DC	0x50	;;   DW_OP_reg0
                              4609  		;; loc_data  2
0000020c  00000000          + 4610  		DD	.DWLopt920	;; address
00000210  01                  4611  		DC	0x1	;;   size of loc_exp
00000211  E1                  4612  		DC	0xe1	;;   DW_OP_MN_void
                              4613  		;; loc_data  3
00000212  00000000          + 4614  		DD	.DWLopt921	;; address
00000216  01                  4615  		DC	0x1	;;   size of loc_exp
00000217  50                  4616  		DC	0x50	;;   DW_OP_reg0
                              4617  		;; loc_data  4
00000218  00000000          + 4618  		DD	.DWLopt922	;; address
0000021c  01                  4619  		DC	0x1	;;   size of loc_exp
0000021d  50                  4620  		DC	0x50	;;   DW_OP_reg0
                              4621  		;; loc_data  5
0000021e  00000000          + 4622  		DD	.DWLopt923	;; address
00000222  01                  4623  		DC	0x1	;;   size of loc_exp
00000223  E1                  4624  		DC	0xe1	;;   DW_OP_MN_void
                              4625  		;; end
00000224  00000000            4626  		DD	0x0
00000228  00                  4627  		DC	0x0
                              4628  	;; resource_list  2
00000229                      4629  	.LDW890
                              4630  		;; loc_data  1
00000229  00000000          + 4631  		DD	.DWLopt913	;; address
0000022d  01                  4632  		DC	0x1	;;   size of loc_exp
0000022e  54                  4633  		DC	0x54	;;   DW_OP_reg4
                              4634  		;; loc_data  2
0000022f  00000000          + 4635  		DD	.DWLopt914	;; address
00000233  01                  4636  		DC	0x1	;;   size of loc_exp
00000234  E1                  4637  		DC	0xe1	;;   DW_OP_MN_void
                              4638  		;; loc_data  3
00000235  00000000          + 4639  		DD	.DWLopt915	;; address
00000239  01                  4640  		DC	0x1	;;   size of loc_exp
0000023a  E1                  4641  		DC	0xe1	;;   DW_OP_MN_void
                              4642  		;; loc_data  4
0000023b  00000000          + 4643  		DD	.DWLopt918	;; address
0000023f  01                  4644  		DC	0x1	;;   size of loc_exp
00000240  E1                  4645  		DC	0xe1	;;   DW_OP_MN_void
                              4646  		;; end
00000241  00000000            4647  		DD	0x0
00000245  00                  4648  		DC	0x0
                              4649  	;; resource_list  3
00000246                      4650  	.LDW893
                              4651  		;; loc_data  1
00000246  00000000          + 4652  		DD	.DWLopt916	;; address
0000024a  01                  4653  		DC	0x1	;;   size of loc_exp
0000024b  50                  4654  		DC	0x50	;;   DW_OP_reg0
                              4655  		;; loc_data  2
0000024c  00000000          + 4656  		DD	.DWLopt917	;; address
00000250  01                  4657  		DC	0x1	;;   size of loc_exp
00000251  E1                  4658  		DC	0xe1	;;   DW_OP_MN_void
                              4659  		;; loc_data  3
00000252  00000000          + 4660  		DD	.DWLopt924	;; address
00000256  01                  4661  		DC	0x1	;;   size of loc_exp
00000257  51                  4662  		DC	0x51	;;   DW_OP_reg1
                              4663  		;; loc_data  4
00000258  00000000          + 4664  		DD	.DWLopt925	;; address
0000025c  01                  4665  		DC	0x1	;;   size of loc_exp
0000025d  E1                  4666  		DC	0xe1	;;   DW_OP_MN_void
                              4667  		;; end
0000025e  00000000            4668  		DD	0x0
00000262  00                  4669  		DC	0x0
                              4670  	;; End of Resource Information
                              4671  	.debug_frame		SECTION
                              4672  	;; Frame Description Entry(FDE)
0000015a  00000000          + 4673  		DD	.LDW919-.LDW918	;; length
0000015e                      4674  	.LDW918
0000015e  00000000          + 4675  		DD	.LFR_TOP	;; CIE_pointer
00000162  00000000          + 4676  		DD	_CRC16	;; initial location
00000166  00000000          + 4677  		DD	.LDW40-_CRC16	;; address_range
                              4678  		;; Prologue
0000016a  02                  4679  		DC	0x2	;; DW_CFA_advance_loc1(_0CRC16-_CRC16)
0000016b  00                + 4680  		DC	_0CRC16-_CRC16
0000016c  0E08                4681  		DC	0xe,0x8	;; DW_CFA_def_cfa_offset(8)
0000016e  8201                4682  		DC	0x82,0x1	;; DW_CFA_offset(D2,1)
00000170  8302                4683  		DC	0x83,0x2	;; DW_CFA_offset(D3,2)
                              4684  		;; Epilogue
00000172                      4685  	.LDW919
                              4686  	;; End of Frame Description Entry
                              4687  	;;FUNC E _CRC16
                              4688  	;;FUNC S _Ascii_to_data
                              4689  	.text		SECTION
                              4690  		GLOBAL	_Ascii_to_data
                              4691  		GLOBAL	_0Ascii_to_data
00001b01                      4692  	_Ascii_to_data
                              4693  	;;PROLOG 0x0
                              4694  	_0Ascii_to_data		FUNCINFO _Ascii_to_data,0,[]
00001b01                      4695  	.DWLopt944
                              4696  	;;LINE 1775, 1, 1
00001b01                      4697  	.DWLopt949
00001b01  14                  4698  		extbu	D0
00001b02                      4699  	.DWLopt945
00001b02  A030                4700  		cmp	48,D0
00001b04  C207DC00000000    @ 4701  		blt	L00433
00001b0b  A039                4702  		cmp	57,D0
00001b0d  C307DC00000000    @ 4703  		bgt	L00433
                              4704  	;;LINE 1777, 1, 1
00001b14                      4705  	.DWLopt950
00001b14  28D0                4706  		add	-48,D0
00001b16                      4707  	.DWLopt946
00001b16  DC00000000        @ 4708  		bra	L00435
00001b1b                      4709  	L00433
                              4710  	;;LINE 1779, 1, 1
00001b1b                      4711  	.DWLopt951
00001b1b  A041                4712  		cmp	65,D0
00001b1d  C207DC00000000    @ 4713  		blt	L00435
00001b24  A046                4714  		cmp	70,D0
00001b26  C307DC00000000    @ 4715  		bgt	L00435
                              4716  	;;LINE 1781, 1, 1
00001b2d                      4717  	.DWLopt952
00001b2d  28C9                4718  		add	-55,D0
00001b2f                      4719  	.DWLopt947
00001b2f                      4720  	L00435
                              4721  	;;LINE 1784, 1, 1
00001b2f                      4722  	.DWLopt953
00001b2f  14                  4723  		extbu	D0
00001b30                      4724  	.DWLopt948
                              4725  	;;LINE 1785, 1, 1
00001b30                      4726  	.DWLopt954
00001b30  DE0000              4727  		retf
00001b33                      4728  	.LDW42
                              4729  		FUNCTION	_0Ascii_to_data,.LDW42-_0Ascii_to_data
                              4730  		FUNCTION	_Ascii_to_data,.LDW42-_Ascii_to_data
                              4731  	.debug_MN_rsc		SECTION
                              4732  	;; Resource Information
                              4733  	;; resource_list  1
00000263                      4734  	.LDW920
                              4735  		;; loc_data  1
00000263  00000000          + 4736  		DD	.DWLopt946	;; address
00000267  01                  4737  		DC	0x1	;;   size of loc_exp
00000268  50                  4738  		DC	0x50	;;   DW_OP_reg0
                              4739  		;; loc_data  2
00000269  00000000          + 4740  		DD	.DWLopt947	;; address
0000026d  01                  4741  		DC	0x1	;;   size of loc_exp
0000026e  50                  4742  		DC	0x50	;;   DW_OP_reg0
                              4743  		;; loc_data  3
0000026f  00000000          + 4744  		DD	.DWLopt948	;; address
00000273  01                  4745  		DC	0x1	;;   size of loc_exp
00000274  E1                  4746  		DC	0xe1	;;   DW_OP_MN_void
                              4747  		;; end
00000275  00000000            4748  		DD	0x0
00000279  00                  4749  		DC	0x0
                              4750  	;; resource_list  2
0000027a                      4751  	.LDW925
                              4752  		;; loc_data  1
0000027a  00000000          + 4753  		DD	.DWLopt944	;; address
0000027e  01                  4754  		DC	0x1	;;   size of loc_exp
0000027f  50                  4755  		DC	0x50	;;   DW_OP_reg0
                              4756  		;; loc_data  2
00000280  00000000          + 4757  		DD	.DWLopt945	;; address
00000284  01                  4758  		DC	0x1	;;   size of loc_exp
00000285  E1                  4759  		DC	0xe1	;;   DW_OP_MN_void
                              4760  		;; end
00000286  00000000            4761  		DD	0x0
0000028a  00                  4762  		DC	0x0
                              4763  	;; End of Resource Information
                              4764  	.debug_frame		SECTION
                              4765  	;; Frame Description Entry(FDE)
00000172  00000000          + 4766  		DD	.LDW937-.LDW936	;; length
00000176                      4767  	.LDW936
00000176  00000000          + 4768  		DD	.LFR_TOP	;; CIE_pointer
0000017a  00000000          + 4769  		DD	_Ascii_to_data	;; initial location
0000017e  00000000          + 4770  		DD	.LDW42-_Ascii_to_data	;; address_range
                              4771  		;; Prologue
00000182  02                  4772  		DC	0x2	;; DW_CFA_advance_loc1(_0Ascii_to_data-_Ascii_to_data)
00000183  00                + 4773  		DC	_0Ascii_to_data-_Ascii_to_data
00000184  0E00                4774  		DC	0xe,0x0	;; DW_CFA_def_cfa_offset(0)
                              4775  		;; Epilogue
00000186                      4776  	.LDW937
                              4777  	;; End of Frame Description Entry
                              4778  	;;FUNC E _Ascii_to_data
                              4779  	;;FUNC S _data_to_Ascii
                              4780  	.text		SECTION
                              4781  		GLOBAL	_data_to_Ascii
                              4782  		GLOBAL	_0data_to_Ascii
00001b33                      4783  	_data_to_Ascii
                              4784  	;;PROLOG 0x0
                              4785  	_0data_to_Ascii		FUNCINFO _data_to_Ascii,0,[]
00001b33                      4786  	.DWLopt955
                              4787  	;;LINE 1791, 1, 1
00001b33                      4788  	.DWLopt960
00001b33  14                  4789  		extbu	D0
00001b34                      4790  	.DWLopt956
00001b34  A000                4791  		cmp	0,D0
00001b36  C207DC00000000    @ 4792  		blt	L00441
00001b3d  A009                4793  		cmp	9,D0
00001b3f  C307DC00000000    @ 4794  		bgt	L00441
                              4795  	;;LINE 1793, 1, 1
00001b46                      4796  	.DWLopt961
00001b46  2830                4797  		add	48,D0
00001b48                      4798  	.DWLopt957
00001b48  DC00000000        @ 4799  		bra	L00443
00001b4d                      4800  	L00441
                              4801  	;;LINE 1795, 1, 1
00001b4d                      4802  	.DWLopt962
00001b4d  A00A                4803  		cmp	10,D0
00001b4f  C207DC00000000    @ 4804  		blt	L00443
00001b56  A00F                4805  		cmp	15,D0
00001b58  C307DC00000000    @ 4806  		bgt	L00443
                              4807  	;;LINE 1797, 1, 1
00001b5f                      4808  	.DWLopt963
00001b5f  2837                4809  		add	55,D0
00001b61                      4810  	.DWLopt958
00001b61                      4811  	L00443
                              4812  	;;LINE 1800, 1, 1
00001b61                      4813  	.DWLopt964
00001b61  14                  4814  		extbu	D0
00001b62                      4815  	.DWLopt959
                              4816  	;;LINE 1801, 1, 1
00001b62                      4817  	.DWLopt965
00001b62  DE0000              4818  		retf
00001b65                      4819  	.LDW43
                              4820  		FUNCTION	_0data_to_Ascii,.LDW43-_0data_to_Ascii
                              4821  		FUNCTION	_data_to_Ascii,.LDW43-_data_to_Ascii
                              4822  	.debug_MN_rsc		SECTION
                              4823  	;; Resource Information
                              4824  	;; resource_list  1
0000028b                      4825  	.LDW938
                              4826  		;; loc_data  1
0000028b  00000000          + 4827  		DD	.DWLopt957	;; address
0000028f  01                  4828  		DC	0x1	;;   size of loc_exp
00000290  50                  4829  		DC	0x50	;;   DW_OP_reg0
                              4830  		;; loc_data  2
00000291  00000000          + 4831  		DD	.DWLopt958	;; address
00000295  01                  4832  		DC	0x1	;;   size of loc_exp
00000296  50                  4833  		DC	0x50	;;   DW_OP_reg0
                              4834  		;; loc_data  3
00000297  00000000          + 4835  		DD	.DWLopt959	;; address
0000029b  01                  4836  		DC	0x1	;;   size of loc_exp
0000029c  E1                  4837  		DC	0xe1	;;   DW_OP_MN_void
                              4838  		;; end
0000029d  00000000            4839  		DD	0x0
000002a1  00                  4840  		DC	0x0
                              4841  	;; resource_list  2
000002a2                      4842  	.LDW943
                              4843  		;; loc_data  1
000002a2  00000000          + 4844  		DD	.DWLopt955	;; address
000002a6  01                  4845  		DC	0x1	;;   size of loc_exp
000002a7  50                  4846  		DC	0x50	;;   DW_OP_reg0
                              4847  		;; loc_data  2
000002a8  00000000          + 4848  		DD	.DWLopt956	;; address
000002ac  01                  4849  		DC	0x1	;;   size of loc_exp
000002ad  E1                  4850  		DC	0xe1	;;   DW_OP_MN_void
                              4851  		;; end
000002ae  00000000            4852  		DD	0x0
000002b2  00                  4853  		DC	0x0
                              4854  	;; End of Resource Information
                              4855  	.debug_frame		SECTION
                              4856  	;; Frame Description Entry(FDE)
00000186  00000000          + 4857  		DD	.LDW955-.LDW954	;; length
0000018a                      4858  	.LDW954
0000018a  00000000          + 4859  		DD	.LFR_TOP	;; CIE_pointer
0000018e  00000000          + 4860  		DD	_data_to_Ascii	;; initial location
00000192  00000000          + 4861  		DD	.LDW43-_data_to_Ascii	;; address_range
                              4862  		;; Prologue
00000196  02                  4863  		DC	0x2	;; DW_CFA_advance_loc1(_0data_to_Ascii-_data_to_Ascii)
00000197  00                + 4864  		DC	_0data_to_Ascii-_data_to_Ascii
00000198  0E00                4865  		DC	0xe,0x0	;; DW_CFA_def_cfa_offset(0)
                              4866  		;; Epilogue
0000019a                      4867  	.LDW955
                              4868  	;; End of Frame Description Entry
                              4869  	;;FUNC E _data_to_Ascii
                              4870  	.bss		SECTION
                              4871  		ALIGN	4
                              4872  		GLOBAL	_flg_SCI0
00000000  00000000            4873  	_flg_SCI0	DS	4
                              4874  		OBJECT	_flg_SCI0,0x4
                              4875  		ALIGN	2
                              4876  		GLOBAL	_gus_host_setfreq
00000004  0000                4877  	_gus_host_setfreq	DS	2
                              4878  		OBJECT	_gus_host_setfreq,0x2
                              4879  		GLOBAL	_guc_comm_address
00000006  00                  4880  	_guc_comm_address	DS	1
                              4881  		OBJECT	_guc_comm_address,0x1
                              4882  		GLOBAL	_guc_SCI0_trip_code
00000007  00                  4883  	_guc_SCI0_trip_code	DS	1
                              4884  		OBJECT	_guc_SCI0_trip_code,0x1
                              4885  		GLOBAL	_guc_LED_trip_code
00000008  00                  4886  	_guc_LED_trip_code	DS	1
                              4887  		OBJECT	_guc_LED_trip_code,0x1
                              4888  		GLOBAL	_guc_SCI0_tx_buffer
00000009  0000000000000000    4889  	_guc_SCI0_tx_buffer	DS	20
00000011  0000000000000000    4889  	
00000019  00000000            4889  	
                              4890  		OBJECT	_guc_SCI0_tx_buffer,0x14
                              4891  		GLOBAL	_guc_SCI0_rx_buffer
0000001d  0000000000000000    4892  	_guc_SCI0_rx_buffer	DS	20
00000025  0000000000000000    4892  	
0000002d  00000000            4892  	
                              4893  		OBJECT	_guc_SCI0_rx_buffer,0x14
                              4894  		ALIGN	2
                              4895  		GLOBAL	_gus_SCI0_check_delaytimer
00000032  0000                4896  	_gus_SCI0_check_delaytimer	DS	2
                              4897  		OBJECT	_gus_SCI0_check_delaytimer,0x2
                              4898  		ALIGN	2
                              4899  		GLOBAL	_gss_SCI0_init_delaytimer
00000034  0000                4900  	_gss_SCI0_init_delaytimer	DS	2
                              4901  		OBJECT	_gss_SCI0_init_delaytimer,0x2
                              4902  		GLOBAL	_guc_SCI0_tx_len
00000036  00                  4903  	_guc_SCI0_tx_len	DS	1
                              4904  		OBJECT	_guc_SCI0_tx_len,0x1
                              4905  		GLOBAL	_guc_SCI0_rx_len
00000037  00                  4906  	_guc_SCI0_rx_len	DS	1
                              4907  		OBJECT	_guc_SCI0_rx_len,0x1
                              4908  		GLOBAL	_guc_SCI0_tx_point
00000038  00                  4909  	_guc_SCI0_tx_point	DS	1
                              4910  		OBJECT	_guc_SCI0_tx_point,0x1
                              4911  		GLOBAL	_guc_SCI0_rx_point
00000039  00                  4912  	_guc_SCI0_rx_point	DS	1
                              4913  		OBJECT	_guc_SCI0_rx_point,0x1
                              4914  		ALIGN	2
                              4915  		GLOBAL	_gss_SCI0_tx_delaytimer
0000003a  0000                4916  	_gss_SCI0_tx_delaytimer	DS	2
                              4917  		OBJECT	_gss_SCI0_tx_delaytimer,0x2
                              4918  		ALIGN	2
                              4919  		GLOBAL	_gss_SCI0_rx_delaytimer
0000003c  0000                4920  	_gss_SCI0_rx_delaytimer	DS	2
                              4921  		OBJECT	_gss_SCI0_rx_delaytimer,0x2
                              4922  		ALIGN	2
                              4923  		GLOBAL	_gss_SCI0_rx_end_delaytimer
0000003e  0000                4924  	_gss_SCI0_rx_end_delaytimer	DS	2
                              4925  		OBJECT	_gss_SCI0_rx_end_delaytimer,0x2
                              4926  		ALIGN	2
                              4927  		GLOBAL	_gss_SCI0_fault_delaytimer
00000040  0000                4928  	_gss_SCI0_fault_delaytimer	DS	2
                              4929  		OBJECT	_gss_SCI0_fault_delaytimer,0x2
                              4930  		ALIGN	2
                              4931  		GLOBAL	_gss_trip_clear_cnt
00000042  0000                4932  	_gss_trip_clear_cnt	DS	2
                              4933  		OBJECT	_gss_trip_clear_cnt,0x2
                              4934  		ALIGN	2
                              4935  		GLOBAL	_gus_host_speed_set
00000044  0000                4936  	_gus_host_speed_set	DS	2
                              4937  		OBJECT	_gus_host_speed_set,0x2
                              4938  		GLOBAL	_guc_motor_ID_error_cnt
00000046  00                  4939  	_guc_motor_ID_error_cnt	DS	1
                              4940  		OBJECT	_guc_motor_ID_error_cnt,0x1
                              4941  		GLOBAL	_guc_SCI0_type_cnt
00000047  00                  4942  	_guc_SCI0_type_cnt	DS	1
                              4943  		OBJECT	_guc_SCI0_type_cnt,0x1
                              4944  		ALIGN	2
                              4945  		GLOBAL	_gus_host_test
00000048  0000                4946  	_gus_host_test	DS	2
                              4947  		OBJECT	_gus_host_test,0x2
                              4948  	.rodata		SECTION
                              4949  		ALIGN	4
00000000  2C000000            4950  	S00740	DD	0x2c
00000004  00000000          + 4951  		DD	S00059
00000008  01000000            4952  		DD	0x1
0000000c  00000000          + 4953  		DD	S00038
00000010  4C000000            4954  		DD	0x4c
00000014  00000000          + 4955  		DD	S00060
00000018  53000000            4956  		DD	0x53
0000001c  00000000          + 4957  		DD	S00061
00000020  24000000            4958  		DD	0x24
00000024  00000000          + 4959  		DD	S00058
00000028  35000000            4960  		DD	0x35
0000002c  00000000          + 4961  		DD	S00051
00000030  36000000            4962  		DD	0x36
00000034  00000000          + 4963  		DD	S00050
00000038  46000000            4964  		DD	0x46
0000003c  00000000          + 4965  		DD	S00057
00000040  00000000            4966  		DD	0x0
00000044  00000000          + 4967  		DD	S00062
00000048  39000000            4968  		DD	0x39
0000004c  00000000          + 4969  		DD	S00048
00000050  3A000000            4970  		DD	0x3a
00000054  00000000          + 4971  		DD	S00045
00000058  2B000000            4972  		DD	0x2b
0000005c  00000000          + 4973  		DD	S00041
00000060  2A000000            4974  		DD	0x2a
00000064  00000000          + 4975  		DD	S00052
00000068  4A000000            4976  		DD	0x4a
0000006c  00000000          + 4977  		DD	S00053
00000070  3B000000            4978  		DD	0x3b
00000074  00000000          + 4979  		DD	S00054
00000078  1F000000            4980  		DD	0x1f
0000007c  00000000          + 4981  		DD	S00044
                              4982  		OBJECT	S00740,0x80
                              4983  		ALIGN	4
00000080  00000000            4984  	S01086	DD	0x0
00000084  00000000          + 4985  		DD	S00182
00000088  01000000            4986  		DD	0x1
0000008c  00000000          + 4987  		DD	S00157
00000090  00000000            4988  		DD	0x0
00000094  00000000          + 4989  		DD	S00182
00000098  00000000            4990  		DD	0x0
0000009c  00000000          + 4991  		DD	S00182
000000a0  24000000            4992  		DD	0x24
000000a4  00000000          + 4993  		DD	S00177
000000a8  00000000            4994  		DD	0x0
000000ac  00000000          + 4995  		DD	S00182
000000b0  46000000            4996  		DD	0x46
000000b4  00000000          + 4997  		DD	S00176
000000b8  00000000            4998  		DD	0x0
000000bc  00000000          + 4999  		DD	S00182
000000c0  00000000            5000  		DD	0x0
000000c4  00000000          + 5001  		DD	S00182
000000c8  00000000            5002  		DD	0x0
000000cc  00000000          + 5003  		DD	S00182
000000d0  2A000000            5004  		DD	0x2a
000000d4  00000000          + 5005  		DD	S00171
000000d8  2B000000            5006  		DD	0x2b
000000dc  00000000          + 5007  		DD	S00160
000000e0  4A000000            5008  		DD	0x4a
000000e4  00000000          + 5009  		DD	S00172
000000e8  2C000000            5010  		DD	0x2c
000000ec  00000000          + 5011  		DD	S00178
000000f0  4C000000            5012  		DD	0x4c
000000f4  00000000          + 5013  		DD	S00179
000000f8  00000000            5014  		DD	0x0
000000fc  00000000          + 5015  		DD	S00182
00000100  00000000            5016  		DD	0x0
00000104  00000000          + 5017  		DD	S00182
00000108  00000000            5018  		DD	0x0
0000010c  00000000          + 5019  		DD	S00182
00000110  00000000            5020  		DD	0x0
00000114  00000000          + 5021  		DD	S00182
00000118  53000000            5022  		DD	0x53
0000011c  00000000          + 5023  		DD	S00180
00000120  54000000            5024  		DD	0x54
00000124  00000000          + 5025  		DD	S00181
00000128  35000000            5026  		DD	0x35
0000012c  00000000          + 5027  		DD	S00170
00000130  36000000            5028  		DD	0x36
00000134  00000000          + 5029  		DD	S00169
00000138  00000000            5030  		DD	0x0
0000013c  00000000          + 5031  		DD	S00182
00000140  00000000            5032  		DD	0x0
00000144  00000000          + 5033  		DD	S00182
00000148  39000000            5034  		DD	0x39
0000014c  00000000          + 5035  		DD	S00167
00000150  3A000000            5036  		DD	0x3a
00000154  00000000          + 5037  		DD	S00164
00000158  3B000000            5038  		DD	0x3b
0000015c  00000000          + 5039  		DD	S00173
00000160  00000000            5040  		DD	0x0
00000164  00000000          + 5041  		DD	S00182
00000168  00000000            5042  		DD	0x0
0000016c  00000000          + 5043  		DD	S00182
00000170  00000000            5044  		DD	0x0
00000174  00000000          + 5045  		DD	S00182
00000178  1F000000            5046  		DD	0x1f
0000017c  00000000          + 5047  		DD	S00163
                              5048  		OBJECT	S01086,0x100
                              5049  	.text		SECTION
00001b65                      5050  	.LPC_END
                              5051  	.debug_abbrev		SECTION
                              5052  	;; Abbreviation Tables
00000000                      5053  	.LAB_TOP
                              5054  		;; decl 1
00000000  01                  5055  		DC	0x1	;; abbrev_code
00000001  11                  5056  		DC	0x11	;; DW_TAG_compile_unit
00000002  01                  5057  		DC	0x1	;; DW_CHILDREN_yes
00000003  0308                5058  		DC	0x3,0x8	;; DW_AT_name, DW_FORM_string
00000005  1006                5059  		DC	0x10,0x6	;; DW_AT_stmt_list, DW_FORM_data4
00000007  1101                5060  		DC	0x11,0x1	;; DW_AT_low_pc, DW_FORM_addr
00000009  1201                5061  		DC	0x12,0x1	;; DW_AT_high_pc, DW_FORM_addr
0000000b  1305                5062  		DC	0x13,0x5	;; DW_AT_language, DW_FORM_data2
0000000d  1B08                5063  		DC	0x1b,0x8	;; DW_AT_comp_dir, DW_FORM_string
0000000f  2508                5064  		DC	0x25,0x8	;; DW_AT_producer, DW_FORM_string
00000011  420B                5065  		DC	0x42,0xb	;; DW_AT_identifier_case, DW_FORM_data1
00000013  00                  5066  		DC	0x0
00000014  00                  5067  		DC	0x0
                              5068  		;; decl 2
00000015  02                  5069  		DC	0x2	;; abbrev_code
00000016  24                  5070  		DC	0x24	;; DW_TAG_base_type
00000017  00                  5071  		DC	0x0	;; DW_CHILDREN_no
00000018  0308                5072  		DC	0x3,0x8	;; DW_AT_name, DW_FORM_string
0000001a  0B0F                5073  		DC	0xb,0xf	;; DW_AT_byte_size, DW_FORM_udata
0000001c  3E05                5074  		DC	0x3e,0x5	;; DW_AT_encoding, DW_FORM_data2
0000001e  00                  5075  		DC	0x0
0000001f  00                  5076  		DC	0x0
                              5077  		;; decl 3
00000020  03                  5078  		DC	0x3	;; abbrev_code
00000021  0F                  5079  		DC	0xf	;; DW_TAG_pointer_type
00000022  00                  5080  		DC	0x0	;; DW_CHILDREN_no
00000023  4913                5081  		DC	0x49,0x13	;; DW_AT_type, DW_FORM_ref4
00000025  00                  5082  		DC	0x0
00000026  00                  5083  		DC	0x0
                              5084  		;; decl 4
00000027  04                  5085  		DC	0x4	;; abbrev_code
00000028  01                  5086  		DC	0x1	;; DW_TAG_array_type
00000029  01                  5087  		DC	0x1	;; DW_CHILDREN_yes
0000002a  090B                5088  		DC	0x9,0xb	;; DW_AT_ordering, DW_FORM_data1
0000002c  4913                5089  		DC	0x49,0x13	;; DW_AT_type, DW_FORM_ref4
0000002e  00                  5090  		DC	0x0
0000002f  00                  5091  		DC	0x0
                              5092  		;; decl 5
00000030  05                  5093  		DC	0x5	;; abbrev_code
00000031  21                  5094  		DC	0x21	;; DW_TAG_subrange_type
00000032  00                  5095  		DC	0x0	;; DW_CHILDREN_no
00000033  0B0F                5096  		DC	0xb,0xf	;; DW_AT_byte_size, DW_FORM_udata
00000035  2F0F                5097  		DC	0x2f,0xf	;; DW_AT_upper_bound, DW_FORM_udata
00000037  00                  5098  		DC	0x0
00000038  00                  5099  		DC	0x0
                              5100  		;; decl 6
00000039  06                  5101  		DC	0x6	;; abbrev_code
0000003a  16                  5102  		DC	0x16	;; DW_TAG_typedef
0000003b  00                  5103  		DC	0x0	;; DW_CHILDREN_no
0000003c  0308                5104  		DC	0x3,0x8	;; DW_AT_name, DW_FORM_string
0000003e  4913                5105  		DC	0x49,0x13	;; DW_AT_type, DW_FORM_ref4
00000040  00                  5106  		DC	0x0
00000041  00                  5107  		DC	0x0
                              5108  		;; decl 7
00000042  07                  5109  		DC	0x7	;; abbrev_code
00000043  13                  5110  		DC	0x13	;; DW_TAG_structure_type
00000044  01                  5111  		DC	0x1	;; DW_CHILDREN_yes
00000045  0B0F                5112  		DC	0xb,0xf	;; DW_AT_byte_size, DW_FORM_udata
00000047  00                  5113  		DC	0x0
00000048  00                  5114  		DC	0x0
                              5115  		;; decl 8
00000049  08                  5116  		DC	0x8	;; abbrev_code
0000004a  0D                  5117  		DC	0xd	;; DW_TAG_member
0000004b  00                  5118  		DC	0x0	;; DW_CHILDREN_no
0000004c  0308                5119  		DC	0x3,0x8	;; DW_AT_name, DW_FORM_string
0000004e  3809                5120  		DC	0x38,0x9	;; DW_AT_data_member_location, DW_FORM_block
00000050  4913                5121  		DC	0x49,0x13	;; DW_AT_type, DW_FORM_ref4
00000052  00                  5122  		DC	0x0
00000053  00                  5123  		DC	0x0
                              5124  		;; decl 9
00000054  09                  5125  		DC	0x9	;; abbrev_code
00000055  17                  5126  		DC	0x17	;; DW_TAG_union_type
00000056  01                  5127  		DC	0x1	;; DW_CHILDREN_yes
00000057  0B0F                5128  		DC	0xb,0xf	;; DW_AT_byte_size, DW_FORM_udata
00000059  00                  5129  		DC	0x0
0000005a  00                  5130  		DC	0x0
                              5131  		;; decl 10
0000005b  0A                  5132  		DC	0xa	;; abbrev_code
0000005c  0D                  5133  		DC	0xd	;; DW_TAG_member
0000005d  00                  5134  		DC	0x0	;; DW_CHILDREN_no
0000005e  0308                5135  		DC	0x3,0x8	;; DW_AT_name, DW_FORM_string
00000060  0B0F                5136  		DC	0xb,0xf	;; DW_AT_byte_size, DW_FORM_udata
00000062  0C0F                5137  		DC	0xc,0xf	;; DW_AT_bit_offset, DW_FORM_udata
00000064  0D0F                5138  		DC	0xd,0xf	;; DW_AT_bit_size, DW_FORM_udata
00000066  3809                5139  		DC	0x38,0x9	;; DW_AT_data_member_location, DW_FORM_block
00000068  4913                5140  		DC	0x49,0x13	;; DW_AT_type, DW_FORM_ref4
0000006a  00                  5141  		DC	0x0
0000006b  00                  5142  		DC	0x0
                              5143  		;; decl 11
0000006c  0B                  5144  		DC	0xb	;; abbrev_code
0000006d  34                  5145  		DC	0x34	;; DW_TAG_variable
0000006e  00                  5146  		DC	0x0	;; DW_CHILDREN_no
0000006f  0209                5147  		DC	0x2,0x9	;; DW_AT_location, DW_FORM_block
00000071  0308                5148  		DC	0x3,0x8	;; DW_AT_name, DW_FORM_string
00000073  3F0C                5149  		DC	0x3f,0xc	;; DW_AT_external, DW_FORM_flag
00000075  4913                5150  		DC	0x49,0x13	;; DW_AT_type, DW_FORM_ref4
00000077  00                  5151  		DC	0x0
00000078  00                  5152  		DC	0x0
                              5153  		;; decl 12
00000079  0C                  5154  		DC	0xc	;; abbrev_code
0000007a  2E                  5155  		DC	0x2e	;; DW_TAG_subprogram
0000007b  01                  5156  		DC	0x1	;; DW_CHILDREN_yes
0000007c  0308                5157  		DC	0x3,0x8	;; DW_AT_name, DW_FORM_string
0000007e  1101                5158  		DC	0x11,0x1	;; DW_AT_low_pc, DW_FORM_addr
00000080  1201                5159  		DC	0x12,0x1	;; DW_AT_high_pc, DW_FORM_addr
00000082  270C                5160  		DC	0x27,0xc	;; DW_AT_prototyped, DW_FORM_flag
00000084  3A0F                5161  		DC	0x3a,0xf	;; DW_AT_decl_file, DW_FORM_udata
00000086  3B0F                5162  		DC	0x3b,0xf	;; DW_AT_decl_line, DW_FORM_udata
00000088  3F0C                5163  		DC	0x3f,0xc	;; DW_AT_external, DW_FORM_flag
0000008a  4009                5164  		DC	0x40,0x9	;; DW_AT_frame_base, DW_FORM_block
0000008c  00                  5165  		DC	0x0
0000008d  00                  5166  		DC	0x0
                              5167  		;; decl 13
0000008e  0D                  5168  		DC	0xd	;; abbrev_code
0000008f  34                  5169  		DC	0x34	;; DW_TAG_variable
00000090  00                  5170  		DC	0x0	;; DW_CHILDREN_no
00000091  0308                5171  		DC	0x3,0x8	;; DW_AT_name, DW_FORM_string
00000093  3F0C                5172  		DC	0x3f,0xc	;; DW_AT_external, DW_FORM_flag
00000095  4913                5173  		DC	0x49,0x13	;; DW_AT_type, DW_FORM_ref4
00000097  834006              5174  		DC	0x83,0x40,0x6	;; DW_AT_MN_resource, DW_FORM_data4
0000009a  00                  5175  		DC	0x0
0000009b  00                  5176  		DC	0x0
                              5177  		;; decl 14
0000009c  0E                  5178  		DC	0xe	;; abbrev_code
0000009d  34                  5179  		DC	0x34	;; DW_TAG_variable
0000009e  00                  5180  		DC	0x0	;; DW_CHILDREN_no
0000009f  0308                5181  		DC	0x3,0x8	;; DW_AT_name, DW_FORM_string
000000a1  3F0C                5182  		DC	0x3f,0xc	;; DW_AT_external, DW_FORM_flag
000000a3  4913                5183  		DC	0x49,0x13	;; DW_AT_type, DW_FORM_ref4
000000a5  00                  5184  		DC	0x0
000000a6  00                  5185  		DC	0x0
                              5186  		;; decl 15
000000a7  0F                  5187  		DC	0xf	;; abbrev_code
000000a8  2E                  5188  		DC	0x2e	;; DW_TAG_subprogram
000000a9  01                  5189  		DC	0x1	;; DW_CHILDREN_yes
000000aa  0308                5190  		DC	0x3,0x8	;; DW_AT_name, DW_FORM_string
000000ac  1101                5191  		DC	0x11,0x1	;; DW_AT_low_pc, DW_FORM_addr
000000ae  1201                5192  		DC	0x12,0x1	;; DW_AT_high_pc, DW_FORM_addr
000000b0  270C                5193  		DC	0x27,0xc	;; DW_AT_prototyped, DW_FORM_flag
000000b2  3A0F                5194  		DC	0x3a,0xf	;; DW_AT_decl_file, DW_FORM_udata
000000b4  3B0F                5195  		DC	0x3b,0xf	;; DW_AT_decl_line, DW_FORM_udata
000000b6  3F0C                5196  		DC	0x3f,0xc	;; DW_AT_external, DW_FORM_flag
000000b8  4009                5197  		DC	0x40,0x9	;; DW_AT_frame_base, DW_FORM_block
000000ba  4913                5198  		DC	0x49,0x13	;; DW_AT_type, DW_FORM_ref4
000000bc  814009              5199  		DC	0x81,0x40,0x9	;; DW_AT_MN_return_value_location, DW_FORM_block
000000bf  00                  5200  		DC	0x0
000000c0  00                  5201  		DC	0x0
                              5202  		;; decl 16
000000c1  10                  5203  		DC	0x10	;; abbrev_code
000000c2  05                  5204  		DC	0x5	;; DW_TAG_formal_parameter
000000c3  00                  5205  		DC	0x0	;; DW_CHILDREN_no
000000c4  0308                5206  		DC	0x3,0x8	;; DW_AT_name, DW_FORM_string
000000c6  4913                5207  		DC	0x49,0x13	;; DW_AT_type, DW_FORM_ref4
000000c8  834006              5208  		DC	0x83,0x40,0x6	;; DW_AT_MN_resource, DW_FORM_data4
000000cb  00                  5209  		DC	0x0
000000cc  00                  5210  		DC	0x0
                              5211  		;; end
000000cd  00                  5212  		DC	0x0
                              5213  	;; End of Abbreviation Tables
                              5214  	.debug_info		SECTION
                              5215  	;; Debugging Information Entries
00000000                      5216  	.LI_TOP
                              5217  	;; header
00000000  00000000          + 5218  		DD	.LI_E-.LI_B	;; length
00000004                      5219  	.LI_B
00000004  0200                5220  		DW	0x2	;; version
00000006  00000000          + 5221  		DD	.LAB_TOP	;; abbrev_table
0000000a  04                  5222  		DC	0x4	;; address_width
                              5223  	;; entry 1
0000000b  01                  5224  		DC	0x1	;; abbrev_code
0000000c  636F64655C486F73    5225  		DC	"code\\Host_comm.c",0x0	;; DW_AT_name
00000014  745F636F6D6D2E63    5225  	
0000001c  00                  5225  	
0000001d  00000000          + 5226  		DD	.LLN_TOP	;; DW_AT_stmt_list
00000021  00000000          + 5227  		DD	.LPC_TOP	;; DW_AT_low_pc
00000025  00000000          + 5228  		DD	.LPC_END	;; DW_AT_high_pc
00000029  0100                5229  		DW	0x1	;; DW_AT_language
0000002b  463A5C576F726B20    5230  		DC	"F:\\Work Projects\\MotorDrive\\1000W_MotorDrive\\SoftWare\\1000W",0x0	;; DW_AT_comp_dir
00000033  50726F6A65637473    5230  	
0000003b  5C4D6F746F724472    5230  	
00000043  6976655C31303030    5230  	
0000004b  575F4D6F746F7244    5230  	
00000053  726976655C536F66    5230  	
0000005b  74576172655C3130    5230  	
00000063  30305700            5230  	
00000067  4D4E313033532053    5231  		DC	"MN103S Series C Compiler Windows V5.4R1 Nov 30 2011",0x0	;; DW_AT_producer
0000006f  6572696573204320    5231  	
00000077  436F6D70696C6572    5231  	
0000007f  2057696E646F7773    5231  	
00000087  2056352E34523120    5231  	
0000008f  4E6F762033302032    5231  	
00000097  30313100            5231  	
0000009b  00                  5232  		DC	0x0	;; DW_AT_identifier_case
                              5233  	;; entry 2
0000009c                      5234  	.LDW10
0000009c  02                  5235  		DC	0x2	;; abbrev_code
0000009d  646F75626C6500      5236  		DC	"double",0x0	;; DW_AT_name
000000a4  08                  5237  		DC	0x8	;; DW_AT_byte_size
000000a5  0400                5238  		DW	0x4	;; DW_AT_encoding
                              5239  	;; entry 3
000000a7                      5240  	.LDW9
000000a7  02                  5241  		DC	0x2	;; abbrev_code
000000a8  666C6F617400        5242  		DC	"float",0x0	;; DW_AT_name
000000ae  04                  5243  		DC	0x4	;; DW_AT_byte_size
000000af  0400                5244  		DW	0x4	;; DW_AT_encoding
                              5245  	;; entry 4
000000b1                      5246  	.LDW8
000000b1  02                  5247  		DC	0x2	;; abbrev_code
000000b2  6C6F6E67206C6F6E    5248  		DC	"long long",0x0	;; DW_AT_name
000000ba  6700                5248  	
000000bc  08                  5249  		DC	0x8	;; DW_AT_byte_size
000000bd  0700                5250  		DW	0x7	;; DW_AT_encoding
                              5251  	;; entry 5
000000bf                      5252  	.LDW7
000000bf  02                  5253  		DC	0x2	;; abbrev_code
000000c0  6C6F6E6700          5254  		DC	"long",0x0	;; DW_AT_name
000000c5  04                  5255  		DC	0x4	;; DW_AT_byte_size
000000c6  0700                5256  		DW	0x7	;; DW_AT_encoding
                              5257  	;; entry 6
000000c8                      5258  	.LDW6
000000c8  02                  5259  		DC	0x2	;; abbrev_code
000000c9  73686F727400        5260  		DC	"short",0x0	;; DW_AT_name
000000cf  02                  5261  		DC	0x2	;; DW_AT_byte_size
000000d0  0700                5262  		DW	0x7	;; DW_AT_encoding
                              5263  	;; entry 7
000000d2                      5264  	.LDW5
000000d2  02                  5265  		DC	0x2	;; abbrev_code
000000d3  6368617200          5266  		DC	"char",0x0	;; DW_AT_name
000000d8  01                  5267  		DC	0x1	;; DW_AT_byte_size
000000d9  0800                5268  		DW	0x8	;; DW_AT_encoding
                              5269  	;; entry 8
000000db                      5270  	.LDW41
000000db  03                  5271  		DC	0x3	;; abbrev_code
000000dc  00000000          + 5272  		DD	.LDW5-.LI_TOP	;; DW_AT_type
                              5273  	;; entry 9
000000e0                      5274  	.LDW25
000000e0  04                  5275  		DC	0x4	;; abbrev_code
000000e1  00                  5276  		DC	0x0	;; DW_AT_ordering
000000e2  00000000          + 5277  		DD	.LDW5-.LI_TOP	;; DW_AT_type
                              5278  	;; entry 10
000000e6  05                  5279  		DC	0x5	;; abbrev_code
000000e7  01                  5280  		DC	0x1	;; DW_AT_byte_size
000000e8  13                  5281  		DC	0x13	;; DW_AT_upper_bound
                              5282  	;; NULL ENTRY 11
000000e9  00                  5283  		DC	0x0
                              5284  	;; entry 12
000000ea                      5285  	.LDW4
000000ea  02                  5286  		DC	0x2	;; abbrev_code
000000eb  6C6F6E67206C6F6E    5287  		DC	"long long",0x0	;; DW_AT_name
000000f3  6700                5287  	
000000f5  08                  5288  		DC	0x8	;; DW_AT_byte_size
000000f6  0500                5289  		DW	0x5	;; DW_AT_encoding
                              5290  	;; entry 13
000000f8                      5291  	.LDW3
000000f8  02                  5292  		DC	0x2	;; abbrev_code
000000f9  6C6F6E6700          5293  		DC	"long",0x0	;; DW_AT_name
000000fe  04                  5294  		DC	0x4	;; DW_AT_byte_size
000000ff  0500                5295  		DW	0x5	;; DW_AT_encoding
                              5296  	;; entry 14
00000101                      5297  	.LDW2
00000101  02                  5298  		DC	0x2	;; abbrev_code
00000102  73686F727400        5299  		DC	"short",0x0	;; DW_AT_name
00000108  02                  5300  		DC	0x2	;; DW_AT_byte_size
00000109  0500                5301  		DW	0x5	;; DW_AT_encoding
                              5302  	;; entry 15
0000010b                      5303  	.LDW1
0000010b  02                  5304  		DC	0x2	;; abbrev_code
0000010c  6368617200          5305  		DC	"char",0x0	;; DW_AT_name
00000111  01                  5306  		DC	0x1	;; DW_AT_byte_size
00000112  0600                5307  		DW	0x6	;; DW_AT_encoding
                              5308  	;; entry 16
00000114  06                  5309  		DC	0x6	;; abbrev_code
00000115  636861725F7400      5310  		DC	"char_t",0x0	;; DW_AT_name
0000011c  00000000          + 5311  		DD	.LDW1-.LI_TOP	;; DW_AT_type
                              5312  	;; entry 17
00000120  06                  5313  		DC	0x6	;; abbrev_code
00000121  696E74385F7400      5314  		DC	"int8_t",0x0	;; DW_AT_name
00000128  00000000          + 5315  		DD	.LDW1-.LI_TOP	;; DW_AT_type
                              5316  	;; entry 18
0000012c  06                  5317  		DC	0x6	;; abbrev_code
0000012d  696E7431365F7400    5318  		DC	"int16_t",0x0	;; DW_AT_name
00000135  00000000          + 5319  		DD	.LDW2-.LI_TOP	;; DW_AT_type
                              5320  	;; entry 19
00000139  06                  5321  		DC	0x6	;; abbrev_code
0000013a  696E7433325F7400    5322  		DC	"int32_t",0x0	;; DW_AT_name
00000142  00000000          + 5323  		DD	.LDW3-.LI_TOP	;; DW_AT_type
                              5324  	;; entry 20
00000146  06                  5325  		DC	0x6	;; abbrev_code
00000147  696E7436345F7400    5326  		DC	"int64_t",0x0	;; DW_AT_name
0000014f  00000000          + 5327  		DD	.LDW4-.LI_TOP	;; DW_AT_type
                              5328  	;; entry 21
00000153  06                  5329  		DC	0x6	;; abbrev_code
00000154  75696E74385F7400    5330  		DC	"uint8_t",0x0	;; DW_AT_name
0000015c  00000000          + 5331  		DD	.LDW5-.LI_TOP	;; DW_AT_type
                              5332  	;; entry 22
00000160  06                  5333  		DC	0x6	;; abbrev_code
00000161  75696E7431365F74    5334  		DC	"uint16_t",0x0	;; DW_AT_name
00000169  00                  5334  	
0000016a  00000000          + 5335  		DD	.LDW6-.LI_TOP	;; DW_AT_type
                              5336  	;; entry 23
0000016e  06                  5337  		DC	0x6	;; abbrev_code
0000016f  75696E7433325F74    5338  		DC	"uint32_t",0x0	;; DW_AT_name
00000177  00                  5338  	
00000178  00000000          + 5339  		DD	.LDW7-.LI_TOP	;; DW_AT_type
                              5340  	;; entry 24
0000017c  06                  5341  		DC	0x6	;; abbrev_code
0000017d  75696E7436345F74    5342  		DC	"uint64_t",0x0	;; DW_AT_name
00000185  00                  5342  	
00000186  00000000          + 5343  		DD	.LDW8-.LI_TOP	;; DW_AT_type
                              5344  	;; entry 25
0000018a  06                  5345  		DC	0x6	;; abbrev_code
0000018b  666C6F617433325F    5346  		DC	"float32_t",0x0	;; DW_AT_name
00000193  7400                5346  	
00000195  00000000          + 5347  		DD	.LDW9-.LI_TOP	;; DW_AT_type
                              5348  	;; entry 26
00000199  06                  5349  		DC	0x6	;; abbrev_code
0000019a  666C6F617436345F    5350  		DC	"float64_t",0x0	;; DW_AT_name
000001a2  7400                5350  	
000001a4  00000000          + 5351  		DD	.LDW10-.LI_TOP	;; DW_AT_type
                              5352  	;; entry 27
000001a8                      5353  	.LDW11
000001a8  07                  5354  		DC	0x7	;; abbrev_code
000001a9  08                  5355  		DC	0x8	;; DW_AT_byte_size
                              5356  	;; entry 28
000001aa  08                  5357  		DC	0x8	;; abbrev_code
000001ab  6C6F7700            5358  		DC	"low",0x0	;; DW_AT_name
                              5359  				;; DW_AT_data_member_location
000001af  02                  5360  		DC	0x2	;;   size of loc_exp
000001b0  23                  5361  		DC	0x23	;;   DW_OP_plus_uconst
000001b1  00                  5362  		DC	0x0	;;     operand
000001b2  00000000          + 5363  		DD	.LDW3-.LI_TOP	;; DW_AT_type
                              5364  	;; entry 29
000001b6  08                  5365  		DC	0x8	;; abbrev_code
000001b7  6869676800          5366  		DC	"high",0x0	;; DW_AT_name
                              5367  				;; DW_AT_data_member_location
000001bc  02                  5368  		DC	0x2	;;   size of loc_exp
000001bd  23                  5369  		DC	0x23	;;   DW_OP_plus_uconst
000001be  04                  5370  		DC	0x4	;;     operand
000001bf  00000000          + 5371  		DD	.LDW3-.LI_TOP	;; DW_AT_type
                              5372  	;; NULL ENTRY 30
000001c3  00                  5373  		DC	0x0
                              5374  	;; entry 31
000001c4                      5375  	.LDW12
000001c4  07                  5376  		DC	0x7	;; abbrev_code
000001c5  08                  5377  		DC	0x8	;; DW_AT_byte_size
                              5378  	;; entry 32
000001c6  08                  5379  		DC	0x8	;; abbrev_code
000001c7  6C6F7700            5380  		DC	"low",0x0	;; DW_AT_name
                              5381  				;; DW_AT_data_member_location
000001cb  02                  5382  		DC	0x2	;;   size of loc_exp
000001cc  23                  5383  		DC	0x23	;;   DW_OP_plus_uconst
000001cd  00                  5384  		DC	0x0	;;     operand
000001ce  00000000          + 5385  		DD	.LDW7-.LI_TOP	;; DW_AT_type
                              5386  	;; entry 33
000001d2  08                  5387  		DC	0x8	;; abbrev_code
000001d3  6869676800          5388  		DC	"high",0x0	;; DW_AT_name
                              5389  				;; DW_AT_data_member_location
000001d8  02                  5390  		DC	0x2	;;   size of loc_exp
000001d9  23                  5391  		DC	0x23	;;   DW_OP_plus_uconst
000001da  04                  5392  		DC	0x4	;;     operand
000001db  00000000          + 5393  		DD	.LDW7-.LI_TOP	;; DW_AT_type
                              5394  	;; NULL ENTRY 34
000001df  00                  5395  		DC	0x0
                              5396  	;; entry 35
000001e0                      5397  	.LDW13
000001e0  09                  5398  		DC	0x9	;; abbrev_code
000001e1  08                  5399  		DC	0x8	;; DW_AT_byte_size
                              5400  	;; entry 36
000001e2  08                  5401  		DC	0x8	;; abbrev_code
000001e3  646C776F726400      5402  		DC	"dlword",0x0	;; DW_AT_name
                              5403  				;; DW_AT_data_member_location
000001ea  02                  5404  		DC	0x2	;;   size of loc_exp
000001eb  23                  5405  		DC	0x23	;;   DW_OP_plus_uconst
000001ec  00                  5406  		DC	0x0	;;     operand
000001ed  00000000          + 5407  		DD	.LDW4-.LI_TOP	;; DW_AT_type
                              5408  	;; entry 37
000001f1  08                  5409  		DC	0x8	;; abbrev_code
000001f2  6C776F726400        5410  		DC	"lword",0x0	;; DW_AT_name
                              5411  				;; DW_AT_data_member_location
000001f8  02                  5412  		DC	0x2	;;   size of loc_exp
000001f9  23                  5413  		DC	0x23	;;   DW_OP_plus_uconst
000001fa  00                  5414  		DC	0x0	;;     operand
000001fb  00000000          + 5415  		DD	.LDW11-.LI_TOP	;; DW_AT_type
                              5416  	;; entry 38
000001ff  08                  5417  		DC	0x8	;; abbrev_code
00000200  75646C776F726400    5418  		DC	"udlword",0x0	;; DW_AT_name
                              5419  				;; DW_AT_data_member_location
00000208  02                  5420  		DC	0x2	;;   size of loc_exp
00000209  23                  5421  		DC	0x23	;;   DW_OP_plus_uconst
0000020a  00                  5422  		DC	0x0	;;     operand
0000020b  00000000          + 5423  		DD	.LDW8-.LI_TOP	;; DW_AT_type
                              5424  	;; entry 39
0000020f  08                  5425  		DC	0x8	;; abbrev_code
00000210  756C776F726400      5426  		DC	"ulword",0x0	;; DW_AT_name
                              5427  				;; DW_AT_data_member_location
00000217  02                  5428  		DC	0x2	;;   size of loc_exp
00000218  23                  5429  		DC	0x23	;;   DW_OP_plus_uconst
00000219  00                  5430  		DC	0x0	;;     operand
0000021a  00000000          + 5431  		DD	.LDW12-.LI_TOP	;; DW_AT_type
                              5432  	;; NULL ENTRY 40
0000021e  00                  5433  		DC	0x0
                              5434  	;; entry 41
0000021f  06                  5435  		DC	0x6	;; abbrev_code
00000220  646C776F72645F74    5436  		DC	"dlword_type",0x0	;; DW_AT_name
00000228  79706500            5436  	
0000022c  00000000          + 5437  		DD	.LDW13-.LI_TOP	;; DW_AT_type
                              5438  	;; entry 42
00000230                      5439  	.LDW14
00000230  07                  5440  		DC	0x7	;; abbrev_code
00000231  04                  5441  		DC	0x4	;; DW_AT_byte_size
                              5442  	;; entry 43
00000232  08                  5443  		DC	0x8	;; abbrev_code
00000233  6C6F7700            5444  		DC	"low",0x0	;; DW_AT_name
                              5445  				;; DW_AT_data_member_location
00000237  02                  5446  		DC	0x2	;;   size of loc_exp
00000238  23                  5447  		DC	0x23	;;   DW_OP_plus_uconst
00000239  00                  5448  		DC	0x0	;;     operand
0000023a  00000000          + 5449  		DD	.LDW2-.LI_TOP	;; DW_AT_type
                              5450  	;; entry 44
0000023e  08                  5451  		DC	0x8	;; abbrev_code
0000023f  6869676800          5452  		DC	"high",0x0	;; DW_AT_name
                              5453  				;; DW_AT_data_member_location
00000244  02                  5454  		DC	0x2	;;   size of loc_exp
00000245  23                  5455  		DC	0x23	;;   DW_OP_plus_uconst
00000246  02                  5456  		DC	0x2	;;     operand
00000247  00000000          + 5457  		DD	.LDW2-.LI_TOP	;; DW_AT_type
                              5458  	;; NULL ENTRY 45
0000024b  00                  5459  		DC	0x0
                              5460  	;; entry 46
0000024c                      5461  	.LDW15
0000024c  07                  5462  		DC	0x7	;; abbrev_code
0000024d  04                  5463  		DC	0x4	;; DW_AT_byte_size
                              5464  	;; entry 47
0000024e  08                  5465  		DC	0x8	;; abbrev_code
0000024f  4C4C00              5466  		DC	"LL",0x0	;; DW_AT_name
                              5467  				;; DW_AT_data_member_location
00000252  02                  5468  		DC	0x2	;;   size of loc_exp
00000253  23                  5469  		DC	0x23	;;   DW_OP_plus_uconst
00000254  00                  5470  		DC	0x0	;;     operand
00000255  00000000          + 5471  		DD	.LDW1-.LI_TOP	;; DW_AT_type
                              5472  	;; entry 48
00000259  08                  5473  		DC	0x8	;; abbrev_code
0000025a  4C4800              5474  		DC	"LH",0x0	;; DW_AT_name
                              5475  				;; DW_AT_data_member_location
0000025d  02                  5476  		DC	0x2	;;   size of loc_exp
0000025e  23                  5477  		DC	0x23	;;   DW_OP_plus_uconst
0000025f  01                  5478  		DC	0x1	;;     operand
00000260  00000000          + 5479  		DD	.LDW1-.LI_TOP	;; DW_AT_type
                              5480  	;; entry 49
00000264  08                  5481  		DC	0x8	;; abbrev_code
00000265  484C00              5482  		DC	"HL",0x0	;; DW_AT_name
                              5483  				;; DW_AT_data_member_location
00000268  02                  5484  		DC	0x2	;;   size of loc_exp
00000269  23                  5485  		DC	0x23	;;   DW_OP_plus_uconst
0000026a  02                  5486  		DC	0x2	;;     operand
0000026b  00000000          + 5487  		DD	.LDW1-.LI_TOP	;; DW_AT_type
                              5488  	;; entry 50
0000026f  08                  5489  		DC	0x8	;; abbrev_code
00000270  484800              5490  		DC	"HH",0x0	;; DW_AT_name
                              5491  				;; DW_AT_data_member_location
00000273  02                  5492  		DC	0x2	;;   size of loc_exp
00000274  23                  5493  		DC	0x23	;;   DW_OP_plus_uconst
00000275  03                  5494  		DC	0x3	;;     operand
00000276  00000000          + 5495  		DD	.LDW1-.LI_TOP	;; DW_AT_type
                              5496  	;; NULL ENTRY 51
0000027a  00                  5497  		DC	0x0
                              5498  	;; entry 52
0000027b                      5499  	.LDW16
0000027b  07                  5500  		DC	0x7	;; abbrev_code
0000027c  04                  5501  		DC	0x4	;; DW_AT_byte_size
                              5502  	;; entry 53
0000027d  08                  5503  		DC	0x8	;; abbrev_code
0000027e  6C6F7700            5504  		DC	"low",0x0	;; DW_AT_name
                              5505  				;; DW_AT_data_member_location
00000282  02                  5506  		DC	0x2	;;   size of loc_exp
00000283  23                  5507  		DC	0x23	;;   DW_OP_plus_uconst
00000284  00                  5508  		DC	0x0	;;     operand
00000285  00000000          + 5509  		DD	.LDW6-.LI_TOP	;; DW_AT_type
                              5510  	;; entry 54
00000289  08                  5511  		DC	0x8	;; abbrev_code
0000028a  6869676800          5512  		DC	"high",0x0	;; DW_AT_name
                              5513  				;; DW_AT_data_member_location
0000028f  02                  5514  		DC	0x2	;;   size of loc_exp
00000290  23                  5515  		DC	0x23	;;   DW_OP_plus_uconst
00000291  02                  5516  		DC	0x2	;;     operand
00000292  00000000          + 5517  		DD	.LDW6-.LI_TOP	;; DW_AT_type
                              5518  	;; NULL ENTRY 55
00000296  00                  5519  		DC	0x0
                              5520  	;; entry 56
00000297                      5521  	.LDW17
00000297  07                  5522  		DC	0x7	;; abbrev_code
00000298  04                  5523  		DC	0x4	;; DW_AT_byte_size
                              5524  	;; entry 57
00000299  08                  5525  		DC	0x8	;; abbrev_code
0000029a  4C4C00              5526  		DC	"LL",0x0	;; DW_AT_name
                              5527  				;; DW_AT_data_member_location
0000029d  02                  5528  		DC	0x2	;;   size of loc_exp
0000029e  23                  5529  		DC	0x23	;;   DW_OP_plus_uconst
0000029f  00                  5530  		DC	0x0	;;     operand
000002a0  00000000          + 5531  		DD	.LDW5-.LI_TOP	;; DW_AT_type
                              5532  	;; entry 58
000002a4  08                  5533  		DC	0x8	;; abbrev_code
000002a5  4C4800              5534  		DC	"LH",0x0	;; DW_AT_name
                              5535  				;; DW_AT_data_member_location
000002a8  02                  5536  		DC	0x2	;;   size of loc_exp
000002a9  23                  5537  		DC	0x23	;;   DW_OP_plus_uconst
000002aa  01                  5538  		DC	0x1	;;     operand
000002ab  00000000          + 5539  		DD	.LDW5-.LI_TOP	;; DW_AT_type
                              5540  	;; entry 59
000002af  08                  5541  		DC	0x8	;; abbrev_code
000002b0  484C00              5542  		DC	"HL",0x0	;; DW_AT_name
                              5543  				;; DW_AT_data_member_location
000002b3  02                  5544  		DC	0x2	;;   size of loc_exp
000002b4  23                  5545  		DC	0x23	;;   DW_OP_plus_uconst
000002b5  02                  5546  		DC	0x2	;;     operand
000002b6  00000000          + 5547  		DD	.LDW5-.LI_TOP	;; DW_AT_type
                              5548  	;; entry 60
000002ba  08                  5549  		DC	0x8	;; abbrev_code
000002bb  484800              5550  		DC	"HH",0x0	;; DW_AT_name
                              5551  				;; DW_AT_data_member_location
000002be  02                  5552  		DC	0x2	;;   size of loc_exp
000002bf  23                  5553  		DC	0x23	;;   DW_OP_plus_uconst
000002c0  03                  5554  		DC	0x3	;;     operand
000002c1  00000000          + 5555  		DD	.LDW5-.LI_TOP	;; DW_AT_type
                              5556  	;; NULL ENTRY 61
000002c5  00                  5557  		DC	0x0
                              5558  	;; entry 62
000002c6                      5559  	.LDW18
000002c6  09                  5560  		DC	0x9	;; abbrev_code
000002c7  04                  5561  		DC	0x4	;; DW_AT_byte_size
                              5562  	;; entry 63
000002c8  08                  5563  		DC	0x8	;; abbrev_code
000002c9  6C776F726400        5564  		DC	"lword",0x0	;; DW_AT_name
                              5565  				;; DW_AT_data_member_location
000002cf  02                  5566  		DC	0x2	;;   size of loc_exp
000002d0  23                  5567  		DC	0x23	;;   DW_OP_plus_uconst
000002d1  00                  5568  		DC	0x0	;;     operand
000002d2  00000000          + 5569  		DD	.LDW3-.LI_TOP	;; DW_AT_type
                              5570  	;; entry 64
000002d6  08                  5571  		DC	0x8	;; abbrev_code
000002d7  776F726400          5572  		DC	"word",0x0	;; DW_AT_name
                              5573  				;; DW_AT_data_member_location
000002dc  02                  5574  		DC	0x2	;;   size of loc_exp
000002dd  23                  5575  		DC	0x23	;;   DW_OP_plus_uconst
000002de  00                  5576  		DC	0x0	;;     operand
000002df  00000000          + 5577  		DD	.LDW14-.LI_TOP	;; DW_AT_type
                              5578  	;; entry 65
000002e3  08                  5579  		DC	0x8	;; abbrev_code
000002e4  6279746500          5580  		DC	"byte",0x0	;; DW_AT_name
                              5581  				;; DW_AT_data_member_location
000002e9  02                  5582  		DC	0x2	;;   size of loc_exp
000002ea  23                  5583  		DC	0x23	;;   DW_OP_plus_uconst
000002eb  00                  5584  		DC	0x0	;;     operand
000002ec  00000000          + 5585  		DD	.LDW15-.LI_TOP	;; DW_AT_type
                              5586  	;; entry 66
000002f0  08                  5587  		DC	0x8	;; abbrev_code
000002f1  756C776F726400      5588  		DC	"ulword",0x0	;; DW_AT_name
                              5589  				;; DW_AT_data_member_location
000002f8  02                  5590  		DC	0x2	;;   size of loc_exp
000002f9  23                  5591  		DC	0x23	;;   DW_OP_plus_uconst
000002fa  00                  5592  		DC	0x0	;;     operand
000002fb  00000000          + 5593  		DD	.LDW7-.LI_TOP	;; DW_AT_type
                              5594  	;; entry 67
000002ff  08                  5595  		DC	0x8	;; abbrev_code
00000300  75776F726400        5596  		DC	"uword",0x0	;; DW_AT_name
                              5597  				;; DW_AT_data_member_location
00000306  02                  5598  		DC	0x2	;;   size of loc_exp
00000307  23                  5599  		DC	0x23	;;   DW_OP_plus_uconst
00000308  00                  5600  		DC	0x0	;;     operand
00000309  00000000          + 5601  		DD	.LDW16-.LI_TOP	;; DW_AT_type
                              5602  	;; entry 68
0000030d  08                  5603  		DC	0x8	;; abbrev_code
0000030e  756279746500        5604  		DC	"ubyte",0x0	;; DW_AT_name
                              5605  				;; DW_AT_data_member_location
00000314  02                  5606  		DC	0x2	;;   size of loc_exp
00000315  23                  5607  		DC	0x23	;;   DW_OP_plus_uconst
00000316  00                  5608  		DC	0x0	;;     operand
00000317  00000000          + 5609  		DD	.LDW17-.LI_TOP	;; DW_AT_type
                              5610  	;; NULL ENTRY 69
0000031b  00                  5611  		DC	0x0
                              5612  	;; entry 70
0000031c  06                  5613  		DC	0x6	;; abbrev_code
0000031d  6C776F72645F7479    5614  		DC	"lword_type",0x0	;; DW_AT_name
00000325  706500              5614  	
00000328  00000000          + 5615  		DD	.LDW18-.LI_TOP	;; DW_AT_type
                              5616  	;; entry 71
0000032c                      5617  	.LDW19
0000032c  07                  5618  		DC	0x7	;; abbrev_code
0000032d  04                  5619  		DC	0x4	;; DW_AT_byte_size
                              5620  	;; entry 72
0000032e  08                  5621  		DC	0x8	;; abbrev_code
0000032f  6C6F7700            5622  		DC	"low",0x0	;; DW_AT_name
                              5623  				;; DW_AT_data_member_location
00000333  02                  5624  		DC	0x2	;;   size of loc_exp
00000334  23                  5625  		DC	0x23	;;   DW_OP_plus_uconst
00000335  00                  5626  		DC	0x0	;;     operand
00000336  00000000          + 5627  		DD	.LDW1-.LI_TOP	;; DW_AT_type
                              5628  	;; entry 73
0000033a  08                  5629  		DC	0x8	;; abbrev_code
0000033b  6869676800          5630  		DC	"high",0x0	;; DW_AT_name
                              5631  				;; DW_AT_data_member_location
00000340  02                  5632  		DC	0x2	;;   size of loc_exp
00000341  23                  5633  		DC	0x23	;;   DW_OP_plus_uconst
00000342  01                  5634  		DC	0x1	;;     operand
00000343  00000000          + 5635  		DD	.LDW1-.LI_TOP	;; DW_AT_type
                              5636  	;; NULL ENTRY 74
00000347  00                  5637  		DC	0x0
                              5638  	;; entry 75
00000348                      5639  	.LDW20
00000348  07                  5640  		DC	0x7	;; abbrev_code
00000349  04                  5641  		DC	0x4	;; DW_AT_byte_size
                              5642  	;; entry 76
0000034a  08                  5643  		DC	0x8	;; abbrev_code
0000034b  6C6F7700            5644  		DC	"low",0x0	;; DW_AT_name
                              5645  				;; DW_AT_data_member_location
0000034f  02                  5646  		DC	0x2	;;   size of loc_exp
00000350  23                  5647  		DC	0x23	;;   DW_OP_plus_uconst
00000351  00                  5648  		DC	0x0	;;     operand
00000352  00000000          + 5649  		DD	.LDW5-.LI_TOP	;; DW_AT_type
                              5650  	;; entry 77
00000356  08                  5651  		DC	0x8	;; abbrev_code
00000357  6869676800          5652  		DC	"high",0x0	;; DW_AT_name
                              5653  				;; DW_AT_data_member_location
0000035c  02                  5654  		DC	0x2	;;   size of loc_exp
0000035d  23                  5655  		DC	0x23	;;   DW_OP_plus_uconst
0000035e  01                  5656  		DC	0x1	;;     operand
0000035f  00000000          + 5657  		DD	.LDW5-.LI_TOP	;; DW_AT_type
                              5658  	;; NULL ENTRY 78
00000363  00                  5659  		DC	0x0
                              5660  	;; entry 79
00000364                      5661  	.LDW21
00000364  09                  5662  		DC	0x9	;; abbrev_code
00000365  04                  5663  		DC	0x4	;; DW_AT_byte_size
                              5664  	;; entry 80
00000366  08                  5665  		DC	0x8	;; abbrev_code
00000367  776F726400          5666  		DC	"word",0x0	;; DW_AT_name
                              5667  				;; DW_AT_data_member_location
0000036c  02                  5668  		DC	0x2	;;   size of loc_exp
0000036d  23                  5669  		DC	0x23	;;   DW_OP_plus_uconst
0000036e  00                  5670  		DC	0x0	;;     operand
0000036f  00000000          + 5671  		DD	.LDW2-.LI_TOP	;; DW_AT_type
                              5672  	;; entry 81
00000373  08                  5673  		DC	0x8	;; abbrev_code
00000374  6279746500          5674  		DC	"byte",0x0	;; DW_AT_name
                              5675  				;; DW_AT_data_member_location
00000379  02                  5676  		DC	0x2	;;   size of loc_exp
0000037a  23                  5677  		DC	0x23	;;   DW_OP_plus_uconst
0000037b  00                  5678  		DC	0x0	;;     operand
0000037c  00000000          + 5679  		DD	.LDW19-.LI_TOP	;; DW_AT_type
                              5680  	;; entry 82
00000380  08                  5681  		DC	0x8	;; abbrev_code
00000381  75776F726400        5682  		DC	"uword",0x0	;; DW_AT_name
                              5683  				;; DW_AT_data_member_location
00000387  02                  5684  		DC	0x2	;;   size of loc_exp
00000388  23                  5685  		DC	0x23	;;   DW_OP_plus_uconst
00000389  00                  5686  		DC	0x0	;;     operand
0000038a  00000000          + 5687  		DD	.LDW6-.LI_TOP	;; DW_AT_type
                              5688  	;; entry 83
0000038e  08                  5689  		DC	0x8	;; abbrev_code
0000038f  756279746500        5690  		DC	"ubyte",0x0	;; DW_AT_name
                              5691  				;; DW_AT_data_member_location
00000395  02                  5692  		DC	0x2	;;   size of loc_exp
00000396  23                  5693  		DC	0x23	;;   DW_OP_plus_uconst
00000397  00                  5694  		DC	0x0	;;     operand
00000398  00000000          + 5695  		DD	.LDW20-.LI_TOP	;; DW_AT_type
                              5696  	;; NULL ENTRY 84
0000039c  00                  5697  		DC	0x0
                              5698  	;; entry 85
0000039d  06                  5699  		DC	0x6	;; abbrev_code
0000039e  776F72645F747970    5700  		DC	"word_type",0x0	;; DW_AT_name
000003a6  6500                5700  	
000003a8  00000000          + 5701  		DD	.LDW21-.LI_TOP	;; DW_AT_type
                              5702  	;; entry 86
000003ac                      5703  	.LDW22
000003ac  07                  5704  		DC	0x7	;; abbrev_code
000003ad  04                  5705  		DC	0x4	;; DW_AT_byte_size
                              5706  	;; entry 87
000003ae  0A                  5707  		DC	0xa	;; abbrev_code
000003af  6269743000          5708  		DC	"bit0",0x0	;; DW_AT_name
000003b4  02                  5709  		DC	0x2	;; DW_AT_byte_size
000003b5  0F                  5710  		DC	0xf	;; DW_AT_bit_offset
000003b6  01                  5711  		DC	0x1	;; DW_AT_bit_size
                              5712  				;; DW_AT_data_member_location
000003b7  02                  5713  		DC	0x2	;;   size of loc_exp
000003b8  23                  5714  		DC	0x23	;;   DW_OP_plus_uconst
000003b9  00                  5715  		DC	0x0	;;     operand
000003ba  00000000          + 5716  		DD	.LDW6-.LI_TOP	;; DW_AT_type
                              5717  	;; entry 88
000003be  0A                  5718  		DC	0xa	;; abbrev_code
000003bf  6269743100          5719  		DC	"bit1",0x0	;; DW_AT_name
000003c4  02                  5720  		DC	0x2	;; DW_AT_byte_size
000003c5  0E                  5721  		DC	0xe	;; DW_AT_bit_offset
000003c6  01                  5722  		DC	0x1	;; DW_AT_bit_size
                              5723  				;; DW_AT_data_member_location
000003c7  02                  5724  		DC	0x2	;;   size of loc_exp
000003c8  23                  5725  		DC	0x23	;;   DW_OP_plus_uconst
000003c9  00                  5726  		DC	0x0	;;     operand
000003ca  00000000          + 5727  		DD	.LDW6-.LI_TOP	;; DW_AT_type
                              5728  	;; entry 89
000003ce  0A                  5729  		DC	0xa	;; abbrev_code
000003cf  6269743200          5730  		DC	"bit2",0x0	;; DW_AT_name
000003d4  02                  5731  		DC	0x2	;; DW_AT_byte_size
000003d5  0D                  5732  		DC	0xd	;; DW_AT_bit_offset
000003d6  01                  5733  		DC	0x1	;; DW_AT_bit_size
                              5734  				;; DW_AT_data_member_location
000003d7  02                  5735  		DC	0x2	;;   size of loc_exp
000003d8  23                  5736  		DC	0x23	;;   DW_OP_plus_uconst
000003d9  00                  5737  		DC	0x0	;;     operand
000003da  00000000          + 5738  		DD	.LDW6-.LI_TOP	;; DW_AT_type
                              5739  	;; entry 90
000003de  0A                  5740  		DC	0xa	;; abbrev_code
000003df  6269743300          5741  		DC	"bit3",0x0	;; DW_AT_name
000003e4  02                  5742  		DC	0x2	;; DW_AT_byte_size
000003e5  0C                  5743  		DC	0xc	;; DW_AT_bit_offset
000003e6  01                  5744  		DC	0x1	;; DW_AT_bit_size
                              5745  				;; DW_AT_data_member_location
000003e7  02                  5746  		DC	0x2	;;   size of loc_exp
000003e8  23                  5747  		DC	0x23	;;   DW_OP_plus_uconst
000003e9  00                  5748  		DC	0x0	;;     operand
000003ea  00000000          + 5749  		DD	.LDW6-.LI_TOP	;; DW_AT_type
                              5750  	;; entry 91
000003ee  0A                  5751  		DC	0xa	;; abbrev_code
000003ef  6269743400          5752  		DC	"bit4",0x0	;; DW_AT_name
000003f4  02                  5753  		DC	0x2	;; DW_AT_byte_size
000003f5  0B                  5754  		DC	0xb	;; DW_AT_bit_offset
000003f6  01                  5755  		DC	0x1	;; DW_AT_bit_size
                              5756  				;; DW_AT_data_member_location
000003f7  02                  5757  		DC	0x2	;;   size of loc_exp
000003f8  23                  5758  		DC	0x23	;;   DW_OP_plus_uconst
000003f9  00                  5759  		DC	0x0	;;     operand
000003fa  00000000          + 5760  		DD	.LDW6-.LI_TOP	;; DW_AT_type
                              5761  	;; entry 92
000003fe  0A                  5762  		DC	0xa	;; abbrev_code
000003ff  6269743500          5763  		DC	"bit5",0x0	;; DW_AT_name
00000404  02                  5764  		DC	0x2	;; DW_AT_byte_size
00000405  0A                  5765  		DC	0xa	;; DW_AT_bit_offset
00000406  01                  5766  		DC	0x1	;; DW_AT_bit_size
                              5767  				;; DW_AT_data_member_location
00000407  02                  5768  		DC	0x2	;;   size of loc_exp
00000408  23                  5769  		DC	0x23	;;   DW_OP_plus_uconst
00000409  00                  5770  		DC	0x0	;;     operand
0000040a  00000000          + 5771  		DD	.LDW6-.LI_TOP	;; DW_AT_type
                              5772  	;; entry 93
0000040e  0A                  5773  		DC	0xa	;; abbrev_code
0000040f  6269743600          5774  		DC	"bit6",0x0	;; DW_AT_name
00000414  02                  5775  		DC	0x2	;; DW_AT_byte_size
00000415  09                  5776  		DC	0x9	;; DW_AT_bit_offset
00000416  01                  5777  		DC	0x1	;; DW_AT_bit_size
                              5778  				;; DW_AT_data_member_location
00000417  02                  5779  		DC	0x2	;;   size of loc_exp
00000418  23                  5780  		DC	0x23	;;   DW_OP_plus_uconst
00000419  00                  5781  		DC	0x0	;;     operand
0000041a  00000000          + 5782  		DD	.LDW6-.LI_TOP	;; DW_AT_type
                              5783  	;; entry 94
0000041e  0A                  5784  		DC	0xa	;; abbrev_code
0000041f  6269743700          5785  		DC	"bit7",0x0	;; DW_AT_name
00000424  02                  5786  		DC	0x2	;; DW_AT_byte_size
00000425  08                  5787  		DC	0x8	;; DW_AT_bit_offset
00000426  01                  5788  		DC	0x1	;; DW_AT_bit_size
                              5789  				;; DW_AT_data_member_location
00000427  02                  5790  		DC	0x2	;;   size of loc_exp
00000428  23                  5791  		DC	0x23	;;   DW_OP_plus_uconst
00000429  00                  5792  		DC	0x0	;;     operand
0000042a  00000000          + 5793  		DD	.LDW6-.LI_TOP	;; DW_AT_type
                              5794  	;; entry 95
0000042e  0A                  5795  		DC	0xa	;; abbrev_code
0000042f  6269743800          5796  		DC	"bit8",0x0	;; DW_AT_name
00000434  02                  5797  		DC	0x2	;; DW_AT_byte_size
00000435  07                  5798  		DC	0x7	;; DW_AT_bit_offset
00000436  01                  5799  		DC	0x1	;; DW_AT_bit_size
                              5800  				;; DW_AT_data_member_location
00000437  02                  5801  		DC	0x2	;;   size of loc_exp
00000438  23                  5802  		DC	0x23	;;   DW_OP_plus_uconst
00000439  00                  5803  		DC	0x0	;;     operand
0000043a  00000000          + 5804  		DD	.LDW6-.LI_TOP	;; DW_AT_type
                              5805  	;; entry 96
0000043e  0A                  5806  		DC	0xa	;; abbrev_code
0000043f  6269743900          5807  		DC	"bit9",0x0	;; DW_AT_name
00000444  02                  5808  		DC	0x2	;; DW_AT_byte_size
00000445  06                  5809  		DC	0x6	;; DW_AT_bit_offset
00000446  01                  5810  		DC	0x1	;; DW_AT_bit_size
                              5811  				;; DW_AT_data_member_location
00000447  02                  5812  		DC	0x2	;;   size of loc_exp
00000448  23                  5813  		DC	0x23	;;   DW_OP_plus_uconst
00000449  00                  5814  		DC	0x0	;;     operand
0000044a  00000000          + 5815  		DD	.LDW6-.LI_TOP	;; DW_AT_type
                              5816  	;; entry 97
0000044e  0A                  5817  		DC	0xa	;; abbrev_code
0000044f  626974313000        5818  		DC	"bit10",0x0	;; DW_AT_name
00000455  02                  5819  		DC	0x2	;; DW_AT_byte_size
00000456  05                  5820  		DC	0x5	;; DW_AT_bit_offset
00000457  01                  5821  		DC	0x1	;; DW_AT_bit_size
                              5822  				;; DW_AT_data_member_location
00000458  02                  5823  		DC	0x2	;;   size of loc_exp
00000459  23                  5824  		DC	0x23	;;   DW_OP_plus_uconst
0000045a  00                  5825  		DC	0x0	;;     operand
0000045b  00000000          + 5826  		DD	.LDW6-.LI_TOP	;; DW_AT_type
                              5827  	;; entry 98
0000045f  0A                  5828  		DC	0xa	;; abbrev_code
00000460  626974313100        5829  		DC	"bit11",0x0	;; DW_AT_name
00000466  02                  5830  		DC	0x2	;; DW_AT_byte_size
00000467  04                  5831  		DC	0x4	;; DW_AT_bit_offset
00000468  01                  5832  		DC	0x1	;; DW_AT_bit_size
                              5833  				;; DW_AT_data_member_location
00000469  02                  5834  		DC	0x2	;;   size of loc_exp
0000046a  23                  5835  		DC	0x23	;;   DW_OP_plus_uconst
0000046b  00                  5836  		DC	0x0	;;     operand
0000046c  00000000          + 5837  		DD	.LDW6-.LI_TOP	;; DW_AT_type
                              5838  	;; entry 99
00000470  0A                  5839  		DC	0xa	;; abbrev_code
00000471  626974313200        5840  		DC	"bit12",0x0	;; DW_AT_name
00000477  02                  5841  		DC	0x2	;; DW_AT_byte_size
00000478  03                  5842  		DC	0x3	;; DW_AT_bit_offset
00000479  01                  5843  		DC	0x1	;; DW_AT_bit_size
                              5844  				;; DW_AT_data_member_location
0000047a  02                  5845  		DC	0x2	;;   size of loc_exp
0000047b  23                  5846  		DC	0x23	;;   DW_OP_plus_uconst
0000047c  00                  5847  		DC	0x0	;;     operand
0000047d  00000000          + 5848  		DD	.LDW6-.LI_TOP	;; DW_AT_type
                              5849  	;; entry 100
00000481  0A                  5850  		DC	0xa	;; abbrev_code
00000482  626974313300        5851  		DC	"bit13",0x0	;; DW_AT_name
00000488  02                  5852  		DC	0x2	;; DW_AT_byte_size
00000489  02                  5853  		DC	0x2	;; DW_AT_bit_offset
0000048a  01                  5854  		DC	0x1	;; DW_AT_bit_size
                              5855  				;; DW_AT_data_member_location
0000048b  02                  5856  		DC	0x2	;;   size of loc_exp
0000048c  23                  5857  		DC	0x23	;;   DW_OP_plus_uconst
0000048d  00                  5858  		DC	0x0	;;     operand
0000048e  00000000          + 5859  		DD	.LDW6-.LI_TOP	;; DW_AT_type
                              5860  	;; entry 101
00000492  0A                  5861  		DC	0xa	;; abbrev_code
00000493  626974313400        5862  		DC	"bit14",0x0	;; DW_AT_name
00000499  02                  5863  		DC	0x2	;; DW_AT_byte_size
0000049a  01                  5864  		DC	0x1	;; DW_AT_bit_offset
0000049b  01                  5865  		DC	0x1	;; DW_AT_bit_size
                              5866  				;; DW_AT_data_member_location
0000049c  02                  5867  		DC	0x2	;;   size of loc_exp
0000049d  23                  5868  		DC	0x23	;;   DW_OP_plus_uconst
0000049e  00                  5869  		DC	0x0	;;     operand
0000049f  00000000          + 5870  		DD	.LDW6-.LI_TOP	;; DW_AT_type
                              5871  	;; entry 102
000004a3  0A                  5872  		DC	0xa	;; abbrev_code
000004a4  626974313500        5873  		DC	"bit15",0x0	;; DW_AT_name
000004aa  02                  5874  		DC	0x2	;; DW_AT_byte_size
000004ab  00                  5875  		DC	0x0	;; DW_AT_bit_offset
000004ac  01                  5876  		DC	0x1	;; DW_AT_bit_size
                              5877  				;; DW_AT_data_member_location
000004ad  02                  5878  		DC	0x2	;;   size of loc_exp
000004ae  23                  5879  		DC	0x23	;;   DW_OP_plus_uconst
000004af  00                  5880  		DC	0x0	;;     operand
000004b0  00000000          + 5881  		DD	.LDW6-.LI_TOP	;; DW_AT_type
                              5882  	;; NULL ENTRY 103
000004b4  00                  5883  		DC	0x0
                              5884  	;; entry 104
000004b5                      5885  	.LDW23
000004b5  09                  5886  		DC	0x9	;; abbrev_code
000004b6  04                  5887  		DC	0x4	;; DW_AT_byte_size
                              5888  	;; entry 105
000004b7  08                  5889  		DC	0x8	;; abbrev_code
000004b8  75776F726400        5890  		DC	"uword",0x0	;; DW_AT_name
                              5891  				;; DW_AT_data_member_location
000004be  02                  5892  		DC	0x2	;;   size of loc_exp
000004bf  23                  5893  		DC	0x23	;;   DW_OP_plus_uconst
000004c0  00                  5894  		DC	0x0	;;     operand
000004c1  00000000          + 5895  		DD	.LDW6-.LI_TOP	;; DW_AT_type
                              5896  	;; entry 106
000004c5  08                  5897  		DC	0x8	;; abbrev_code
000004c6  6269747300          5898  		DC	"bits",0x0	;; DW_AT_name
                              5899  				;; DW_AT_data_member_location
000004cb  02                  5900  		DC	0x2	;;   size of loc_exp
000004cc  23                  5901  		DC	0x23	;;   DW_OP_plus_uconst
000004cd  00                  5902  		DC	0x0	;;     operand
000004ce  00000000          + 5903  		DD	.LDW22-.LI_TOP	;; DW_AT_type
                              5904  	;; NULL ENTRY 107
000004d2  00                  5905  		DC	0x0
                              5906  	;; entry 108
000004d3  06                  5907  		DC	0x6	;; abbrev_code
000004d4  666C61675F747970    5908  		DC	"flag_type",0x0	;; DW_AT_name
000004dc  6500                5908  	
000004de  00000000          + 5909  		DD	.LDW23-.LI_TOP	;; DW_AT_type
                              5910  	;; entry 109
000004e2                      5911  	.LDW24
000004e2  07                  5912  		DC	0x7	;; abbrev_code
000004e3  0C                  5913  		DC	0xc	;; DW_AT_byte_size
                              5914  	;; entry 110
000004e4  08                  5915  		DC	0x8	;; abbrev_code
000004e5  76616C756500        5916  		DC	"value",0x0	;; DW_AT_name
                              5917  				;; DW_AT_data_member_location
000004eb  02                  5918  		DC	0x2	;;   size of loc_exp
000004ec  23                  5919  		DC	0x23	;;   DW_OP_plus_uconst
000004ed  00                  5920  		DC	0x0	;;     operand
000004ee  00000000          + 5921  		DD	.LDW2-.LI_TOP	;; DW_AT_type
                              5922  	;; entry 111
000004f2  08                  5923  		DC	0x8	;; abbrev_code
000004f3  6D617800            5924  		DC	"max",0x0	;; DW_AT_name
                              5925  				;; DW_AT_data_member_location
000004f7  02                  5926  		DC	0x2	;;   size of loc_exp
000004f8  23                  5927  		DC	0x23	;;   DW_OP_plus_uconst
000004f9  02                  5928  		DC	0x2	;;     operand
000004fa  00000000          + 5929  		DD	.LDW2-.LI_TOP	;; DW_AT_type
                              5930  	;; entry 112
000004fe  08                  5931  		DC	0x8	;; abbrev_code
000004ff  6D696E00            5932  		DC	"min",0x0	;; DW_AT_name
                              5933  				;; DW_AT_data_member_location
00000503  02                  5934  		DC	0x2	;;   size of loc_exp
00000504  23                  5935  		DC	0x23	;;   DW_OP_plus_uconst
00000505  04                  5936  		DC	0x4	;;     operand
00000506  00000000          + 5937  		DD	.LDW2-.LI_TOP	;; DW_AT_type
                              5938  	;; entry 113
0000050a  08                  5939  		DC	0x8	;; abbrev_code
0000050b  6564697472617465    5940  		DC	"editrate",0x0	;; DW_AT_name
00000513  00                  5940  	
                              5941  				;; DW_AT_data_member_location
00000514  02                  5942  		DC	0x2	;;   size of loc_exp
00000515  23                  5943  		DC	0x23	;;   DW_OP_plus_uconst
00000516  06                  5944  		DC	0x6	;;     operand
00000517  00000000          + 5945  		DD	.LDW2-.LI_TOP	;; DW_AT_type
                              5946  	;; entry 114
0000051b  08                  5947  		DC	0x8	;; abbrev_code
0000051c  6469737072617465    5948  		DC	"disprate",0x0	;; DW_AT_name
00000524  00                  5948  	
                              5949  				;; DW_AT_data_member_location
00000525  02                  5950  		DC	0x2	;;   size of loc_exp
00000526  23                  5951  		DC	0x23	;;   DW_OP_plus_uconst
00000527  08                  5952  		DC	0x8	;;     operand
00000528  00000000          + 5953  		DD	.LDW1-.LI_TOP	;; DW_AT_type
                              5954  	;; NULL ENTRY 115
0000052c  00                  5955  		DC	0x0
                              5956  	;; entry 116
0000052d  06                  5957  		DC	0x6	;; abbrev_code
0000052e  706172615F737479    5958  		DC	"para_style",0x0	;; DW_AT_name
00000536  6C6500              5958  	
00000539  00000000          + 5959  		DD	.LDW24-.LI_TOP	;; DW_AT_type
                              5960  	;; entry 117
0000053d  0B                  5961  		DC	0xb	;; abbrev_code
                              5962  				;; DW_AT_location
0000053e  05                  5963  		DC	0x5	;;   size of loc_exp
0000053f  03                  5964  		DC	0x3	;;   DW_OP_addr
00000540  00000000          + 5965  		DD	_flg_SCI0	;;     operand
00000544  666C675F53434930    5966  		DC	"flg_SCI0",0x0	;; DW_AT_name
0000054c  00                  5966  	
0000054d  01                  5967  		DC	0x1	;; DW_AT_external
0000054e  00000000          + 5968  		DD	.LDW23-.LI_TOP	;; DW_AT_type
                              5969  	;; entry 118
00000552  0B                  5970  		DC	0xb	;; abbrev_code
                              5971  				;; DW_AT_location
00000553  05                  5972  		DC	0x5	;;   size of loc_exp
00000554  03                  5973  		DC	0x3	;;   DW_OP_addr
00000555  00000000          + 5974  		DD	_guc_SCI0_tx_buffer	;;     operand
00000559  6775635F53434930    5975  		DC	"guc_SCI0_tx_buffer",0x0	;; DW_AT_name
00000561  5F74785F62756666    5975  	
00000569  657200              5975  	
0000056c  01                  5976  		DC	0x1	;; DW_AT_external
0000056d  00000000          + 5977  		DD	.LDW25-.LI_TOP	;; DW_AT_type
                              5978  	;; entry 119
00000571  0B                  5979  		DC	0xb	;; abbrev_code
                              5980  				;; DW_AT_location
00000572  05                  5981  		DC	0x5	;;   size of loc_exp
00000573  03                  5982  		DC	0x3	;;   DW_OP_addr
00000574  00000000          + 5983  		DD	_guc_SCI0_rx_buffer	;;     operand
00000578  6775635F53434930    5984  		DC	"guc_SCI0_rx_buffer",0x0	;; DW_AT_name
00000580  5F72785F62756666    5984  	
00000588  657200              5984  	
0000058b  01                  5985  		DC	0x1	;; DW_AT_external
0000058c  00000000          + 5986  		DD	.LDW25-.LI_TOP	;; DW_AT_type
                              5987  	;; entry 120
00000590  0B                  5988  		DC	0xb	;; abbrev_code
                              5989  				;; DW_AT_location
00000591  05                  5990  		DC	0x5	;;   size of loc_exp
00000592  03                  5991  		DC	0x3	;;   DW_OP_addr
00000593  00000000          + 5992  		DD	_gus_SCI0_check_delaytimer	;;     operand
00000597  6775735F53434930    5993  		DC	"gus_SCI0_check_delaytimer",0x0	;; DW_AT_name
0000059f  5F636865636B5F64    5993  	
000005a7  656C617974696D65    5993  	
000005af  7200                5993  	
000005b1  01                  5994  		DC	0x1	;; DW_AT_external
000005b2  00000000          + 5995  		DD	.LDW6-.LI_TOP	;; DW_AT_type
                              5996  	;; entry 121
000005b6  0B                  5997  		DC	0xb	;; abbrev_code
                              5998  				;; DW_AT_location
000005b7  05                  5999  		DC	0x5	;;   size of loc_exp
000005b8  03                  6000  		DC	0x3	;;   DW_OP_addr
000005b9  00000000          + 6001  		DD	_gss_SCI0_init_delaytimer	;;     operand
000005bd  6773735F53434930    6002  		DC	"gss_SCI0_init_delaytimer",0x0	;; DW_AT_name
000005c5  5F696E69745F6465    6002  	
000005cd  6C617974696D6572    6002  	
000005d5  00                  6002  	
000005d6  01                  6003  		DC	0x1	;; DW_AT_external
000005d7  00000000          + 6004  		DD	.LDW2-.LI_TOP	;; DW_AT_type
                              6005  	;; entry 122
000005db  0B                  6006  		DC	0xb	;; abbrev_code
                              6007  				;; DW_AT_location
000005dc  05                  6008  		DC	0x5	;;   size of loc_exp
000005dd  03                  6009  		DC	0x3	;;   DW_OP_addr
000005de  00000000          + 6010  		DD	_guc_SCI0_tx_len	;;     operand
000005e2  6775635F53434930    6011  		DC	"guc_SCI0_tx_len",0x0	;; DW_AT_name
000005ea  5F74785F6C656E00    6011  	
000005f2  01                  6012  		DC	0x1	;; DW_AT_external
000005f3  00000000          + 6013  		DD	.LDW5-.LI_TOP	;; DW_AT_type
                              6014  	;; entry 123
000005f7  0B                  6015  		DC	0xb	;; abbrev_code
                              6016  				;; DW_AT_location
000005f8  05                  6017  		DC	0x5	;;   size of loc_exp
000005f9  03                  6018  		DC	0x3	;;   DW_OP_addr
000005fa  00000000          + 6019  		DD	_guc_SCI0_rx_len	;;     operand
000005fe  6775635F53434930    6020  		DC	"guc_SCI0_rx_len",0x0	;; DW_AT_name
00000606  5F72785F6C656E00    6020  	
0000060e  01                  6021  		DC	0x1	;; DW_AT_external
0000060f  00000000          + 6022  		DD	.LDW5-.LI_TOP	;; DW_AT_type
                              6023  	;; entry 124
00000613  0B                  6024  		DC	0xb	;; abbrev_code
                              6025  				;; DW_AT_location
00000614  05                  6026  		DC	0x5	;;   size of loc_exp
00000615  03                  6027  		DC	0x3	;;   DW_OP_addr
00000616  00000000          + 6028  		DD	_guc_SCI0_tx_point	;;     operand
0000061a  6775635F53434930    6029  		DC	"guc_SCI0_tx_point",0x0	;; DW_AT_name
00000622  5F74785F706F696E    6029  	
0000062a  7400                6029  	
0000062c  01                  6030  		DC	0x1	;; DW_AT_external
0000062d  00000000          + 6031  		DD	.LDW5-.LI_TOP	;; DW_AT_type
                              6032  	;; entry 125
00000631  0B                  6033  		DC	0xb	;; abbrev_code
                              6034  				;; DW_AT_location
00000632  05                  6035  		DC	0x5	;;   size of loc_exp
00000633  03                  6036  		DC	0x3	;;   DW_OP_addr
00000634  00000000          + 6037  		DD	_guc_SCI0_rx_point	;;     operand
00000638  6775635F53434930    6038  		DC	"guc_SCI0_rx_point",0x0	;; DW_AT_name
00000640  5F72785F706F696E    6038  	
00000648  7400                6038  	
0000064a  01                  6039  		DC	0x1	;; DW_AT_external
0000064b  00000000          + 6040  		DD	.LDW5-.LI_TOP	;; DW_AT_type
                              6041  	;; entry 126
0000064f  0B                  6042  		DC	0xb	;; abbrev_code
                              6043  				;; DW_AT_location
00000650  05                  6044  		DC	0x5	;;   size of loc_exp
00000651  03                  6045  		DC	0x3	;;   DW_OP_addr
00000652  00000000          + 6046  		DD	_gss_SCI0_tx_delaytimer	;;     operand
00000656  6773735F53434930    6047  		DC	"gss_SCI0_tx_delaytimer",0x0	;; DW_AT_name
0000065e  5F74785F64656C61    6047  	
00000666  7974696D657200      6047  	
0000066d  01                  6048  		DC	0x1	;; DW_AT_external
0000066e  00000000          + 6049  		DD	.LDW2-.LI_TOP	;; DW_AT_type
                              6050  	;; entry 127
00000672  0B                  6051  		DC	0xb	;; abbrev_code
                              6052  				;; DW_AT_location
00000673  05                  6053  		DC	0x5	;;   size of loc_exp
00000674  03                  6054  		DC	0x3	;;   DW_OP_addr
00000675  00000000          + 6055  		DD	_gss_SCI0_rx_delaytimer	;;     operand
00000679  6773735F53434930    6056  		DC	"gss_SCI0_rx_delaytimer",0x0	;; DW_AT_name
00000681  5F72785F64656C61    6056  	
00000689  7974696D657200      6056  	
00000690  01                  6057  		DC	0x1	;; DW_AT_external
00000691  00000000          + 6058  		DD	.LDW2-.LI_TOP	;; DW_AT_type
                              6059  	;; entry 128
00000695  0B                  6060  		DC	0xb	;; abbrev_code
                              6061  				;; DW_AT_location
00000696  05                  6062  		DC	0x5	;;   size of loc_exp
00000697  03                  6063  		DC	0x3	;;   DW_OP_addr
00000698  00000000          + 6064  		DD	_gss_SCI0_rx_end_delaytimer	;;     operand
0000069c  6773735F53434930    6065  		DC	"gss_SCI0_rx_end_delaytimer",0x0	;; DW_AT_name
000006a4  5F72785F656E645F    6065  	
000006ac  64656C617974696D    6065  	
000006b4  657200              6065  	
000006b7  01                  6066  		DC	0x1	;; DW_AT_external
000006b8  00000000          + 6067  		DD	.LDW2-.LI_TOP	;; DW_AT_type
                              6068  	;; entry 129
000006bc  0B                  6069  		DC	0xb	;; abbrev_code
                              6070  				;; DW_AT_location
000006bd  05                  6071  		DC	0x5	;;   size of loc_exp
000006be  03                  6072  		DC	0x3	;;   DW_OP_addr
000006bf  00000000          + 6073  		DD	_gss_SCI0_fault_delaytimer	;;     operand
000006c3  6773735F53434930    6074  		DC	"gss_SCI0_fault_delaytimer",0x0	;; DW_AT_name
000006cb  5F6661756C745F64    6074  	
000006d3  656C617974696D65    6074  	
000006db  7200                6074  	
000006dd  01                  6075  		DC	0x1	;; DW_AT_external
000006de  00000000          + 6076  		DD	.LDW2-.LI_TOP	;; DW_AT_type
                              6077  	;; entry 130
000006e2  0B                  6078  		DC	0xb	;; abbrev_code
                              6079  				;; DW_AT_location
000006e3  05                  6080  		DC	0x5	;;   size of loc_exp
000006e4  03                  6081  		DC	0x3	;;   DW_OP_addr
000006e5  00000000          + 6082  		DD	_gss_trip_clear_cnt	;;     operand
000006e9  6773735F74726970    6083  		DC	"gss_trip_clear_cnt",0x0	;; DW_AT_name
000006f1  5F636C6561725F63    6083  	
000006f9  6E7400              6083  	
000006fc  01                  6084  		DC	0x1	;; DW_AT_external
000006fd  00000000          + 6085  		DD	.LDW2-.LI_TOP	;; DW_AT_type
                              6086  	;; entry 131
00000701  0B                  6087  		DC	0xb	;; abbrev_code
                              6088  				;; DW_AT_location
00000702  05                  6089  		DC	0x5	;;   size of loc_exp
00000703  03                  6090  		DC	0x3	;;   DW_OP_addr
00000704  00000000          + 6091  		DD	_gus_host_speed_set	;;     operand
00000708  6775735F686F7374    6092  		DC	"gus_host_speed_set",0x0	;; DW_AT_name
00000710  5F73706565645F73    6092  	
00000718  657400              6092  	
0000071b  01                  6093  		DC	0x1	;; DW_AT_external
0000071c  00000000          + 6094  		DD	.LDW6-.LI_TOP	;; DW_AT_type
                              6095  	;; entry 132
00000720  0B                  6096  		DC	0xb	;; abbrev_code
                              6097  				;; DW_AT_location
00000721  05                  6098  		DC	0x5	;;   size of loc_exp
00000722  03                  6099  		DC	0x3	;;   DW_OP_addr
00000723  00000000          + 6100  		DD	_gus_host_setfreq	;;     operand
00000727  6775735F686F7374    6101  		DC	"gus_host_setfreq",0x0	;; DW_AT_name
0000072f  5F73657466726571    6101  	
00000737  00                  6101  	
00000738  01                  6102  		DC	0x1	;; DW_AT_external
00000739  00000000          + 6103  		DD	.LDW6-.LI_TOP	;; DW_AT_type
                              6104  	;; entry 133
0000073d  0B                  6105  		DC	0xb	;; abbrev_code
                              6106  				;; DW_AT_location
0000073e  05                  6107  		DC	0x5	;;   size of loc_exp
0000073f  03                  6108  		DC	0x3	;;   DW_OP_addr
00000740  00000000          + 6109  		DD	_guc_comm_address	;;     operand
00000744  6775635F636F6D6D    6110  		DC	"guc_comm_address",0x0	;; DW_AT_name
0000074c  5F61646472657373    6110  	
00000754  00                  6110  	
00000755  01                  6111  		DC	0x1	;; DW_AT_external
00000756  00000000          + 6112  		DD	.LDW5-.LI_TOP	;; DW_AT_type
                              6113  	;; entry 134
0000075a  0B                  6114  		DC	0xb	;; abbrev_code
                              6115  				;; DW_AT_location
0000075b  05                  6116  		DC	0x5	;;   size of loc_exp
0000075c  03                  6117  		DC	0x3	;;   DW_OP_addr
0000075d  00000000          + 6118  		DD	_guc_motor_ID_error_cnt	;;     operand
00000761  6775635F6D6F746F    6119  		DC	"guc_motor_ID_error_cnt",0x0	;; DW_AT_name
00000769  725F49445F657272    6119  	
00000771  6F725F636E7400      6119  	
00000778  01                  6120  		DC	0x1	;; DW_AT_external
00000779  00000000          + 6121  		DD	.LDW5-.LI_TOP	;; DW_AT_type
                              6122  	;; entry 135
0000077d  0B                  6123  		DC	0xb	;; abbrev_code
                              6124  				;; DW_AT_location
0000077e  05                  6125  		DC	0x5	;;   size of loc_exp
0000077f  03                  6126  		DC	0x3	;;   DW_OP_addr
00000780  00000000          + 6127  		DD	_guc_SCI0_type_cnt	;;     operand
00000784  6775635F53434930    6128  		DC	"guc_SCI0_type_cnt",0x0	;; DW_AT_name
0000078c  5F747970655F636E    6128  	
00000794  7400                6128  	
00000796  01                  6129  		DC	0x1	;; DW_AT_external
00000797  00000000          + 6130  		DD	.LDW5-.LI_TOP	;; DW_AT_type
                              6131  	;; entry 136
0000079b  0B                  6132  		DC	0xb	;; abbrev_code
                              6133  				;; DW_AT_location
0000079c  05                  6134  		DC	0x5	;;   size of loc_exp
0000079d  03                  6135  		DC	0x3	;;   DW_OP_addr
0000079e  00000000          + 6136  		DD	_guc_SCI0_trip_code	;;     operand
000007a2  6775635F53434930    6137  		DC	"guc_SCI0_trip_code",0x0	;; DW_AT_name
000007aa  5F747269705F636F    6137  	
000007b2  646500              6137  	
000007b5  01                  6138  		DC	0x1	;; DW_AT_external
000007b6  00000000          + 6139  		DD	.LDW5-.LI_TOP	;; DW_AT_type
                              6140  	;; entry 137
000007ba  0B                  6141  		DC	0xb	;; abbrev_code
                              6142  				;; DW_AT_location
000007bb  05                  6143  		DC	0x5	;;   size of loc_exp
000007bc  03                  6144  		DC	0x3	;;   DW_OP_addr
000007bd  00000000          + 6145  		DD	_guc_LED_trip_code	;;     operand
000007c1  6775635F4C45445F    6146  		DC	"guc_LED_trip_code",0x0	;; DW_AT_name
000007c9  747269705F636F64    6146  	
000007d1  6500                6146  	
000007d3  01                  6147  		DC	0x1	;; DW_AT_external
000007d4  00000000          + 6148  		DD	.LDW5-.LI_TOP	;; DW_AT_type
                              6149  	;; entry 138
000007d8  0B                  6150  		DC	0xb	;; abbrev_code
                              6151  				;; DW_AT_location
000007d9  05                  6152  		DC	0x5	;;   size of loc_exp
000007da  03                  6153  		DC	0x3	;;   DW_OP_addr
000007db  00000000          + 6154  		DD	_gus_host_test	;;     operand
000007df  6775735F686F7374    6155  		DC	"gus_host_test",0x0	;; DW_AT_name
000007e7  5F7465737400        6155  	
000007ed  01                  6156  		DC	0x1	;; DW_AT_external
000007ee  00000000          + 6157  		DD	.LDW6-.LI_TOP	;; DW_AT_type
                              6158  	;; entry 139
000007f2  0C                  6159  		DC	0xc	;; abbrev_code
000007f3  534349305F636F6E    6160  		DC	"SCI0_configure",0x0	;; DW_AT_name
000007fb  66696775726500      6160  	
00000802  00000000          + 6161  		DD	_SCI0_configure	;; DW_AT_low_pc
00000806  00000000          + 6162  		DD	.LDW26	;; DW_AT_high_pc
0000080a  01                  6163  		DC	0x1	;; DW_AT_prototyped
0000080b  01                  6164  		DC	0x1	;; DW_AT_decl_file
0000080c  6D                  6165  		DC	0x6d	;; DW_AT_decl_line
0000080d  01                  6166  		DC	0x1	;; DW_AT_external
                              6167  				;; DW_AT_frame_base
0000080e  01                  6168  		DC	0x1	;;   size of loc_exp
0000080f  59                  6169  		DC	0x59	;;   DW_OP_reg9
                              6170  	;; NULL ENTRY 140
00000810  00                  6171  		DC	0x0
                              6172  	;; entry 141
00000811  0C                  6173  		DC	0xc	;; abbrev_code
00000812  53434930636F6D6D    6174  		DC	"SCI0comm_reset",0x0	;; DW_AT_name
0000081a  5F726573657400      6174  	
00000821  00000000          + 6175  		DD	_SCI0comm_reset	;; DW_AT_low_pc
00000825  00000000          + 6176  		DD	.LDW27	;; DW_AT_high_pc
00000829  01                  6177  		DC	0x1	;; DW_AT_prototyped
0000082a  01                  6178  		DC	0x1	;; DW_AT_decl_file
0000082b  B302                6179  		DC	0xb3,0x2	;; DW_AT_decl_line
0000082d  01                  6180  		DC	0x1	;; DW_AT_external
                              6181  				;; DW_AT_frame_base
0000082e  01                  6182  		DC	0x1	;;   size of loc_exp
0000082f  59                  6183  		DC	0x59	;;   DW_OP_reg9
                              6184  	;; entry 142
00000830  0D                  6185  		DC	0xd	;; abbrev_code
00000831  6900                6186  		DC	"i",0x0	;; DW_AT_name
00000833  00                  6187  		DC	0x0	;; DW_AT_external
00000834  00000000          + 6188  		DD	.LDW6-.LI_TOP	;; DW_AT_type
00000838  00000000          + 6189  		DD	.LDW70	;; DW_AT_MN_resource
                              6190  	;; NULL ENTRY 143
0000083c  00                  6191  		DC	0x0
                              6192  	;; entry 144
0000083d  0C                  6193  		DC	0xc	;; abbrev_code
0000083e  534349305F636865    6194  		DC	"SCI0_check_delaytime",0x0	;; DW_AT_name
00000846  636B5F64656C6179    6194  	
0000084e  74696D6500          6194  	
00000853  00000000          + 6195  		DD	_SCI0_check_delaytime	;; DW_AT_low_pc
00000857  00000000          + 6196  		DD	.LDW28	;; DW_AT_high_pc
0000085b  01                  6197  		DC	0x1	;; DW_AT_prototyped
0000085c  01                  6198  		DC	0x1	;; DW_AT_decl_file
0000085d  E702                6199  		DC	0xe7,0x2	;; DW_AT_decl_line
0000085f  01                  6200  		DC	0x1	;; DW_AT_external
                              6201  				;; DW_AT_frame_base
00000860  01                  6202  		DC	0x1	;;   size of loc_exp
00000861  59                  6203  		DC	0x59	;;   DW_OP_reg9
                              6204  	;; NULL ENTRY 145
00000862  00                  6205  		DC	0x0
                              6206  	;; entry 146
00000863  0C                  6207  		DC	0xc	;; abbrev_code
00000864  534349305F73656E    6208  		DC	"SCI0_send_init",0x0	;; DW_AT_name
0000086c  645F696E697400      6208  	
00000873  00000000          + 6209  		DD	_SCI0_send_init	;; DW_AT_low_pc
00000877  00000000          + 6210  		DD	.LDW29	;; DW_AT_high_pc
0000087b  01                  6211  		DC	0x1	;; DW_AT_prototyped
0000087c  01                  6212  		DC	0x1	;; DW_AT_decl_file
0000087d  F402                6213  		DC	0xf4,0x2	;; DW_AT_decl_line
0000087f  01                  6214  		DC	0x1	;; DW_AT_external
                              6215  				;; DW_AT_frame_base
00000880  01                  6216  		DC	0x1	;;   size of loc_exp
00000881  59                  6217  		DC	0x59	;;   DW_OP_reg9
                              6218  	;; entry 147
00000882  0D                  6219  		DC	0xd	;; abbrev_code
00000883  6C75635F746D7000    6220  		DC	"luc_tmp",0x0	;; DW_AT_name
0000088b  00                  6221  		DC	0x0	;; DW_AT_external
0000088c  00000000          + 6222  		DD	.LDW5-.LI_TOP	;; DW_AT_type
00000890  00000000          + 6223  		DD	.LDW114	;; DW_AT_MN_resource
                              6224  	;; entry 148
00000894  0E                  6225  		DC	0xe	;; abbrev_code
00000895  6C75635F746D7031    6226  		DC	"luc_tmp1",0x0	;; DW_AT_name
0000089d  00                  6226  	
0000089e  00                  6227  		DC	0x0	;; DW_AT_external
0000089f  00000000          + 6228  		DD	.LDW5-.LI_TOP	;; DW_AT_type
                              6229  	;; entry 149
000008a3  0E                  6230  		DC	0xe	;; abbrev_code
000008a4  6C75735F746D7000    6231  		DC	"lus_tmp",0x0	;; DW_AT_name
000008ac  00                  6232  		DC	0x0	;; DW_AT_external
000008ad  00000000          + 6233  		DD	.LDW6-.LI_TOP	;; DW_AT_type
                              6234  	;; entry 150
000008b1  0B                  6235  		DC	0xb	;; abbrev_code
                              6236  				;; DW_AT_location
000008b2  02                  6237  		DC	0x2	;;   size of loc_exp
000008b3  91                  6238  		DC	0x91	;;   DW_OP_fbreg
000008b4  04                  6239  		DC	0x4	;;     operand
000008b5  72733438355F6372    6240  		DC	"rs485_crc",0x0	;; DW_AT_name
000008bd  6300                6240  	
000008bf  00                  6241  		DC	0x0	;; DW_AT_external
000008c0  00000000          + 6242  		DD	.LDW21-.LI_TOP	;; DW_AT_type
                              6243  	;; NULL ENTRY 151
000008c4  00                  6244  		DC	0x0
                              6245  	;; entry 152
000008c5  0C                  6246  		DC	0xc	;; abbrev_code
000008c6  736369305F52656E    6247  		DC	"sci0_Renesas_tx_data_load",0x0	;; DW_AT_name
000008ce  657361735F74785F    6247  	
000008d6  646174615F6C6F61    6247  	
000008de  6400                6247  	
000008e0  00000000          + 6248  		DD	_sci0_Renesas_tx_data_load	;; DW_AT_low_pc
000008e4  00000000          + 6249  		DD	.LDW30	;; DW_AT_high_pc
000008e8  01                  6250  		DC	0x1	;; DW_AT_prototyped
000008e9  01                  6251  		DC	0x1	;; DW_AT_decl_file
000008ea  C705                6252  		DC	0xc7,0x5	;; DW_AT_decl_line
000008ec  01                  6253  		DC	0x1	;; DW_AT_external
                              6254  				;; DW_AT_frame_base
000008ed  01                  6255  		DC	0x1	;;   size of loc_exp
000008ee  59                  6256  		DC	0x59	;;   DW_OP_reg9
                              6257  	;; entry 153
000008ef  0D                  6258  		DC	0xd	;; abbrev_code
000008f0  6900                6259  		DC	"i",0x0	;; DW_AT_name
000008f2  00                  6260  		DC	0x0	;; DW_AT_external
000008f3  00000000          + 6261  		DD	.LDW5-.LI_TOP	;; DW_AT_type
000008f7  00000000          + 6262  		DD	.LDW313	;; DW_AT_MN_resource
                              6263  	;; entry 154
000008fb  0D                  6264  		DC	0xd	;; abbrev_code
000008fc  6C75735F746D7000    6265  		DC	"lus_tmp",0x0	;; DW_AT_name
00000904  00                  6266  		DC	0x0	;; DW_AT_external
00000905  00000000          + 6267  		DD	.LDW6-.LI_TOP	;; DW_AT_type
00000909  00000000          + 6268  		DD	.LDW316	;; DW_AT_MN_resource
                              6269  	;; entry 155
0000090d  0E                  6270  		DC	0xe	;; abbrev_code
0000090e  6C756C5F746D7000    6271  		DC	"lul_tmp",0x0	;; DW_AT_name
00000916  00                  6272  		DC	0x0	;; DW_AT_external
00000917  00000000          + 6273  		DD	.LDW7-.LI_TOP	;; DW_AT_type
                              6274  	;; entry 156
0000091b  0E                  6275  		DC	0xe	;; abbrev_code
0000091c  6C75635F746D7031    6276  		DC	"luc_tmp1",0x0	;; DW_AT_name
00000924  00                  6276  	
00000925  00                  6277  		DC	0x0	;; DW_AT_external
00000926  00000000          + 6278  		DD	.LDW5-.LI_TOP	;; DW_AT_type
                              6279  	;; entry 157
0000092a  0D                  6280  		DC	0xd	;; abbrev_code
0000092b  6C75635F746D7032    6281  		DC	"luc_tmp2",0x0	;; DW_AT_name
00000933  00                  6281  	
00000934  00                  6282  		DC	0x0	;; DW_AT_external
00000935  00000000          + 6283  		DD	.LDW5-.LI_TOP	;; DW_AT_type
00000939  00000000          + 6284  		DD	.LDW324	;; DW_AT_MN_resource
                              6285  	;; entry 158
0000093d  0D                  6286  		DC	0xd	;; abbrev_code
0000093e  6C75635F746D7033    6287  		DC	"luc_tmp3",0x0	;; DW_AT_name
00000946  00                  6287  	
00000947  00                  6288  		DC	0x0	;; DW_AT_external
00000948  00000000          + 6289  		DD	.LDW5-.LI_TOP	;; DW_AT_type
0000094c  00000000          + 6290  		DD	.LDW321	;; DW_AT_MN_resource
                              6291  	;; entry 159
00000950  0E                  6292  		DC	0xe	;; abbrev_code
00000951  6C75735F746D7031    6293  		DC	"lus_tmp1",0x0	;; DW_AT_name
00000959  00                  6293  	
0000095a  00                  6294  		DC	0x0	;; DW_AT_external
0000095b  00000000          + 6295  		DD	.LDW6-.LI_TOP	;; DW_AT_type
                              6296  	;; entry 160
0000095f  0E                  6297  		DC	0xe	;; abbrev_code
00000960  6C75735F746D7032    6298  		DC	"lus_tmp2",0x0	;; DW_AT_name
00000968  00                  6298  	
00000969  00                  6299  		DC	0x0	;; DW_AT_external
0000096a  00000000          + 6300  		DD	.LDW6-.LI_TOP	;; DW_AT_type
                              6301  	;; entry 161
0000096e  0E                  6302  		DC	0xe	;; abbrev_code
0000096f  6C75735F746D7033    6303  		DC	"lus_tmp3",0x0	;; DW_AT_name
00000977  00                  6303  	
00000978  00                  6304  		DC	0x0	;; DW_AT_external
00000979  00000000          + 6305  		DD	.LDW6-.LI_TOP	;; DW_AT_type
                              6306  	;; entry 162
0000097d  0E                  6307  		DC	0xe	;; abbrev_code
0000097e  6C75735F746D7034    6308  		DC	"lus_tmp4",0x0	;; DW_AT_name
00000986  00                  6308  	
00000987  00                  6309  		DC	0x0	;; DW_AT_external
00000988  00000000          + 6310  		DD	.LDW6-.LI_TOP	;; DW_AT_type
                              6311  	;; NULL ENTRY 163
0000098c  00                  6312  		DC	0x0
                              6313  	;; entry 164
0000098d  0C                  6314  		DC	0xc	;; abbrev_code
0000098e  534349305F726563    6315  		DC	"SCI0_receive_int",0x0	;; DW_AT_name
00000996  656976655F696E74    6315  	
0000099e  00                  6315  	
0000099f  00000000          + 6316  		DD	_SCI0_receive_int	;; DW_AT_low_pc
000009a3  00000000          + 6317  		DD	.LDW31	;; DW_AT_high_pc
000009a7  01                  6318  		DC	0x1	;; DW_AT_prototyped
000009a8  01                  6319  		DC	0x1	;; DW_AT_decl_file
000009a9  B307                6320  		DC	0xb3,0x7	;; DW_AT_decl_line
000009ab  01                  6321  		DC	0x1	;; DW_AT_external
                              6322  				;; DW_AT_frame_base
000009ac  01                  6323  		DC	0x1	;;   size of loc_exp
000009ad  59                  6324  		DC	0x59	;;   DW_OP_reg9
                              6325  	;; entry 165
000009ae  0D                  6326  		DC	0xd	;; abbrev_code
000009af  6900                6327  		DC	"i",0x0	;; DW_AT_name
000009b1  00                  6328  		DC	0x0	;; DW_AT_external
000009b2  00000000          + 6329  		DD	.LDW5-.LI_TOP	;; DW_AT_type
000009b6  00000000          + 6330  		DD	.LDW431	;; DW_AT_MN_resource
                              6331  	;; NULL ENTRY 166
000009ba  00                  6332  		DC	0x0
                              6333  	;; entry 167
000009bb  0C                  6334  		DC	0xc	;; abbrev_code
000009bc  534349305F72785F    6335  		DC	"SCI0_rx_data_deal",0x0	;; DW_AT_name
000009c4  646174615F646561    6335  	
000009cc  6C00                6335  	
000009ce  00000000          + 6336  		DD	_SCI0_rx_data_deal	;; DW_AT_low_pc
000009d2  00000000          + 6337  		DD	.LDW32	;; DW_AT_high_pc
000009d6  01                  6338  		DC	0x1	;; DW_AT_prototyped
000009d7  01                  6339  		DC	0x1	;; DW_AT_decl_file
000009d8  C407                6340  		DC	0xc4,0x7	;; DW_AT_decl_line
000009da  01                  6341  		DC	0x1	;; DW_AT_external
                              6342  				;; DW_AT_frame_base
000009db  01                  6343  		DC	0x1	;;   size of loc_exp
000009dc  59                  6344  		DC	0x59	;;   DW_OP_reg9
                              6345  	;; entry 168
000009dd  0D                  6346  		DC	0xd	;; abbrev_code
000009de  6C75635F746D7000    6347  		DC	"luc_tmp",0x0	;; DW_AT_name
000009e6  00                  6348  		DC	0x0	;; DW_AT_external
000009e7  00000000          + 6349  		DD	.LDW5-.LI_TOP	;; DW_AT_type
000009eb  00000000          + 6350  		DD	.LDW450	;; DW_AT_MN_resource
                              6351  	;; entry 169
000009ef  0D                  6352  		DC	0xd	;; abbrev_code
000009f0  6900                6353  		DC	"i",0x0	;; DW_AT_name
000009f2  00                  6354  		DC	0x0	;; DW_AT_external
000009f3  00000000          + 6355  		DD	.LDW5-.LI_TOP	;; DW_AT_type
000009f7  00000000          + 6356  		DD	.LDW447	;; DW_AT_MN_resource
                              6357  	;; entry 170
000009fb  0D                  6358  		DC	0xd	;; abbrev_code
000009fc  6C75635F746D7031    6359  		DC	"luc_tmp1",0x0	;; DW_AT_name
00000a04  00                  6359  	
00000a05  00                  6360  		DC	0x0	;; DW_AT_external
00000a06  00000000          + 6361  		DD	.LDW5-.LI_TOP	;; DW_AT_type
00000a0a  00000000          + 6362  		DD	.LDW486	;; DW_AT_MN_resource
                              6363  	;; entry 171
00000a0e  0E                  6364  		DC	0xe	;; abbrev_code
00000a0f  6C75635F746D7032    6365  		DC	"luc_tmp2",0x0	;; DW_AT_name
00000a17  00                  6365  	
00000a18  00                  6366  		DC	0x0	;; DW_AT_external
00000a19  00000000          + 6367  		DD	.LDW5-.LI_TOP	;; DW_AT_type
                              6368  	;; entry 172
00000a1d  0D                  6369  		DC	0xd	;; abbrev_code
00000a1e  6C75735F746D7000    6370  		DC	"lus_tmp",0x0	;; DW_AT_name
00000a26  00                  6371  		DC	0x0	;; DW_AT_external
00000a27  00000000          + 6372  		DD	.LDW6-.LI_TOP	;; DW_AT_type
00000a2b  00000000          + 6373  		DD	.LDW459	;; DW_AT_MN_resource
                              6374  	;; entry 173
00000a2f  0B                  6375  		DC	0xb	;; abbrev_code
                              6376  				;; DW_AT_location
00000a30  02                  6377  		DC	0x2	;;   size of loc_exp
00000a31  91                  6378  		DC	0x91	;;   DW_OP_fbreg
00000a32  04                  6379  		DC	0x4	;;     operand
00000a33  72733438355F6372    6380  		DC	"rs485_crc",0x0	;; DW_AT_name
00000a3b  6300                6380  	
00000a3d  00                  6381  		DC	0x0	;; DW_AT_external
00000a3e  00000000          + 6382  		DD	.LDW21-.LI_TOP	;; DW_AT_type
                              6383  	;; entry 174
00000a42  0B                  6384  		DC	0xb	;; abbrev_code
                              6385  				;; DW_AT_location
00000a43  02                  6386  		DC	0x2	;;   size of loc_exp
00000a44  91                  6387  		DC	0x91	;;   DW_OP_fbreg
00000a45  08                  6388  		DC	0x8	;;     operand
00000a46  6C746D703100        6389  		DC	"ltmp1",0x0	;; DW_AT_name
00000a4c  00                  6390  		DC	0x0	;; DW_AT_external
00000a4d  00000000          + 6391  		DD	.LDW18-.LI_TOP	;; DW_AT_type
                              6392  	;; NULL ENTRY 175
00000a51  00                  6393  		DC	0x0
                              6394  	;; entry 176
00000a52  0C                  6395  		DC	0xc	;; abbrev_code
00000a53  52656E657361735F    6396  		DC	"Renesas_rx_data_deal",0x0	;; DW_AT_name
00000a5b  72785F646174615F    6396  	
00000a63  6465616C00          6396  	
00000a68  00000000          + 6397  		DD	_Renesas_rx_data_deal	;; DW_AT_low_pc
00000a6c  00000000          + 6398  		DD	.LDW33	;; DW_AT_high_pc
00000a70  01                  6399  		DC	0x1	;; DW_AT_prototyped
00000a71  01                  6400  		DC	0x1	;; DW_AT_decl_file
00000a72  F00B                6401  		DC	0xf0,0xb	;; DW_AT_decl_line
00000a74  01                  6402  		DC	0x1	;; DW_AT_external
                              6403  				;; DW_AT_frame_base
00000a75  01                  6404  		DC	0x1	;;   size of loc_exp
00000a76  59                  6405  		DC	0x59	;;   DW_OP_reg9
                              6406  	;; entry 177
00000a77  0D                  6407  		DC	0xd	;; abbrev_code
00000a78  6C75735F746D7031    6408  		DC	"lus_tmp1",0x0	;; DW_AT_name
00000a80  00                  6408  	
00000a81  00                  6409  		DC	0x0	;; DW_AT_external
00000a82  00000000          + 6410  		DD	.LDW6-.LI_TOP	;; DW_AT_type
00000a86  00000000          + 6411  		DD	.LDW756	;; DW_AT_MN_resource
                              6412  	;; entry 178
00000a8a  0D                  6413  		DC	0xd	;; abbrev_code
00000a8b  6C75735F746D7032    6414  		DC	"lus_tmp2",0x0	;; DW_AT_name
00000a93  00                  6414  	
00000a94  00                  6415  		DC	0x0	;; DW_AT_external
00000a95  00000000          + 6416  		DD	.LDW6-.LI_TOP	;; DW_AT_type
00000a99  00000000          + 6417  		DD	.LDW767	;; DW_AT_MN_resource
                              6418  	;; entry 179
00000a9d  0D                  6419  		DC	0xd	;; abbrev_code
00000a9e  6C75735F746D7033    6420  		DC	"lus_tmp3",0x0	;; DW_AT_name
00000aa6  00                  6420  	
00000aa7  00                  6421  		DC	0x0	;; DW_AT_external
00000aa8  00000000          + 6422  		DD	.LDW6-.LI_TOP	;; DW_AT_type
00000aac  00000000          + 6423  		DD	.LDW764	;; DW_AT_MN_resource
                              6424  	;; entry 180
00000ab0  0E                  6425  		DC	0xe	;; abbrev_code
00000ab1  6C75735F746D7034    6426  		DC	"lus_tmp4",0x0	;; DW_AT_name
00000ab9  00                  6426  	
00000aba  00                  6427  		DC	0x0	;; DW_AT_external
00000abb  00000000          + 6428  		DD	.LDW6-.LI_TOP	;; DW_AT_type
                              6429  	;; entry 181
00000abf  0D                  6430  		DC	0xd	;; abbrev_code
00000ac0  6C75735F746D7000    6431  		DC	"lus_tmp",0x0	;; DW_AT_name
00000ac8  00                  6432  		DC	0x0	;; DW_AT_external
00000ac9  00000000          + 6433  		DD	.LDW6-.LI_TOP	;; DW_AT_type
00000acd  00000000          + 6434  		DD	.LDW759	;; DW_AT_MN_resource
                              6435  	;; NULL ENTRY 182
00000ad1  00                  6436  		DC	0x0
                              6437  	;; entry 183
00000ad2  0C                  6438  		DC	0xc	;; abbrev_code
00000ad3  534349305F74785F    6439  		DC	"SCI0_tx_delaytime",0x0	;; DW_AT_name
00000adb  64656C617974696D    6439  	
00000ae3  6500                6439  	
00000ae5  00000000          + 6440  		DD	_SCI0_tx_delaytime	;; DW_AT_low_pc
00000ae9  00000000          + 6441  		DD	.LDW34	;; DW_AT_high_pc
00000aed  01                  6442  		DC	0x1	;; DW_AT_prototyped
00000aee  01                  6443  		DC	0x1	;; DW_AT_decl_file
00000aef  C60C                6444  		DC	0xc6,0xc	;; DW_AT_decl_line
00000af1  01                  6445  		DC	0x1	;; DW_AT_external
                              6446  				;; DW_AT_frame_base
00000af2  01                  6447  		DC	0x1	;;   size of loc_exp
00000af3  59                  6448  		DC	0x59	;;   DW_OP_reg9
                              6449  	;; NULL ENTRY 184
00000af4  00                  6450  		DC	0x0
                              6451  	;; entry 185
00000af5  0C                  6452  		DC	0xc	;; abbrev_code
00000af6  534349305F72785F    6453  		DC	"SCI0_rx_delaytime",0x0	;; DW_AT_name
00000afe  64656C617974696D    6453  	
00000b06  6500                6453  	
00000b08  00000000          + 6454  		DD	_SCI0_rx_delaytime	;; DW_AT_low_pc
00000b0c  00000000          + 6455  		DD	.LDW35	;; DW_AT_high_pc
00000b10  01                  6456  		DC	0x1	;; DW_AT_prototyped
00000b11  01                  6457  		DC	0x1	;; DW_AT_decl_file
00000b12  D50C                6458  		DC	0xd5,0xc	;; DW_AT_decl_line
00000b14  01                  6459  		DC	0x1	;; DW_AT_external
                              6460  				;; DW_AT_frame_base
00000b15  01                  6461  		DC	0x1	;;   size of loc_exp
00000b16  59                  6462  		DC	0x59	;;   DW_OP_reg9
                              6463  	;; NULL ENTRY 186
00000b17  00                  6464  		DC	0x0
                              6465  	;; entry 187
00000b18  0C                  6466  		DC	0xc	;; abbrev_code
00000b19  534349305F72785F    6467  		DC	"SCI0_rx_end_delaytime",0x0	;; DW_AT_name
00000b21  656E645F64656C61    6467  	
00000b29  7974696D6500        6467  	
00000b2f  00000000          + 6468  		DD	_SCI0_rx_end_delaytime	;; DW_AT_low_pc
00000b33  00000000          + 6469  		DD	.LDW36	;; DW_AT_high_pc
00000b37  01                  6470  		DC	0x1	;; DW_AT_prototyped
00000b38  01                  6471  		DC	0x1	;; DW_AT_decl_file
00000b39  E40C                6472  		DC	0xe4,0xc	;; DW_AT_decl_line
00000b3b  01                  6473  		DC	0x1	;; DW_AT_external
                              6474  				;; DW_AT_frame_base
00000b3c  01                  6475  		DC	0x1	;;   size of loc_exp
00000b3d  59                  6476  		DC	0x59	;;   DW_OP_reg9
                              6477  	;; NULL ENTRY 188
00000b3e  00                  6478  		DC	0x0
                              6479  	;; entry 189
00000b3f  0C                  6480  		DC	0xc	;; abbrev_code
00000b40  534349305F666175    6481  		DC	"SCI0_fault_delaytime",0x0	;; DW_AT_name
00000b48  6C745F64656C6179    6481  	
00000b50  74696D6500          6481  	
00000b55  00000000          + 6482  		DD	_SCI0_fault_delaytime	;; DW_AT_low_pc
00000b59  00000000          + 6483  		DD	.LDW37	;; DW_AT_high_pc
00000b5d  01                  6484  		DC	0x1	;; DW_AT_prototyped
00000b5e  01                  6485  		DC	0x1	;; DW_AT_decl_file
00000b5f  820D                6486  		DC	0x82,0xd	;; DW_AT_decl_line
00000b61  01                  6487  		DC	0x1	;; DW_AT_external
                              6488  				;; DW_AT_frame_base
00000b62  01                  6489  		DC	0x1	;;   size of loc_exp
00000b63  59                  6490  		DC	0x59	;;   DW_OP_reg9
                              6491  	;; NULL ENTRY 190
00000b64  00                  6492  		DC	0x0
                              6493  	;; entry 191
00000b65  0C                  6494  		DC	0xc	;; abbrev_code
00000b66  534349305F74785F    6495  		DC	"SCI0_tx_int",0x0	;; DW_AT_name
00000b6e  696E7400            6495  	
00000b72  00000000          + 6496  		DD	_SCI0_tx_int	;; DW_AT_low_pc
00000b76  00000000          + 6497  		DD	.LDW38	;; DW_AT_high_pc
00000b7a  01                  6498  		DC	0x1	;; DW_AT_prototyped
00000b7b  01                  6499  		DC	0x1	;; DW_AT_decl_file
00000b7c  910D                6500  		DC	0x91,0xd	;; DW_AT_decl_line
00000b7e  01                  6501  		DC	0x1	;; DW_AT_external
                              6502  				;; DW_AT_frame_base
00000b7f  01                  6503  		DC	0x1	;;   size of loc_exp
00000b80  59                  6504  		DC	0x59	;;   DW_OP_reg9
                              6505  	;; NULL ENTRY 192
00000b81  00                  6506  		DC	0x0
                              6507  	;; entry 193
00000b82  0C                  6508  		DC	0xc	;; abbrev_code
00000b83  534349305F72785F    6509  		DC	"SCI0_rx_int",0x0	;; DW_AT_name
00000b8b  696E7400            6509  	
00000b8f  00000000          + 6510  		DD	_SCI0_rx_int	;; DW_AT_low_pc
00000b93  00000000          + 6511  		DD	.LDW39	;; DW_AT_high_pc
00000b97  01                  6512  		DC	0x1	;; DW_AT_prototyped
00000b98  01                  6513  		DC	0x1	;; DW_AT_decl_file
00000b99  A60D                6514  		DC	0xa6,0xd	;; DW_AT_decl_line
00000b9b  01                  6515  		DC	0x1	;; DW_AT_external
                              6516  				;; DW_AT_frame_base
00000b9c  01                  6517  		DC	0x1	;;   size of loc_exp
00000b9d  59                  6518  		DC	0x59	;;   DW_OP_reg9
                              6519  	;; entry 194
00000b9e  0D                  6520  		DC	0xd	;; abbrev_code
00000b9f  6C75635F53434930    6521  		DC	"luc_SCI0_rx_byte",0x0	;; DW_AT_name
00000ba7  5F72785F62797465    6521  	
00000baf  00                  6521  	
00000bb0  00                  6522  		DC	0x0	;; DW_AT_external
00000bb1  00000000          + 6523  		DD	.LDW5-.LI_TOP	;; DW_AT_type
00000bb5  00000000          + 6524  		DD	.LDW861	;; DW_AT_MN_resource
                              6525  	;; NULL ENTRY 195
00000bb9  00                  6526  		DC	0x0
                              6527  	;; entry 196
00000bba  0F                  6528  		DC	0xf	;; abbrev_code
00000bbb  435243313600        6529  		DC	"CRC16",0x0	;; DW_AT_name
00000bc1  00000000          + 6530  		DD	_CRC16	;; DW_AT_low_pc
00000bc5  00000000          + 6531  		DD	.LDW40	;; DW_AT_high_pc
00000bc9  01                  6532  		DC	0x1	;; DW_AT_prototyped
00000bca  01                  6533  		DC	0x1	;; DW_AT_decl_file
00000bcb  C90D                6534  		DC	0xc9,0xd	;; DW_AT_decl_line
00000bcd  01                  6535  		DC	0x1	;; DW_AT_external
                              6536  				;; DW_AT_frame_base
00000bce  01                  6537  		DC	0x1	;;   size of loc_exp
00000bcf  59                  6538  		DC	0x59	;;   DW_OP_reg9
00000bd0  00000000          + 6539  		DD	.LDW6-.LI_TOP	;; DW_AT_type
                              6540  				;; DW_AT_MN_return_value_location
00000bd4  01                  6541  		DC	0x1	;;   size of loc_exp
00000bd5  50                  6542  		DC	0x50	;;   DW_OP_reg0
                              6543  	;; entry 197
00000bd6  10                  6544  		DC	0x10	;; abbrev_code
00000bd7  707563686D736700    6545  		DC	"puchmsg",0x0	;; DW_AT_name
00000bdf  00000000          + 6546  		DD	.LDW41-.LI_TOP	;; DW_AT_type
00000be3  00000000          + 6547  		DD	.LDW890	;; DW_AT_MN_resource
                              6548  	;; entry 198
00000be7  10                  6549  		DC	0x10	;; abbrev_code
00000be8  7573446174614C65    6550  		DC	"usDataLen",0x0	;; DW_AT_name
00000bf0  6E00                6550  	
00000bf2  00000000          + 6551  		DD	.LDW6-.LI_TOP	;; DW_AT_type
00000bf6  00000000          + 6552  		DD	.LDW893	;; DW_AT_MN_resource
                              6553  	;; entry 199
00000bfa  0D                  6554  		DC	0xd	;; abbrev_code
00000bfb  75636843524300      6555  		DC	"uchCRC",0x0	;; DW_AT_name
00000c02  00                  6556  		DC	0x0	;; DW_AT_external
00000c03  00000000          + 6557  		DD	.LDW6-.LI_TOP	;; DW_AT_type
00000c07  00000000          + 6558  		DD	.LDW883	;; DW_AT_MN_resource
                              6559  	;; entry 200
00000c0b  0E                  6560  		DC	0xe	;; abbrev_code
00000c0c  75496E6465785F78    6561  		DC	"uIndex_x",0x0	;; DW_AT_name
00000c14  00                  6561  	
00000c15  00                  6562  		DC	0x0	;; DW_AT_external
00000c16  00000000          + 6563  		DD	.LDW6-.LI_TOP	;; DW_AT_type
                              6564  	;; entry 201
00000c1a  0E                  6565  		DC	0xe	;; abbrev_code
00000c1b  75496E6465785F79    6566  		DC	"uIndex_y",0x0	;; DW_AT_name
00000c23  00                  6566  	
00000c24  00                  6567  		DC	0x0	;; DW_AT_external
00000c25  00000000          + 6568  		DD	.LDW6-.LI_TOP	;; DW_AT_type
                              6569  	;; NULL ENTRY 202
00000c29  00                  6570  		DC	0x0
                              6571  	;; entry 203
00000c2a  0F                  6572  		DC	0xf	;; abbrev_code
00000c2b  41736369695F746F    6573  		DC	"Ascii_to_data",0x0	;; DW_AT_name
00000c33  5F6461746100        6573  	
00000c39  00000000          + 6574  		DD	_Ascii_to_data	;; DW_AT_low_pc
00000c3d  00000000          + 6575  		DD	.LDW42	;; DW_AT_high_pc
00000c41  01                  6576  		DC	0x1	;; DW_AT_prototyped
00000c42  01                  6577  		DC	0x1	;; DW_AT_decl_file
00000c43  EB0D                6578  		DC	0xeb,0xd	;; DW_AT_decl_line
00000c45  01                  6579  		DC	0x1	;; DW_AT_external
                              6580  				;; DW_AT_frame_base
00000c46  01                  6581  		DC	0x1	;;   size of loc_exp
00000c47  59                  6582  		DC	0x59	;;   DW_OP_reg9
00000c48  00000000          + 6583  		DD	.LDW5-.LI_TOP	;; DW_AT_type
                              6584  				;; DW_AT_MN_return_value_location
00000c4c  01                  6585  		DC	0x1	;;   size of loc_exp
00000c4d  50                  6586  		DC	0x50	;;   DW_OP_reg0
                              6587  	;; entry 204
00000c4e  10                  6588  		DC	0x10	;; abbrev_code
00000c4f  6C75635F41736369    6589  		DC	"luc_Ascii_tmp",0x0	;; DW_AT_name
00000c57  695F746D7000        6589  	
00000c5d  00000000          + 6590  		DD	.LDW5-.LI_TOP	;; DW_AT_type
00000c61  00000000          + 6591  		DD	.LDW925	;; DW_AT_MN_resource
                              6592  	;; entry 205
00000c65  0D                  6593  		DC	0xd	;; abbrev_code
00000c66  6C75635F64617461    6594  		DC	"luc_data_tmp",0x0	;; DW_AT_name
00000c6e  5F746D7000          6594  	
00000c73  00                  6595  		DC	0x0	;; DW_AT_external
00000c74  00000000          + 6596  		DD	.LDW5-.LI_TOP	;; DW_AT_type
00000c78  00000000          + 6597  		DD	.LDW920	;; DW_AT_MN_resource
                              6598  	;; NULL ENTRY 206
00000c7c  00                  6599  		DC	0x0
                              6600  	;; entry 207
00000c7d  0F                  6601  		DC	0xf	;; abbrev_code
00000c7e  646174615F746F5F    6602  		DC	"data_to_Ascii",0x0	;; DW_AT_name
00000c86  417363696900        6602  	
00000c8c  00000000          + 6603  		DD	_data_to_Ascii	;; DW_AT_low_pc
00000c90  00000000          + 6604  		DD	.LDW43	;; DW_AT_high_pc
00000c94  01                  6605  		DC	0x1	;; DW_AT_prototyped
00000c95  01                  6606  		DC	0x1	;; DW_AT_decl_file
00000c96  FB0D                6607  		DC	0xfb,0xd	;; DW_AT_decl_line
00000c98  01                  6608  		DC	0x1	;; DW_AT_external
                              6609  				;; DW_AT_frame_base
00000c99  01                  6610  		DC	0x1	;;   size of loc_exp
00000c9a  59                  6611  		DC	0x59	;;   DW_OP_reg9
00000c9b  00000000          + 6612  		DD	.LDW5-.LI_TOP	;; DW_AT_type
                              6613  				;; DW_AT_MN_return_value_location
00000c9f  01                  6614  		DC	0x1	;;   size of loc_exp
00000ca0  50                  6615  		DC	0x50	;;   DW_OP_reg0
                              6616  	;; entry 208
00000ca1  10                  6617  		DC	0x10	;; abbrev_code
00000ca2  6C75635F64617461    6618  		DC	"luc_data_tmp",0x0	;; DW_AT_name
00000caa  5F746D7000          6618  	
00000caf  00000000          + 6619  		DD	.LDW5-.LI_TOP	;; DW_AT_type
00000cb3  00000000          + 6620  		DD	.LDW943	;; DW_AT_MN_resource
                              6621  	;; entry 209
00000cb7  0D                  6622  		DC	0xd	;; abbrev_code
00000cb8  6C75635F41736369    6623  		DC	"luc_Ascii_tmp",0x0	;; DW_AT_name
00000cc0  695F746D7000        6623  	
00000cc6  00                  6624  		DC	0x0	;; DW_AT_external
00000cc7  00000000          + 6625  		DD	.LDW5-.LI_TOP	;; DW_AT_type
00000ccb  00000000          + 6626  		DD	.LDW938	;; DW_AT_MN_resource
                              6627  	;; NULL ENTRY 210
00000ccf  00                  6628  		DC	0x0
                              6629  	;; NULL ENTRY 211
00000cd0  00                  6630  		DC	0x0
00000cd1                      6631  	.LI_E
                              6632  	;; End of Debugging Information Entries
                              6633  	.debug_line		SECTION
                              6634  	;; Line Number Information
00000000                      6635  	.LLN_TOP
                              6636  	;; Prologue
00000000  00000000          + 6637  		DD	.LLN_E-.LLN_B	;; total_length
00000004                      6638  	.LLN_B
00000004  0200                6639  		DW	0x2	;; version
00000006  00000000          + 6640  		DD	.LLN_P_E-.LLN_P_B	;; prologue_length
0000000a                      6641  	.LLN_P_B
0000000a  01                  6642  		DC	0x1	;; minimum_instruction_length
0000000b  01                  6643  		DC	0x1	;; default_is_stmt
0000000c  D0                  6644  		DC	0xd0	;; line_base
0000000d  F6                  6645  		DC	0xf6	;; line_range
0000000e  0A                  6646  		DC	0xa	;; opcode_base
0000000f  0001010101000000    6647  		DC	0x0,0x1,0x1,0x1,0x1,0x0,0x0,0x0,0x1	;; standard_opcode_lengths
00000017  01                  6647  	
00000018  00                  6648  		DC	0x0	;; include directories
00000019  636F64655C486F73    6649  		DC	"code\\Host_comm.c",0x0	;; file_names: name
00000021  745F636F6D6D2E63    6649  	
00000029  00                  6649  	
0000002a  00                  6650  		DC	0x0	;;           : directory index
0000002b  00                  6651  		DC	0x0	;;           : time
0000002c  00                  6652  		DC	0x0	;;           : length
0000002d  00                  6653  		DC	0x0
0000002e                      6654  	.LLN_P_E
0000002e  000502              6655  		DC	0x0,0x5,0x2	;; DW_LNE_set_address
00000031  00000000          + 6656  		DD	.DWLopt1	;;     operand
00000035  B7                  6657  		DC	0xb7	;; SPECIAL 183
00000036  000502              6658  		DC	0x0,0x5,0x2	;; DW_LNE_set_address
00000039  00000000          + 6659  		DD	.DWLopt2	;;     operand
0000003d  48                  6660  		DC	0x48	;; SPECIAL 72
0000003e  000502              6661  		DC	0x0,0x5,0x2	;; DW_LNE_set_address
00000041  00000000          + 6662  		DD	.DWLopt3	;;     operand
00000045  4B                  6663  		DC	0x4b	;; SPECIAL 75
00000046  000502              6664  		DC	0x0,0x5,0x2	;; DW_LNE_set_address
00000049  00000000          + 6665  		DD	.DWLopt4	;;     operand
0000004d  3D                  6666  		DC	0x3d	;; SPECIAL 61
0000004e  000502              6667  		DC	0x0,0x5,0x2	;; DW_LNE_set_address
00000051  00000000          + 6668  		DD	.DWLopt5	;;     operand
00000055  48                  6669  		DC	0x48	;; SPECIAL 72
00000056  000502              6670  		DC	0x0,0x5,0x2	;; DW_LNE_set_address
00000059  00000000          + 6671  		DD	.DWLopt6	;;     operand
0000005d  4A                  6672  		DC	0x4a	;; SPECIAL 74
0000005e  000502              6673  		DC	0x0,0x5,0x2	;; DW_LNE_set_address
00000061  00000000          + 6674  		DD	.DWLopt7	;;     operand
00000065  4A                  6675  		DC	0x4a	;; SPECIAL 74
00000066  000502              6676  		DC	0x0,0x5,0x2	;; DW_LNE_set_address
00000069  00000000          + 6677  		DD	.DWLopt8	;;     operand
0000006d  56                  6678  		DC	0x56	;; SPECIAL 86
0000006e  000502              6679  		DC	0x0,0x5,0x2	;; DW_LNE_set_address
00000071  00000000          + 6680  		DD	.DWLopt9	;;     operand
00000075  3C                  6681  		DC	0x3c	;; SPECIAL 60
00000076  000502              6682  		DC	0x0,0x5,0x2	;; DW_LNE_set_address
00000079  00000000          + 6683  		DD	.DWLopt10	;;     operand
0000007d  44                  6684  		DC	0x44	;; SPECIAL 68
0000007e  000502              6685  		DC	0x0,0x5,0x2	;; DW_LNE_set_address
00000081  00000000          + 6686  		DD	.DWLopt11	;;     operand
00000085  48                  6687  		DC	0x48	;; SPECIAL 72
00000086  000502              6688  		DC	0x0,0x5,0x2	;; DW_LNE_set_address
00000089  00000000          + 6689  		DD	.DWLopt12	;;     operand
0000008d  47                  6690  		DC	0x47	;; SPECIAL 71
0000008e  000502              6691  		DC	0x0,0x5,0x2	;; DW_LNE_set_address
00000091  00000000          + 6692  		DD	.DWLopt13	;;     operand
00000095  44                  6693  		DC	0x44	;; SPECIAL 68
00000096  000502              6694  		DC	0x0,0x5,0x2	;; DW_LNE_set_address
00000099  00000000          + 6695  		DD	.DWLopt14	;;     operand
0000009d  3C                  6696  		DC	0x3c	;; SPECIAL 60
0000009e  000502              6697  		DC	0x0,0x5,0x2	;; DW_LNE_set_address
000000a1  00000000          + 6698  		DD	.DWLopt15	;;     operand
000000a5  3C                  6699  		DC	0x3c	;; SPECIAL 60
000000a6  000502              6700  		DC	0x0,0x5,0x2	;; DW_LNE_set_address
000000a9  00000000          + 6701  		DD	.DWLopt16	;;     operand
000000ad  3C                  6702  		DC	0x3c	;; SPECIAL 60
000000ae  000502              6703  		DC	0x0,0x5,0x2	;; DW_LNE_set_address
000000b1  00000000          + 6704  		DD	.DWLopt17	;;     operand
000000b5  3C                  6705  		DC	0x3c	;; SPECIAL 60
000000b6  000502              6706  		DC	0x0,0x5,0x2	;; DW_LNE_set_address
000000b9  00000000          + 6707  		DD	.DWLopt18	;;     operand
000000bd  3B                  6708  		DC	0x3b	;; SPECIAL 59
000000be  000502              6709  		DC	0x0,0x5,0x2	;; DW_LNE_set_address
000000c1  00000000          + 6710  		DD	.DWLopt19	;;     operand
000000c5  3C                  6711  		DC	0x3c	;; SPECIAL 60
000000c6  000502              6712  		DC	0x0,0x5,0x2	;; DW_LNE_set_address
000000c9  00000000          + 6713  		DD	.DWLopt20	;;     operand
000000cd  3B                  6714  		DC	0x3b	;; SPECIAL 59
000000ce  000502              6715  		DC	0x0,0x5,0x2	;; DW_LNE_set_address
000000d1  00000000          + 6716  		DD	.DWLopt21	;;     operand
000000d5  3C                  6717  		DC	0x3c	;; SPECIAL 60
000000d6  000502              6718  		DC	0x0,0x5,0x2	;; DW_LNE_set_address
000000d9  00000000          + 6719  		DD	.DWLopt22	;;     operand
000000dd  3D                  6720  		DC	0x3d	;; SPECIAL 61
000000de  000502              6721  		DC	0x0,0x5,0x2	;; DW_LNE_set_address
000000e1  00000000          + 6722  		DD	.DWLopt23	;;     operand
000000e5  3C                  6723  		DC	0x3c	;; SPECIAL 60
000000e6  000502              6724  		DC	0x0,0x5,0x2	;; DW_LNE_set_address
000000e9  00000000          + 6725  		DD	.DWLopt24	;;     operand
000000ed  3C                  6726  		DC	0x3c	;; SPECIAL 60
000000ee  06                  6727  		DC	0x6	;; DW_LNS_negate_stmt
000000ef  000502              6728  		DC	0x0,0x5,0x2	;; DW_LNE_set_address
000000f2  00000000          + 6729  		DD	.LDW26	;;     operand
000000f6  000101              6730  		DC	0x0,0x1,0x1	;; DW_LNE_end_sequence
000000f9  000502              6731  		DC	0x0,0x5,0x2	;; DW_LNE_set_address
000000fc  00000000          + 6732  		DD	.DWLopt31	;;     operand
00000100  03                  6733  		DC	0x3	;; DW_LNS_advance_line
00000101  B702                6734  		DC	0xb7,0x2	;; 311
00000103  01                  6735  		DC	0x1	;; DW_LNS_copy
00000104  000502              6736  		DC	0x0,0x5,0x2	;; DW_LNE_set_address
00000107  00000000          + 6737  		DD	.DWLopt32	;;     operand
0000010b  3B                  6738  		DC	0x3b	;; SPECIAL 59
0000010c  000502              6739  		DC	0x0,0x5,0x2	;; DW_LNE_set_address
0000010f  00000000          + 6740  		DD	.DWLopt33	;;     operand
00000113  3C                  6741  		DC	0x3c	;; SPECIAL 60
00000114  000502              6742  		DC	0x0,0x5,0x2	;; DW_LNE_set_address
00000117  00000000          + 6743  		DD	.DWLopt34	;;     operand
0000011b  3B                  6744  		DC	0x3b	;; SPECIAL 59
0000011c  000502              6745  		DC	0x0,0x5,0x2	;; DW_LNE_set_address
0000011f  00000000          + 6746  		DD	.DWLopt35	;;     operand
00000123  3D                  6747  		DC	0x3d	;; SPECIAL 61
00000124  000502              6748  		DC	0x0,0x5,0x2	;; DW_LNE_set_address
00000127  00000000          + 6749  		DD	.DWLopt36	;;     operand
0000012b  3C                  6750  		DC	0x3c	;; SPECIAL 60
0000012c  000502              6751  		DC	0x0,0x5,0x2	;; DW_LNE_set_address
0000012f  00000000          + 6752  		DD	.DWLopt37	;;     operand
00000133  3C                  6753  		DC	0x3c	;; SPECIAL 60
00000134  000502              6754  		DC	0x0,0x5,0x2	;; DW_LNE_set_address
00000137  00000000          + 6755  		DD	.DWLopt38	;;     operand
0000013b  3B                  6756  		DC	0x3b	;; SPECIAL 59
0000013c  000502              6757  		DC	0x0,0x5,0x2	;; DW_LNE_set_address
0000013f  00000000          + 6758  		DD	.DWLopt39	;;     operand
00000143  3E                  6759  		DC	0x3e	;; SPECIAL 62
00000144  000502              6760  		DC	0x0,0x5,0x2	;; DW_LNE_set_address
00000147  00000000          + 6761  		DD	.DWLopt40	;;     operand
0000014b  3B                  6762  		DC	0x3b	;; SPECIAL 59
0000014c  000502              6763  		DC	0x0,0x5,0x2	;; DW_LNE_set_address
0000014f  00000000          + 6764  		DD	.DWLopt41	;;     operand
00000153  3F                  6765  		DC	0x3f	;; SPECIAL 63
00000154  000502              6766  		DC	0x0,0x5,0x2	;; DW_LNE_set_address
00000157  00000000          + 6767  		DD	.DWLopt42	;;     operand
0000015b  41                  6768  		DC	0x41	;; SPECIAL 65
0000015c  000502              6769  		DC	0x0,0x5,0x2	;; DW_LNE_set_address
0000015f  00000000          + 6770  		DD	.DWLopt43	;;     operand
00000163  36                  6771  		DC	0x36	;; SPECIAL 54
00000164  000502              6772  		DC	0x0,0x5,0x2	;; DW_LNE_set_address
00000167  00000000          + 6773  		DD	.DWLopt44	;;     operand
0000016b  3E                  6774  		DC	0x3e	;; SPECIAL 62
0000016c  000502              6775  		DC	0x0,0x5,0x2	;; DW_LNE_set_address
0000016f  00000000          + 6776  		DD	.DWLopt45	;;     operand
00000173  3C                  6777  		DC	0x3c	;; SPECIAL 60
00000174  06                  6778  		DC	0x6	;; DW_LNS_negate_stmt
00000175  000502              6779  		DC	0x0,0x5,0x2	;; DW_LNE_set_address
00000178  00000000          + 6780  		DD	.DWLopt46	;;     operand
0000017c  03                  6781  		DC	0x3	;; DW_LNS_advance_line
0000017d  A97D                6782  		DC	0xa9,0x7d	;; -343
0000017f  01                  6783  		DC	0x1	;; DW_LNS_copy
00000180  000502              6784  		DC	0x0,0x5,0x2	;; DW_LNE_set_address
00000183  00000000          + 6785  		DD	.DWLopt47	;;     operand
00000187  03                  6786  		DC	0x3	;; DW_LNS_advance_line
00000188  D702                6787  		DC	0xd7,0x2	;; 343
0000018a  01                  6788  		DC	0x1	;; DW_LNS_copy
0000018b  06                  6789  		DC	0x6	;; DW_LNS_negate_stmt
0000018c  000502              6790  		DC	0x0,0x5,0x2	;; DW_LNE_set_address
0000018f  00000000          + 6791  		DD	.DWLopt48	;;     operand
00000193  38                  6792  		DC	0x38	;; SPECIAL 56
00000194  000502              6793  		DC	0x0,0x5,0x2	;; DW_LNE_set_address
00000197  00000000          + 6794  		DD	.DWLopt49	;;     operand
0000019b  3A                  6795  		DC	0x3a	;; SPECIAL 58
0000019c  000502              6796  		DC	0x0,0x5,0x2	;; DW_LNE_set_address
0000019f  00000000          + 6797  		DD	.DWLopt50	;;     operand
000001a3  3F                  6798  		DC	0x3f	;; SPECIAL 63
000001a4  000502              6799  		DC	0x0,0x5,0x2	;; DW_LNE_set_address
000001a7  00000000          + 6800  		DD	.DWLopt51	;;     operand
000001ab  3A                  6801  		DC	0x3a	;; SPECIAL 58
000001ac  000502              6802  		DC	0x0,0x5,0x2	;; DW_LNE_set_address
000001af  00000000          + 6803  		DD	.DWLopt52	;;     operand
000001b3  3C                  6804  		DC	0x3c	;; SPECIAL 60
000001b4  06                  6805  		DC	0x6	;; DW_LNS_negate_stmt
000001b5  000502              6806  		DC	0x0,0x5,0x2	;; DW_LNE_set_address
000001b8  00000000          + 6807  		DD	.DWLopt53	;;     operand
000001bc  03                  6808  		DC	0x3	;; DW_LNS_advance_line
000001bd  A47D                6809  		DC	0xa4,0x7d	;; -348
000001bf  01                  6810  		DC	0x1	;; DW_LNS_copy
000001c0  000502              6811  		DC	0x0,0x5,0x2	;; DW_LNE_set_address
000001c3  00000000          + 6812  		DD	.DWLopt54	;;     operand
000001c7  03                  6813  		DC	0x3	;; DW_LNS_advance_line
000001c8  DC02                6814  		DC	0xdc,0x2	;; 348
000001ca  01                  6815  		DC	0x1	;; DW_LNS_copy
000001cb  06                  6816  		DC	0x6	;; DW_LNS_negate_stmt
000001cc  000502              6817  		DC	0x0,0x5,0x2	;; DW_LNE_set_address
000001cf  00000000          + 6818  		DD	.DWLopt55	;;     operand
000001d3  38                  6819  		DC	0x38	;; SPECIAL 56
000001d4  000502              6820  		DC	0x0,0x5,0x2	;; DW_LNE_set_address
000001d7  00000000          + 6821  		DD	.DWLopt56	;;     operand
000001db  3A                  6822  		DC	0x3a	;; SPECIAL 58
000001dc  000502              6823  		DC	0x0,0x5,0x2	;; DW_LNE_set_address
000001df  00000000          + 6824  		DD	.DWLopt57	;;     operand
000001e3  3F                  6825  		DC	0x3f	;; SPECIAL 63
000001e4  000502              6826  		DC	0x0,0x5,0x2	;; DW_LNE_set_address
000001e7  00000000          + 6827  		DD	.DWLopt58	;;     operand
000001eb  3D                  6828  		DC	0x3d	;; SPECIAL 61
000001ec  000502              6829  		DC	0x0,0x5,0x2	;; DW_LNE_set_address
000001ef  00000000          + 6830  		DD	.DWLopt59	;;     operand
000001f3  38                  6831  		DC	0x38	;; SPECIAL 56
000001f4  000502              6832  		DC	0x0,0x5,0x2	;; DW_LNE_set_address
000001f7  00000000          + 6833  		DD	.DWLopt60	;;     operand
000001fb  3D                  6834  		DC	0x3d	;; SPECIAL 61
000001fc  000502              6835  		DC	0x0,0x5,0x2	;; DW_LNE_set_address
000001ff  00000000          + 6836  		DD	.DWLopt61	;;     operand
00000203  3C                  6837  		DC	0x3c	;; SPECIAL 60
00000204  06                  6838  		DC	0x6	;; DW_LNS_negate_stmt
00000205  000502              6839  		DC	0x0,0x5,0x2	;; DW_LNE_set_address
00000208  00000000          + 6840  		DD	.LDW27	;;     operand
0000020c  000101              6841  		DC	0x0,0x1,0x1	;; DW_LNE_end_sequence
0000020f  000502              6842  		DC	0x0,0x5,0x2	;; DW_LNE_set_address
00000212  00000000          + 6843  		DD	.DWLopt62	;;     operand
00000216  03                  6844  		DC	0x3	;; DW_LNS_advance_line
00000217  E802                6845  		DC	0xe8,0x2	;; 360
00000219  01                  6846  		DC	0x1	;; DW_LNS_copy
0000021a  000502              6847  		DC	0x0,0x5,0x2	;; DW_LNE_set_address
0000021d  00000000          + 6848  		DD	.DWLopt63	;;     operand
00000221  3C                  6849  		DC	0x3c	;; SPECIAL 60
00000222  000502              6850  		DC	0x0,0x5,0x2	;; DW_LNE_set_address
00000225  00000000          + 6851  		DD	.DWLopt64	;;     operand
00000229  3B                  6852  		DC	0x3b	;; SPECIAL 59
0000022a  000502              6853  		DC	0x0,0x5,0x2	;; DW_LNE_set_address
0000022d  00000000          + 6854  		DD	.DWLopt65	;;     operand
00000231  3C                  6855  		DC	0x3c	;; SPECIAL 60
00000232  000502              6856  		DC	0x0,0x5,0x2	;; DW_LNE_set_address
00000235  00000000          + 6857  		DD	.DWLopt66	;;     operand
00000239  3B                  6858  		DC	0x3b	;; SPECIAL 59
0000023a  000502              6859  		DC	0x0,0x5,0x2	;; DW_LNE_set_address
0000023d  00000000          + 6860  		DD	.DWLopt67	;;     operand
00000241  3D                  6861  		DC	0x3d	;; SPECIAL 61
00000242  06                  6862  		DC	0x6	;; DW_LNS_negate_stmt
00000243  000502              6863  		DC	0x0,0x5,0x2	;; DW_LNE_set_address
00000246  00000000          + 6864  		DD	.LDW28	;;     operand
0000024a  000101              6865  		DC	0x0,0x1,0x1	;; DW_LNE_end_sequence
0000024d  000502              6866  		DC	0x0,0x5,0x2	;; DW_LNE_set_address
00000250  00000000          + 6867  		DD	.DWLopt86	;;     operand
00000254  03                  6868  		DC	0x3	;; DW_LNS_advance_line
00000255  FA02                6869  		DC	0xfa,0x2	;; 378
00000257  01                  6870  		DC	0x1	;; DW_LNS_copy
00000258  000502              6871  		DC	0x0,0x5,0x2	;; DW_LNE_set_address
0000025b  00000000          + 6872  		DD	.DWLopt87	;;     operand
0000025f  42                  6873  		DC	0x42	;; SPECIAL 66
00000260  000502              6874  		DC	0x0,0x5,0x2	;; DW_LNE_set_address
00000263  00000000          + 6875  		DD	.DWLopt88	;;     operand
00000267  36                  6876  		DC	0x36	;; SPECIAL 54
00000268  000502              6877  		DC	0x0,0x5,0x2	;; DW_LNE_set_address
0000026b  00000000          + 6878  		DD	.DWLopt89	;;     operand
0000026f  3B                  6879  		DC	0x3b	;; SPECIAL 59
00000270  000502              6880  		DC	0x0,0x5,0x2	;; DW_LNE_set_address
00000273  00000000          + 6881  		DD	.DWLopt90	;;     operand
00000277  37                  6882  		DC	0x37	;; SPECIAL 55
00000278  06                  6883  		DC	0x6	;; DW_LNS_negate_stmt
00000279  000502              6884  		DC	0x0,0x5,0x2	;; DW_LNE_set_address
0000027c  00000000          + 6885  		DD	.DWLopt91	;;     operand
00000280  40                  6886  		DC	0x40	;; SPECIAL 64
00000281  06                  6887  		DC	0x6	;; DW_LNS_negate_stmt
00000282  000502              6888  		DC	0x0,0x5,0x2	;; DW_LNE_set_address
00000285  00000000          + 6889  		DD	.DWLopt92	;;     operand
00000289  3B                  6890  		DC	0x3b	;; SPECIAL 59
0000028a  06                  6891  		DC	0x6	;; DW_LNS_negate_stmt
0000028b  000502              6892  		DC	0x0,0x5,0x2	;; DW_LNE_set_address
0000028e  00000000          + 6893  		DD	.DWLopt93	;;     operand
00000292  39                  6894  		DC	0x39	;; SPECIAL 57
00000293  000502              6895  		DC	0x0,0x5,0x2	;; DW_LNE_set_address
00000296  00000000          + 6896  		DD	.DWLopt94	;;     operand
0000029a  3B                  6897  		DC	0x3b	;; SPECIAL 59
0000029b  06                  6898  		DC	0x6	;; DW_LNS_negate_stmt
0000029c  000502              6899  		DC	0x0,0x5,0x2	;; DW_LNE_set_address
0000029f  00000000          + 6900  		DD	.DWLopt95	;;     operand
000002a3  3C                  6901  		DC	0x3c	;; SPECIAL 60
000002a4  06                  6902  		DC	0x6	;; DW_LNS_negate_stmt
000002a5  000502              6903  		DC	0x0,0x5,0x2	;; DW_LNE_set_address
000002a8  00000000          + 6904  		DD	.DWLopt96	;;     operand
000002ac  03                  6905  		DC	0x3	;; DW_LNS_advance_line
000002ad  FA7C                6906  		DC	0xfa,0x7c	;; -390
000002af  01                  6907  		DC	0x1	;; DW_LNS_copy
000002b0  000502              6908  		DC	0x0,0x5,0x2	;; DW_LNE_set_address
000002b3  00000000          + 6909  		DD	.DWLopt97	;;     operand
000002b7  03                  6910  		DC	0x3	;; DW_LNS_advance_line
000002b8  8603                6911  		DC	0x86,0x3	;; 390
000002ba  01                  6912  		DC	0x1	;; DW_LNS_copy
000002bb  06                  6913  		DC	0x6	;; DW_LNS_negate_stmt
000002bc  000502              6914  		DC	0x0,0x5,0x2	;; DW_LNE_set_address
000002bf  00000000          + 6915  		DD	.DWLopt98	;;     operand
000002c3  3F                  6916  		DC	0x3f	;; SPECIAL 63
000002c4  000502              6917  		DC	0x0,0x5,0x2	;; DW_LNE_set_address
000002c7  00000000          + 6918  		DD	.DWLopt99	;;     operand
000002cb  3E                  6919  		DC	0x3e	;; SPECIAL 62
000002cc  000502              6920  		DC	0x0,0x5,0x2	;; DW_LNE_set_address
000002cf  00000000          + 6921  		DD	.DWLopt100	;;     operand
000002d3  39                  6922  		DC	0x39	;; SPECIAL 57
000002d4  06                  6923  		DC	0x6	;; DW_LNS_negate_stmt
000002d5  000502              6924  		DC	0x0,0x5,0x2	;; DW_LNE_set_address
000002d8  00000000          + 6925  		DD	.DWLopt101	;;     operand
000002dc  3B                  6926  		DC	0x3b	;; SPECIAL 59
000002dd  06                  6927  		DC	0x6	;; DW_LNS_negate_stmt
000002de  000502              6928  		DC	0x0,0x5,0x2	;; DW_LNE_set_address
000002e1  00000000          + 6929  		DD	.DWLopt102	;;     operand
000002e5  3C                  6930  		DC	0x3c	;; SPECIAL 60
000002e6  000502              6931  		DC	0x0,0x5,0x2	;; DW_LNE_set_address
000002e9  00000000          + 6932  		DD	.DWLopt103	;;     operand
000002ed  3C                  6933  		DC	0x3c	;; SPECIAL 60
000002ee  000502              6934  		DC	0x0,0x5,0x2	;; DW_LNE_set_address
000002f1  00000000          + 6935  		DD	.DWLopt104	;;     operand
000002f5  3D                  6936  		DC	0x3d	;; SPECIAL 61
000002f6  000502              6937  		DC	0x0,0x5,0x2	;; DW_LNE_set_address
000002f9  00000000          + 6938  		DD	.DWLopt105	;;     operand
000002fd  3D                  6939  		DC	0x3d	;; SPECIAL 61
000002fe  000502              6940  		DC	0x0,0x5,0x2	;; DW_LNE_set_address
00000301  00000000          + 6941  		DD	.DWLopt106	;;     operand
00000305  3E                  6942  		DC	0x3e	;; SPECIAL 62
00000306  000502              6943  		DC	0x0,0x5,0x2	;; DW_LNE_set_address
00000309  00000000          + 6944  		DD	.DWLopt107	;;     operand
0000030d  39                  6945  		DC	0x39	;; SPECIAL 57
0000030e  06                  6946  		DC	0x6	;; DW_LNS_negate_stmt
0000030f  000502              6947  		DC	0x0,0x5,0x2	;; DW_LNE_set_address
00000312  00000000          + 6948  		DD	.DWLopt108	;;     operand
00000316  3B                  6949  		DC	0x3b	;; SPECIAL 59
00000317  06                  6950  		DC	0x6	;; DW_LNS_negate_stmt
00000318  000502              6951  		DC	0x0,0x5,0x2	;; DW_LNE_set_address
0000031b  00000000          + 6952  		DD	.DWLopt109	;;     operand
0000031f  3E                  6953  		DC	0x3e	;; SPECIAL 62
00000320  000502              6954  		DC	0x0,0x5,0x2	;; DW_LNE_set_address
00000323  00000000          + 6955  		DD	.DWLopt110	;;     operand
00000327  3E                  6956  		DC	0x3e	;; SPECIAL 62
00000328  000502              6957  		DC	0x0,0x5,0x2	;; DW_LNE_set_address
0000032b  00000000          + 6958  		DD	.DWLopt111	;;     operand
0000032f  39                  6959  		DC	0x39	;; SPECIAL 57
00000330  06                  6960  		DC	0x6	;; DW_LNS_negate_stmt
00000331  000502              6961  		DC	0x0,0x5,0x2	;; DW_LNE_set_address
00000334  00000000          + 6962  		DD	.DWLopt112	;;     operand
00000338  3B                  6963  		DC	0x3b	;; SPECIAL 59
00000339  06                  6964  		DC	0x6	;; DW_LNS_negate_stmt
0000033a  000502              6965  		DC	0x0,0x5,0x2	;; DW_LNE_set_address
0000033d  00000000          + 6966  		DD	.DWLopt113	;;     operand
00000341  3C                  6967  		DC	0x3c	;; SPECIAL 60
00000342  000502              6968  		DC	0x0,0x5,0x2	;; DW_LNE_set_address
00000345  00000000          + 6969  		DD	.DWLopt114	;;     operand
00000349  32                  6970  		DC	0x32	;; SPECIAL 50
0000034a  000502              6971  		DC	0x0,0x5,0x2	;; DW_LNE_set_address
0000034d  00000000          + 6972  		DD	.DWLopt115	;;     operand
00000351  44                  6973  		DC	0x44	;; SPECIAL 68
00000352  000502              6974  		DC	0x0,0x5,0x2	;; DW_LNE_set_address
00000355  00000000          + 6975  		DD	.DWLopt116	;;     operand
00000359  3D                  6976  		DC	0x3d	;; SPECIAL 61
0000035a  000502              6977  		DC	0x0,0x5,0x2	;; DW_LNE_set_address
0000035d  00000000          + 6978  		DD	.DWLopt117	;;     operand
00000361  3B                  6979  		DC	0x3b	;; SPECIAL 59
00000362  000502              6980  		DC	0x0,0x5,0x2	;; DW_LNE_set_address
00000365  00000000          + 6981  		DD	.DWLopt118	;;     operand
00000369  3B                  6982  		DC	0x3b	;; SPECIAL 59
0000036a  000502              6983  		DC	0x0,0x5,0x2	;; DW_LNE_set_address
0000036d  00000000          + 6984  		DD	.DWLopt119	;;     operand
00000371  3D                  6985  		DC	0x3d	;; SPECIAL 61
00000372  000502              6986  		DC	0x0,0x5,0x2	;; DW_LNE_set_address
00000375  00000000          + 6987  		DD	.DWLopt120	;;     operand
00000379  3B                  6988  		DC	0x3b	;; SPECIAL 59
0000037a  000502              6989  		DC	0x0,0x5,0x2	;; DW_LNE_set_address
0000037d  00000000          + 6990  		DD	.DWLopt121	;;     operand
00000381  3B                  6991  		DC	0x3b	;; SPECIAL 59
00000382  000502              6992  		DC	0x0,0x5,0x2	;; DW_LNE_set_address
00000385  00000000          + 6993  		DD	.DWLopt122	;;     operand
00000389  42                  6994  		DC	0x42	;; SPECIAL 66
0000038a  000502              6995  		DC	0x0,0x5,0x2	;; DW_LNE_set_address
0000038d  00000000          + 6996  		DD	.DWLopt123	;;     operand
00000391  35                  6997  		DC	0x35	;; SPECIAL 53
00000392  000502              6998  		DC	0x0,0x5,0x2	;; DW_LNE_set_address
00000395  00000000          + 6999  		DD	.DWLopt124	;;     operand
00000399  40                  7000  		DC	0x40	;; SPECIAL 64
0000039a  000502              7001  		DC	0x0,0x5,0x2	;; DW_LNE_set_address
0000039d  00000000          + 7002  		DD	.DWLopt125	;;     operand
000003a1  35                  7003  		DC	0x35	;; SPECIAL 53
000003a2  000502              7004  		DC	0x0,0x5,0x2	;; DW_LNE_set_address
000003a5  00000000          + 7005  		DD	.DWLopt126	;;     operand
000003a9  40                  7006  		DC	0x40	;; SPECIAL 64
000003aa  000502              7007  		DC	0x0,0x5,0x2	;; DW_LNE_set_address
000003ad  00000000          + 7008  		DD	.DWLopt127	;;     operand
000003b1  3F                  7009  		DC	0x3f	;; SPECIAL 63
000003b2  000502              7010  		DC	0x0,0x5,0x2	;; DW_LNE_set_address
000003b5  00000000          + 7011  		DD	.DWLopt128	;;     operand
000003b9  38                  7012  		DC	0x38	;; SPECIAL 56
000003ba  06                  7013  		DC	0x6	;; DW_LNS_negate_stmt
000003bb  000502              7014  		DC	0x0,0x5,0x2	;; DW_LNE_set_address
000003be  00000000          + 7015  		DD	.DWLopt129	;;     operand
000003c2  3C                  7016  		DC	0x3c	;; SPECIAL 60
000003c3  06                  7017  		DC	0x6	;; DW_LNS_negate_stmt
000003c4  000502              7018  		DC	0x0,0x5,0x2	;; DW_LNE_set_address
000003c7  00000000          + 7019  		DD	.DWLopt130	;;     operand
000003cb  3E                  7020  		DC	0x3e	;; SPECIAL 62
000003cc  000502              7021  		DC	0x0,0x5,0x2	;; DW_LNE_set_address
000003cf  00000000          + 7022  		DD	.DWLopt131	;;     operand
000003d3  42                  7023  		DC	0x42	;; SPECIAL 66
000003d4  000502              7024  		DC	0x0,0x5,0x2	;; DW_LNE_set_address
000003d7  00000000          + 7025  		DD	.DWLopt132	;;     operand
000003db  35                  7026  		DC	0x35	;; SPECIAL 53
000003dc  000502              7027  		DC	0x0,0x5,0x2	;; DW_LNE_set_address
000003df  00000000          + 7028  		DD	.DWLopt133	;;     operand
000003e3  40                  7029  		DC	0x40	;; SPECIAL 64
000003e4  000502              7030  		DC	0x0,0x5,0x2	;; DW_LNE_set_address
000003e7  00000000          + 7031  		DD	.DWLopt134	;;     operand
000003eb  2F                  7032  		DC	0x2f	;; SPECIAL 47
000003ec  000502              7033  		DC	0x0,0x5,0x2	;; DW_LNE_set_address
000003ef  00000000          + 7034  		DD	.DWLopt135	;;     operand
000003f3  40                  7035  		DC	0x40	;; SPECIAL 64
000003f4  000502              7036  		DC	0x0,0x5,0x2	;; DW_LNE_set_address
000003f7  00000000          + 7037  		DD	.DWLopt136	;;     operand
000003fb  40                  7038  		DC	0x40	;; SPECIAL 64
000003fc  000502              7039  		DC	0x0,0x5,0x2	;; DW_LNE_set_address
000003ff  00000000          + 7040  		DD	.DWLopt137	;;     operand
00000403  42                  7041  		DC	0x42	;; SPECIAL 66
00000404  000502              7042  		DC	0x0,0x5,0x2	;; DW_LNE_set_address
00000407  00000000          + 7043  		DD	.DWLopt138	;;     operand
0000040b  35                  7044  		DC	0x35	;; SPECIAL 53
0000040c  000502              7045  		DC	0x0,0x5,0x2	;; DW_LNE_set_address
0000040f  00000000          + 7046  		DD	.DWLopt139	;;     operand
00000413  40                  7047  		DC	0x40	;; SPECIAL 64
00000414  000502              7048  		DC	0x0,0x5,0x2	;; DW_LNE_set_address
00000417  00000000          + 7049  		DD	.DWLopt140	;;     operand
0000041b  35                  7050  		DC	0x35	;; SPECIAL 53
0000041c  000502              7051  		DC	0x0,0x5,0x2	;; DW_LNE_set_address
0000041f  00000000          + 7052  		DD	.DWLopt141	;;     operand
00000423  40                  7053  		DC	0x40	;; SPECIAL 64
00000424  000502              7054  		DC	0x0,0x5,0x2	;; DW_LNE_set_address
00000427  00000000          + 7055  		DD	.DWLopt142	;;     operand
0000042b  3C                  7056  		DC	0x3c	;; SPECIAL 60
0000042c  000502              7057  		DC	0x0,0x5,0x2	;; DW_LNE_set_address
0000042f  00000000          + 7058  		DD	.DWLopt143	;;     operand
00000433  3B                  7059  		DC	0x3b	;; SPECIAL 59
00000434  000502              7060  		DC	0x0,0x5,0x2	;; DW_LNE_set_address
00000437  00000000          + 7061  		DD	.DWLopt144	;;     operand
0000043b  3C                  7062  		DC	0x3c	;; SPECIAL 60
0000043c  000502              7063  		DC	0x0,0x5,0x2	;; DW_LNE_set_address
0000043f  00000000          + 7064  		DD	.DWLopt145	;;     operand
00000443  3D                  7065  		DC	0x3d	;; SPECIAL 61
00000444  000502              7066  		DC	0x0,0x5,0x2	;; DW_LNE_set_address
00000447  00000000          + 7067  		DD	.DWLopt146	;;     operand
0000044b  03                  7068  		DC	0x3	;; DW_LNS_advance_line
0000044c  A77F                7069  		DC	0xa7,0x7f	;; -89
0000044e  01                  7070  		DC	0x1	;; DW_LNS_copy
0000044f  06                  7071  		DC	0x6	;; DW_LNS_negate_stmt
00000450  000502              7072  		DC	0x0,0x5,0x2	;; DW_LNE_set_address
00000453  00000000          + 7073  		DD	.DWLopt147	;;     operand
00000457  93                  7074  		DC	0x93	;; SPECIAL 147
00000458  000502              7075  		DC	0x0,0x5,0x2	;; DW_LNE_set_address
0000045b  00000000          + 7076  		DD	.DWLopt148	;;     operand
0000045f  03                  7077  		DC	0x3	;; DW_LNS_advance_line
00000460  A77F                7078  		DC	0xa7,0x7f	;; -89
00000462  01                  7079  		DC	0x1	;; DW_LNS_copy
00000463  000502              7080  		DC	0x0,0x5,0x2	;; DW_LNE_set_address
00000466  00000000          + 7081  		DD	.DWLopt149	;;     operand
0000046a  47                  7082  		DC	0x47	;; SPECIAL 71
0000046b  06                  7083  		DC	0x6	;; DW_LNS_negate_stmt
0000046c  000502              7084  		DC	0x0,0x5,0x2	;; DW_LNE_set_address
0000046f  00000000          + 7085  		DD	.DWLopt150	;;     operand
00000473  87                  7086  		DC	0x87	;; SPECIAL 135
00000474  000502              7087  		DC	0x0,0x5,0x2	;; DW_LNE_set_address
00000477  00000000          + 7088  		DD	.DWLopt151	;;     operand
0000047b  03                  7089  		DC	0x3	;; DW_LNS_advance_line
0000047c  A77F                7090  		DC	0xa7,0x7f	;; -89
0000047e  01                  7091  		DC	0x1	;; DW_LNS_copy
0000047f  06                  7092  		DC	0x6	;; DW_LNS_negate_stmt
00000480  000502              7093  		DC	0x0,0x5,0x2	;; DW_LNE_set_address
00000483  00000000          + 7094  		DD	.DWLopt152	;;     operand
00000487  41                  7095  		DC	0x41	;; SPECIAL 65
00000488  06                  7096  		DC	0x6	;; DW_LNS_negate_stmt
00000489  000502              7097  		DC	0x0,0x5,0x2	;; DW_LNE_set_address
0000048c  00000000          + 7098  		DD	.DWLopt153	;;     operand
00000490  40                  7099  		DC	0x40	;; SPECIAL 64
00000491  06                  7100  		DC	0x6	;; DW_LNS_negate_stmt
00000492  000502              7101  		DC	0x0,0x5,0x2	;; DW_LNE_set_address
00000495  00000000          + 7102  		DD	.DWLopt154	;;     operand
00000499  42                  7103  		DC	0x42	;; SPECIAL 66
0000049a  000502              7104  		DC	0x0,0x5,0x2	;; DW_LNE_set_address
0000049d  00000000          + 7105  		DD	.DWLopt155	;;     operand
000004a1  42                  7106  		DC	0x42	;; SPECIAL 66
000004a2  000502              7107  		DC	0x0,0x5,0x2	;; DW_LNE_set_address
000004a5  00000000          + 7108  		DD	.DWLopt156	;;     operand
000004a9  40                  7109  		DC	0x40	;; SPECIAL 64
000004aa  000502              7110  		DC	0x0,0x5,0x2	;; DW_LNE_set_address
000004ad  00000000          + 7111  		DD	.DWLopt157	;;     operand
000004b1  3F                  7112  		DC	0x3f	;; SPECIAL 63
000004b2  000502              7113  		DC	0x0,0x5,0x2	;; DW_LNE_set_address
000004b5  00000000          + 7114  		DD	.DWLopt158	;;     operand
000004b9  3F                  7115  		DC	0x3f	;; SPECIAL 63
000004ba  000502              7116  		DC	0x0,0x5,0x2	;; DW_LNE_set_address
000004bd  00000000          + 7117  		DD	.DWLopt159	;;     operand
000004c1  3F                  7118  		DC	0x3f	;; SPECIAL 63
000004c2  000502              7119  		DC	0x0,0x5,0x2	;; DW_LNE_set_address
000004c5  00000000          + 7120  		DD	.DWLopt160	;;     operand
000004c9  42                  7121  		DC	0x42	;; SPECIAL 66
000004ca  000502              7122  		DC	0x0,0x5,0x2	;; DW_LNE_set_address
000004cd  00000000          + 7123  		DD	.DWLopt161	;;     operand
000004d1  40                  7124  		DC	0x40	;; SPECIAL 64
000004d2  000502              7125  		DC	0x0,0x5,0x2	;; DW_LNE_set_address
000004d5  00000000          + 7126  		DD	.DWLopt162	;;     operand
000004d9  3F                  7127  		DC	0x3f	;; SPECIAL 63
000004da  000502              7128  		DC	0x0,0x5,0x2	;; DW_LNE_set_address
000004dd  00000000          + 7129  		DD	.DWLopt163	;;     operand
000004e1  3F                  7130  		DC	0x3f	;; SPECIAL 63
000004e2  000502              7131  		DC	0x0,0x5,0x2	;; DW_LNE_set_address
000004e5  00000000          + 7132  		DD	.DWLopt164	;;     operand
000004e9  3F                  7133  		DC	0x3f	;; SPECIAL 63
000004ea  000502              7134  		DC	0x0,0x5,0x2	;; DW_LNE_set_address
000004ed  00000000          + 7135  		DD	.DWLopt165	;;     operand
000004f1  3E                  7136  		DC	0x3e	;; SPECIAL 62
000004f2  06                  7137  		DC	0x6	;; DW_LNS_negate_stmt
000004f3  000502              7138  		DC	0x0,0x5,0x2	;; DW_LNE_set_address
000004f6  00000000          + 7139  		DD	.DWLopt166	;;     operand
000004fa  44                  7140  		DC	0x44	;; SPECIAL 68
000004fb  000502              7141  		DC	0x0,0x5,0x2	;; DW_LNE_set_address
000004fe  00000000          + 7142  		DD	.DWLopt167	;;     operand
00000502  3C                  7143  		DC	0x3c	;; SPECIAL 60
00000503  06                  7144  		DC	0x6	;; DW_LNS_negate_stmt
00000504  000502              7145  		DC	0x0,0x5,0x2	;; DW_LNE_set_address
00000507  00000000          + 7146  		DD	.DWLopt168	;;     operand
0000050b  38                  7147  		DC	0x38	;; SPECIAL 56
0000050c  06                  7148  		DC	0x6	;; DW_LNS_negate_stmt
0000050d  000502              7149  		DC	0x0,0x5,0x2	;; DW_LNE_set_address
00000510  00000000          + 7150  		DD	.DWLopt169	;;     operand
00000514  3D                  7151  		DC	0x3d	;; SPECIAL 61
00000515  000502              7152  		DC	0x0,0x5,0x2	;; DW_LNE_set_address
00000518  00000000          + 7153  		DD	.DWLopt170	;;     operand
0000051c  3B                  7154  		DC	0x3b	;; SPECIAL 59
0000051d  000502              7155  		DC	0x0,0x5,0x2	;; DW_LNE_set_address
00000520  00000000          + 7156  		DD	.DWLopt171	;;     operand
00000524  3B                  7157  		DC	0x3b	;; SPECIAL 59
00000525  000502              7158  		DC	0x0,0x5,0x2	;; DW_LNE_set_address
00000528  00000000          + 7159  		DD	.DWLopt172	;;     operand
0000052c  3B                  7160  		DC	0x3b	;; SPECIAL 59
0000052d  000502              7161  		DC	0x0,0x5,0x2	;; DW_LNE_set_address
00000530  00000000          + 7162  		DD	.DWLopt173	;;     operand
00000534  3B                  7163  		DC	0x3b	;; SPECIAL 59
00000535  000502              7164  		DC	0x0,0x5,0x2	;; DW_LNE_set_address
00000538  00000000          + 7165  		DD	.DWLopt174	;;     operand
0000053c  3D                  7166  		DC	0x3d	;; SPECIAL 61
0000053d  000502              7167  		DC	0x0,0x5,0x2	;; DW_LNE_set_address
00000540  00000000          + 7168  		DD	.DWLopt175	;;     operand
00000544  3C                  7169  		DC	0x3c	;; SPECIAL 60
00000545  000502              7170  		DC	0x0,0x5,0x2	;; DW_LNE_set_address
00000548  00000000          + 7171  		DD	.DWLopt176	;;     operand
0000054c  3F                  7172  		DC	0x3f	;; SPECIAL 63
0000054d  000502              7173  		DC	0x0,0x5,0x2	;; DW_LNE_set_address
00000550  00000000          + 7174  		DD	.DWLopt177	;;     operand
00000554  37                  7175  		DC	0x37	;; SPECIAL 55
00000555  06                  7176  		DC	0x6	;; DW_LNS_negate_stmt
00000556  000502              7177  		DC	0x0,0x5,0x2	;; DW_LNE_set_address
00000559  00000000          + 7178  		DD	.DWLopt178	;;     operand
0000055d  3D                  7179  		DC	0x3d	;; SPECIAL 61
0000055e  06                  7180  		DC	0x6	;; DW_LNS_negate_stmt
0000055f  000502              7181  		DC	0x0,0x5,0x2	;; DW_LNE_set_address
00000562  00000000          + 7182  		DD	.DWLopt179	;;     operand
00000566  3B                  7183  		DC	0x3b	;; SPECIAL 59
00000567  000502              7184  		DC	0x0,0x5,0x2	;; DW_LNE_set_address
0000056a  00000000          + 7185  		DD	.DWLopt180	;;     operand
0000056e  3C                  7186  		DC	0x3c	;; SPECIAL 60
0000056f  06                  7187  		DC	0x6	;; DW_LNS_negate_stmt
00000570  000502              7188  		DC	0x0,0x5,0x2	;; DW_LNE_set_address
00000573  00000000          + 7189  		DD	.DWLopt181	;;     operand
00000577  34                  7190  		DC	0x34	;; SPECIAL 52
00000578  000502              7191  		DC	0x0,0x5,0x2	;; DW_LNE_set_address
0000057b  00000000          + 7192  		DD	.DWLopt182	;;     operand
0000057f  40                  7193  		DC	0x40	;; SPECIAL 64
00000580  06                  7194  		DC	0x6	;; DW_LNS_negate_stmt
00000581  000502              7195  		DC	0x0,0x5,0x2	;; DW_LNE_set_address
00000584  00000000          + 7196  		DD	.DWLopt183	;;     operand
00000588  3C                  7197  		DC	0x3c	;; SPECIAL 60
00000589  000502              7198  		DC	0x0,0x5,0x2	;; DW_LNE_set_address
0000058c  00000000          + 7199  		DD	.DWLopt184	;;     operand
00000590  3E                  7200  		DC	0x3e	;; SPECIAL 62
00000591  000502              7201  		DC	0x0,0x5,0x2	;; DW_LNE_set_address
00000594  00000000          + 7202  		DD	.DWLopt185	;;     operand
00000598  3D                  7203  		DC	0x3d	;; SPECIAL 61
00000599  000502              7204  		DC	0x0,0x5,0x2	;; DW_LNE_set_address
0000059c  00000000          + 7205  		DD	.DWLopt186	;;     operand
000005a0  3F                  7206  		DC	0x3f	;; SPECIAL 63
000005a1  06                  7207  		DC	0x6	;; DW_LNS_negate_stmt
000005a2  000502              7208  		DC	0x0,0x5,0x2	;; DW_LNE_set_address
000005a5  00000000          + 7209  		DD	.DWLopt187	;;     operand
000005a9  35                  7210  		DC	0x35	;; SPECIAL 53
000005aa  06                  7211  		DC	0x6	;; DW_LNS_negate_stmt
000005ab  000502              7212  		DC	0x0,0x5,0x2	;; DW_LNE_set_address
000005ae  00000000          + 7213  		DD	.DWLopt188	;;     operand
000005b2  3C                  7214  		DC	0x3c	;; SPECIAL 60
000005b3  06                  7215  		DC	0x6	;; DW_LNS_negate_stmt
000005b4  000502              7216  		DC	0x0,0x5,0x2	;; DW_LNE_set_address
000005b7  00000000          + 7217  		DD	.DWLopt189	;;     operand
000005bb  3D                  7218  		DC	0x3d	;; SPECIAL 61
000005bc  000502              7219  		DC	0x0,0x5,0x2	;; DW_LNE_set_address
000005bf  00000000          + 7220  		DD	.DWLopt190	;;     operand
000005c3  37                  7221  		DC	0x37	;; SPECIAL 55
000005c4  06                  7222  		DC	0x6	;; DW_LNS_negate_stmt
000005c5  000502              7223  		DC	0x0,0x5,0x2	;; DW_LNE_set_address
000005c8  00000000          + 7224  		DD	.DWLopt191	;;     operand
000005cc  3F                  7225  		DC	0x3f	;; SPECIAL 63
000005cd  06                  7226  		DC	0x6	;; DW_LNS_negate_stmt
000005ce  000502              7227  		DC	0x0,0x5,0x2	;; DW_LNE_set_address
000005d1  00000000          + 7228  		DD	.DWLopt192	;;     operand
000005d5  38                  7229  		DC	0x38	;; SPECIAL 56
000005d6  06                  7230  		DC	0x6	;; DW_LNS_negate_stmt
000005d7  000502              7231  		DC	0x0,0x5,0x2	;; DW_LNE_set_address
000005da  00000000          + 7232  		DD	.DWLopt193	;;     operand
000005de  3E                  7233  		DC	0x3e	;; SPECIAL 62
000005df  000502              7234  		DC	0x0,0x5,0x2	;; DW_LNE_set_address
000005e2  00000000          + 7235  		DD	.DWLopt194	;;     operand
000005e6  6A                  7236  		DC	0x6a	;; SPECIAL 106
000005e7  06                  7237  		DC	0x6	;; DW_LNS_negate_stmt
000005e8  000502              7238  		DC	0x0,0x5,0x2	;; DW_LNE_set_address
000005eb  00000000          + 7239  		DD	.DWLopt195	;;     operand
000005ef  0A                  7240  		DC	0xa	;; SPECIAL 10
000005f0  06                  7241  		DC	0x6	;; DW_LNS_negate_stmt
000005f1  000502              7242  		DC	0x0,0x5,0x2	;; DW_LNE_set_address
000005f4  00000000          + 7243  		DD	.DWLopt196	;;     operand
000005f8  3D                  7244  		DC	0x3d	;; SPECIAL 61
000005f9  000502              7245  		DC	0x0,0x5,0x2	;; DW_LNE_set_address
000005fc  00000000          + 7246  		DD	.DWLopt197	;;     operand
00000600  3D                  7247  		DC	0x3d	;; SPECIAL 61
00000601  000502              7248  		DC	0x0,0x5,0x2	;; DW_LNE_set_address
00000604  00000000          + 7249  		DD	.DWLopt198	;;     operand
00000608  3D                  7250  		DC	0x3d	;; SPECIAL 61
00000609  000502              7251  		DC	0x0,0x5,0x2	;; DW_LNE_set_address
0000060c  00000000          + 7252  		DD	.DWLopt199	;;     operand
00000610  39                  7253  		DC	0x39	;; SPECIAL 57
00000611  06                  7254  		DC	0x6	;; DW_LNS_negate_stmt
00000612  000502              7255  		DC	0x0,0x5,0x2	;; DW_LNE_set_address
00000615  00000000          + 7256  		DD	.DWLopt200	;;     operand
00000619  3B                  7257  		DC	0x3b	;; SPECIAL 59
0000061a  000502              7258  		DC	0x0,0x5,0x2	;; DW_LNE_set_address
0000061d  00000000          + 7259  		DD	.DWLopt201	;;     operand
00000621  03                  7260  		DC	0x3	;; DW_LNS_advance_line
00000622  EA7B                7261  		DC	0xea,0x7b	;; -534
00000624  01                  7262  		DC	0x1	;; DW_LNS_copy
00000625  06                  7263  		DC	0x6	;; DW_LNS_negate_stmt
00000626  000502              7264  		DC	0x0,0x5,0x2	;; DW_LNE_set_address
00000629  00000000          + 7265  		DD	.DWLopt202	;;     operand
0000062d  03                  7266  		DC	0x3	;; DW_LNS_advance_line
0000062e  9C04                7267  		DC	0x9c,0x4	;; 540
00000630  01                  7268  		DC	0x1	;; DW_LNS_copy
00000631  000502              7269  		DC	0x0,0x5,0x2	;; DW_LNE_set_address
00000634  00000000          + 7270  		DD	.DWLopt203	;;     operand
00000638  3C                  7271  		DC	0x3c	;; SPECIAL 60
00000639  000502              7272  		DC	0x0,0x5,0x2	;; DW_LNE_set_address
0000063c  00000000          + 7273  		DD	.DWLopt204	;;     operand
00000640  3D                  7274  		DC	0x3d	;; SPECIAL 61
00000641  000502              7275  		DC	0x0,0x5,0x2	;; DW_LNE_set_address
00000644  00000000          + 7276  		DD	.DWLopt205	;;     operand
00000648  39                  7277  		DC	0x39	;; SPECIAL 57
00000649  06                  7278  		DC	0x6	;; DW_LNS_negate_stmt
0000064a  000502              7279  		DC	0x0,0x5,0x2	;; DW_LNE_set_address
0000064d  00000000          + 7280  		DD	.DWLopt206	;;     operand
00000651  3B                  7281  		DC	0x3b	;; SPECIAL 59
00000652  000502              7282  		DC	0x0,0x5,0x2	;; DW_LNE_set_address
00000655  00000000          + 7283  		DD	.DWLopt207	;;     operand
00000659  03                  7284  		DC	0x3	;; DW_LNS_advance_line
0000065a  DF7B                7285  		DC	0xdf,0x7b	;; -545
0000065c  01                  7286  		DC	0x1	;; DW_LNS_copy
0000065d  06                  7287  		DC	0x6	;; DW_LNS_negate_stmt
0000065e  000502              7288  		DC	0x0,0x5,0x2	;; DW_LNE_set_address
00000661  00000000          + 7289  		DD	.DWLopt208	;;     operand
00000665  03                  7290  		DC	0x3	;; DW_LNS_advance_line
00000666  A704                7291  		DC	0xa7,0x4	;; 551
00000668  01                  7292  		DC	0x1	;; DW_LNS_copy
00000669  000502              7293  		DC	0x0,0x5,0x2	;; DW_LNE_set_address
0000066c  00000000          + 7294  		DD	.DWLopt209	;;     operand
00000670  3C                  7295  		DC	0x3c	;; SPECIAL 60
00000671  000502              7296  		DC	0x0,0x5,0x2	;; DW_LNE_set_address
00000674  00000000          + 7297  		DD	.DWLopt210	;;     operand
00000678  3D                  7298  		DC	0x3d	;; SPECIAL 61
00000679  000502              7299  		DC	0x0,0x5,0x2	;; DW_LNE_set_address
0000067c  00000000          + 7300  		DD	.DWLopt211	;;     operand
00000680  39                  7301  		DC	0x39	;; SPECIAL 57
00000681  06                  7302  		DC	0x6	;; DW_LNS_negate_stmt
00000682  000502              7303  		DC	0x0,0x5,0x2	;; DW_LNE_set_address
00000685  00000000          + 7304  		DD	.DWLopt212	;;     operand
00000689  3B                  7305  		DC	0x3b	;; SPECIAL 59
0000068a  000502              7306  		DC	0x0,0x5,0x2	;; DW_LNE_set_address
0000068d  00000000          + 7307  		DD	.DWLopt213	;;     operand
00000691  03                  7308  		DC	0x3	;; DW_LNS_advance_line
00000692  D47B                7309  		DC	0xd4,0x7b	;; -556
00000694  01                  7310  		DC	0x1	;; DW_LNS_copy
00000695  06                  7311  		DC	0x6	;; DW_LNS_negate_stmt
00000696  000502              7312  		DC	0x0,0x5,0x2	;; DW_LNE_set_address
00000699  00000000          + 7313  		DD	.DWLopt214	;;     operand
0000069d  03                  7314  		DC	0x3	;; DW_LNS_advance_line
0000069e  B504                7315  		DC	0xb5,0x4	;; 565
000006a0  01                  7316  		DC	0x1	;; DW_LNS_copy
000006a1  000502              7317  		DC	0x0,0x5,0x2	;; DW_LNE_set_address
000006a4  00000000          + 7318  		DD	.DWLopt215	;;     operand
000006a8  39                  7319  		DC	0x39	;; SPECIAL 57
000006a9  06                  7320  		DC	0x6	;; DW_LNS_negate_stmt
000006aa  000502              7321  		DC	0x0,0x5,0x2	;; DW_LNE_set_address
000006ad  00000000          + 7322  		DD	.DWLopt216	;;     operand
000006b1  3B                  7323  		DC	0x3b	;; SPECIAL 59
000006b2  06                  7324  		DC	0x6	;; DW_LNS_negate_stmt
000006b3  000502              7325  		DC	0x0,0x5,0x2	;; DW_LNE_set_address
000006b6  00000000          + 7326  		DD	.DWLopt217	;;     operand
000006ba  3C                  7327  		DC	0x3c	;; SPECIAL 60
000006bb  000502              7328  		DC	0x0,0x5,0x2	;; DW_LNE_set_address
000006be  00000000          + 7329  		DD	.DWLopt218	;;     operand
000006c2  1B                  7330  		DC	0x1b	;; SPECIAL 27
000006c3  000502              7331  		DC	0x0,0x5,0x2	;; DW_LNE_set_address
000006c6  00000000          + 7332  		DD	.DWLopt219	;;     operand
000006ca  45                  7333  		DC	0x45	;; SPECIAL 69
000006cb  000502              7334  		DC	0x0,0x5,0x2	;; DW_LNE_set_address
000006ce  00000000          + 7335  		DD	.DWLopt220	;;     operand
000006d2  45                  7336  		DC	0x45	;; SPECIAL 69
000006d3  000502              7337  		DC	0x0,0x5,0x2	;; DW_LNE_set_address
000006d6  00000000          + 7338  		DD	.DWLopt221	;;     operand
000006da  4B                  7339  		DC	0x4b	;; SPECIAL 75
000006db  000502              7340  		DC	0x0,0x5,0x2	;; DW_LNE_set_address
000006de  00000000          + 7341  		DD	.DWLopt222	;;     operand
000006e2  3C                  7342  		DC	0x3c	;; SPECIAL 60
000006e3  000502              7343  		DC	0x0,0x5,0x2	;; DW_LNE_set_address
000006e6  00000000          + 7344  		DD	.DWLopt223	;;     operand
000006ea  3B                  7345  		DC	0x3b	;; SPECIAL 59
000006eb  000502              7346  		DC	0x0,0x5,0x2	;; DW_LNE_set_address
000006ee  00000000          + 7347  		DD	.DWLopt224	;;     operand
000006f2  3B                  7348  		DC	0x3b	;; SPECIAL 59
000006f3  000502              7349  		DC	0x0,0x5,0x2	;; DW_LNE_set_address
000006f6  00000000          + 7350  		DD	.DWLopt225	;;     operand
000006fa  3C                  7351  		DC	0x3c	;; SPECIAL 60
000006fb  000502              7352  		DC	0x0,0x5,0x2	;; DW_LNE_set_address
000006fe  00000000          + 7353  		DD	.DWLopt226	;;     operand
00000702  3C                  7354  		DC	0x3c	;; SPECIAL 60
00000703  000502              7355  		DC	0x0,0x5,0x2	;; DW_LNE_set_address
00000706  00000000          + 7356  		DD	.DWLopt227	;;     operand
0000070a  42                  7357  		DC	0x42	;; SPECIAL 66
0000070b  000502              7358  		DC	0x0,0x5,0x2	;; DW_LNE_set_address
0000070e  00000000          + 7359  		DD	.DWLopt228	;;     operand
00000712  36                  7360  		DC	0x36	;; SPECIAL 54
00000713  06                  7361  		DC	0x6	;; DW_LNS_negate_stmt
00000714  000502              7362  		DC	0x0,0x5,0x2	;; DW_LNE_set_address
00000717  00000000          + 7363  		DD	.DWLopt229	;;     operand
0000071b  3E                  7364  		DC	0x3e	;; SPECIAL 62
0000071c  06                  7365  		DC	0x6	;; DW_LNS_negate_stmt
0000071d  000502              7366  		DC	0x0,0x5,0x2	;; DW_LNE_set_address
00000720  00000000          + 7367  		DD	.DWLopt230	;;     operand
00000724  3B                  7368  		DC	0x3b	;; SPECIAL 59
00000725  06                  7369  		DC	0x6	;; DW_LNS_negate_stmt
00000726  000502              7370  		DC	0x0,0x5,0x2	;; DW_LNE_set_address
00000729  00000000          + 7371  		DD	.DWLopt231	;;     operand
0000072d  35                  7372  		DC	0x35	;; SPECIAL 53
0000072e  000502              7373  		DC	0x0,0x5,0x2	;; DW_LNE_set_address
00000731  00000000          + 7374  		DD	.DWLopt232	;;     operand
00000735  3E                  7375  		DC	0x3e	;; SPECIAL 62
00000736  000502              7376  		DC	0x0,0x5,0x2	;; DW_LNE_set_address
00000739  00000000          + 7377  		DD	.DWLopt233	;;     operand
0000073d  36                  7378  		DC	0x36	;; SPECIAL 54
0000073e  06                  7379  		DC	0x6	;; DW_LNS_negate_stmt
0000073f  000502              7380  		DC	0x0,0x5,0x2	;; DW_LNE_set_address
00000742  00000000          + 7381  		DD	.DWLopt234	;;     operand
00000746  3B                  7382  		DC	0x3b	;; SPECIAL 59
00000747  06                  7383  		DC	0x6	;; DW_LNS_negate_stmt
00000748  000502              7384  		DC	0x0,0x5,0x2	;; DW_LNE_set_address
0000074b  00000000          + 7385  		DD	.DWLopt235	;;     operand
0000074f  3D                  7386  		DC	0x3d	;; SPECIAL 61
00000750  000502              7387  		DC	0x0,0x5,0x2	;; DW_LNE_set_address
00000753  00000000          + 7388  		DD	.DWLopt236	;;     operand
00000757  37                  7389  		DC	0x37	;; SPECIAL 55
00000758  06                  7390  		DC	0x6	;; DW_LNS_negate_stmt
00000759  000502              7391  		DC	0x0,0x5,0x2	;; DW_LNE_set_address
0000075c  00000000          + 7392  		DD	.DWLopt237	;;     operand
00000760  40                  7393  		DC	0x40	;; SPECIAL 64
00000761  06                  7394  		DC	0x6	;; DW_LNS_negate_stmt
00000762  000502              7395  		DC	0x0,0x5,0x2	;; DW_LNE_set_address
00000765  00000000          + 7396  		DD	.DWLopt238	;;     operand
00000769  37                  7397  		DC	0x37	;; SPECIAL 55
0000076a  000502              7398  		DC	0x0,0x5,0x2	;; DW_LNE_set_address
0000076d  00000000          + 7399  		DD	.DWLopt239	;;     operand
00000771  3D                  7400  		DC	0x3d	;; SPECIAL 61
00000772  06                  7401  		DC	0x6	;; DW_LNS_negate_stmt
00000773  000502              7402  		DC	0x0,0x5,0x2	;; DW_LNE_set_address
00000776  00000000          + 7403  		DD	.DWLopt240	;;     operand
0000077a  3C                  7404  		DC	0x3c	;; SPECIAL 60
0000077b  000502              7405  		DC	0x0,0x5,0x2	;; DW_LNE_set_address
0000077e  00000000          + 7406  		DD	.DWLopt241	;;     operand
00000782  3E                  7407  		DC	0x3e	;; SPECIAL 62
00000783  000502              7408  		DC	0x0,0x5,0x2	;; DW_LNE_set_address
00000786  00000000          + 7409  		DD	.DWLopt242	;;     operand
0000078a  3F                  7410  		DC	0x3f	;; SPECIAL 63
0000078b  000502              7411  		DC	0x0,0x5,0x2	;; DW_LNE_set_address
0000078e  00000000          + 7412  		DD	.DWLopt243	;;     operand
00000792  40                  7413  		DC	0x40	;; SPECIAL 64
00000793  06                  7414  		DC	0x6	;; DW_LNS_negate_stmt
00000794  000502              7415  		DC	0x0,0x5,0x2	;; DW_LNE_set_address
00000797  00000000          + 7416  		DD	.DWLopt244	;;     operand
0000079b  34                  7417  		DC	0x34	;; SPECIAL 52
0000079c  06                  7418  		DC	0x6	;; DW_LNS_negate_stmt
0000079d  000502              7419  		DC	0x0,0x5,0x2	;; DW_LNE_set_address
000007a0  00000000          + 7420  		DD	.DWLopt245	;;     operand
000007a4  3B                  7421  		DC	0x3b	;; SPECIAL 59
000007a5  000502              7422  		DC	0x0,0x5,0x2	;; DW_LNE_set_address
000007a8  00000000          + 7423  		DD	.DWLopt246	;;     operand
000007ac  3C                  7424  		DC	0x3c	;; SPECIAL 60
000007ad  000502              7425  		DC	0x0,0x5,0x2	;; DW_LNE_set_address
000007b0  00000000          + 7426  		DD	.DWLopt247	;;     operand
000007b4  3B                  7427  		DC	0x3b	;; SPECIAL 59
000007b5  000502              7428  		DC	0x0,0x5,0x2	;; DW_LNE_set_address
000007b8  00000000          + 7429  		DD	.DWLopt248	;;     operand
000007bc  3E                  7430  		DC	0x3e	;; SPECIAL 62
000007bd  000502              7431  		DC	0x0,0x5,0x2	;; DW_LNE_set_address
000007c0  00000000          + 7432  		DD	.DWLopt249	;;     operand
000007c4  3C                  7433  		DC	0x3c	;; SPECIAL 60
000007c5  06                  7434  		DC	0x6	;; DW_LNS_negate_stmt
000007c6  000502              7435  		DC	0x0,0x5,0x2	;; DW_LNE_set_address
000007c9  00000000          + 7436  		DD	.DWLopt250	;;     operand
000007cd  38                  7437  		DC	0x38	;; SPECIAL 56
000007ce  06                  7438  		DC	0x6	;; DW_LNS_negate_stmt
000007cf  000502              7439  		DC	0x0,0x5,0x2	;; DW_LNE_set_address
000007d2  00000000          + 7440  		DD	.DWLopt251	;;     operand
000007d6  3E                  7441  		DC	0x3e	;; SPECIAL 62
000007d7  000502              7442  		DC	0x0,0x5,0x2	;; DW_LNE_set_address
000007da  00000000          + 7443  		DD	.DWLopt252	;;     operand
000007de  69                  7444  		DC	0x69	;; SPECIAL 105
000007df  06                  7445  		DC	0x6	;; DW_LNS_negate_stmt
000007e0  000502              7446  		DC	0x0,0x5,0x2	;; DW_LNE_set_address
000007e3  00000000          + 7447  		DD	.DWLopt253	;;     operand
000007e7  0B                  7448  		DC	0xb	;; SPECIAL 11
000007e8  06                  7449  		DC	0x6	;; DW_LNS_negate_stmt
000007e9  000502              7450  		DC	0x0,0x5,0x2	;; DW_LNE_set_address
000007ec  00000000          + 7451  		DD	.DWLopt254	;;     operand
000007f0  3D                  7452  		DC	0x3d	;; SPECIAL 61
000007f1  000502              7453  		DC	0x0,0x5,0x2	;; DW_LNE_set_address
000007f4  00000000          + 7454  		DD	.DWLopt255	;;     operand
000007f8  3C                  7455  		DC	0x3c	;; SPECIAL 60
000007f9  000502              7456  		DC	0x0,0x5,0x2	;; DW_LNE_set_address
000007fc  00000000          + 7457  		DD	.DWLopt256	;;     operand
00000800  3D                  7458  		DC	0x3d	;; SPECIAL 61
00000801  000502              7459  		DC	0x0,0x5,0x2	;; DW_LNE_set_address
00000804  00000000          + 7460  		DD	.DWLopt257	;;     operand
00000808  39                  7461  		DC	0x39	;; SPECIAL 57
00000809  06                  7462  		DC	0x6	;; DW_LNS_negate_stmt
0000080a  000502              7463  		DC	0x0,0x5,0x2	;; DW_LNE_set_address
0000080d  00000000          + 7464  		DD	.DWLopt258	;;     operand
00000811  3B                  7465  		DC	0x3b	;; SPECIAL 59
00000812  000502              7466  		DC	0x0,0x5,0x2	;; DW_LNE_set_address
00000815  00000000          + 7467  		DD	.DWLopt259	;;     operand
00000819  03                  7468  		DC	0x3	;; DW_LNS_advance_line
0000081a  8F7B                7469  		DC	0x8f,0x7b	;; -625
0000081c  01                  7470  		DC	0x1	;; DW_LNS_copy
0000081d  06                  7471  		DC	0x6	;; DW_LNS_negate_stmt
0000081e  000502              7472  		DC	0x0,0x5,0x2	;; DW_LNE_set_address
00000821  00000000          + 7473  		DD	.DWLopt260	;;     operand
00000825  03                  7474  		DC	0x3	;; DW_LNS_advance_line
00000826  F704                7475  		DC	0xf7,0x4	;; 631
00000828  01                  7476  		DC	0x1	;; DW_LNS_copy
00000829  000502              7477  		DC	0x0,0x5,0x2	;; DW_LNE_set_address
0000082c  00000000          + 7478  		DD	.DWLopt261	;;     operand
00000830  3C                  7479  		DC	0x3c	;; SPECIAL 60
00000831  000502              7480  		DC	0x0,0x5,0x2	;; DW_LNE_set_address
00000834  00000000          + 7481  		DD	.DWLopt262	;;     operand
00000838  3D                  7482  		DC	0x3d	;; SPECIAL 61
00000839  000502              7483  		DC	0x0,0x5,0x2	;; DW_LNE_set_address
0000083c  00000000          + 7484  		DD	.DWLopt263	;;     operand
00000840  39                  7485  		DC	0x39	;; SPECIAL 57
00000841  06                  7486  		DC	0x6	;; DW_LNS_negate_stmt
00000842  000502              7487  		DC	0x0,0x5,0x2	;; DW_LNE_set_address
00000845  00000000          + 7488  		DD	.DWLopt264	;;     operand
00000849  3B                  7489  		DC	0x3b	;; SPECIAL 59
0000084a  000502              7490  		DC	0x0,0x5,0x2	;; DW_LNE_set_address
0000084d  00000000          + 7491  		DD	.DWLopt265	;;     operand
00000851  03                  7492  		DC	0x3	;; DW_LNS_advance_line
00000852  847B                7493  		DC	0x84,0x7b	;; -636
00000854  01                  7494  		DC	0x1	;; DW_LNS_copy
00000855  06                  7495  		DC	0x6	;; DW_LNS_negate_stmt
00000856  000502              7496  		DC	0x0,0x5,0x2	;; DW_LNE_set_address
00000859  00000000          + 7497  		DD	.DWLopt266	;;     operand
0000085d  03                  7498  		DC	0x3	;; DW_LNS_advance_line
0000085e  8205                7499  		DC	0x82,0x5	;; 642
00000860  01                  7500  		DC	0x1	;; DW_LNS_copy
00000861  000502              7501  		DC	0x0,0x5,0x2	;; DW_LNE_set_address
00000864  00000000          + 7502  		DD	.DWLopt267	;;     operand
00000868  3C                  7503  		DC	0x3c	;; SPECIAL 60
00000869  000502              7504  		DC	0x0,0x5,0x2	;; DW_LNE_set_address
0000086c  00000000          + 7505  		DD	.DWLopt268	;;     operand
00000870  3D                  7506  		DC	0x3d	;; SPECIAL 61
00000871  000502              7507  		DC	0x0,0x5,0x2	;; DW_LNE_set_address
00000874  00000000          + 7508  		DD	.DWLopt269	;;     operand
00000878  39                  7509  		DC	0x39	;; SPECIAL 57
00000879  06                  7510  		DC	0x6	;; DW_LNS_negate_stmt
0000087a  000502              7511  		DC	0x0,0x5,0x2	;; DW_LNE_set_address
0000087d  00000000          + 7512  		DD	.DWLopt270	;;     operand
00000881  3B                  7513  		DC	0x3b	;; SPECIAL 59
00000882  000502              7514  		DC	0x0,0x5,0x2	;; DW_LNE_set_address
00000885  00000000          + 7515  		DD	.DWLopt271	;;     operand
00000889  03                  7516  		DC	0x3	;; DW_LNS_advance_line
0000088a  F97A                7517  		DC	0xf9,0x7a	;; -647
0000088c  01                  7518  		DC	0x1	;; DW_LNS_copy
0000088d  06                  7519  		DC	0x6	;; DW_LNS_negate_stmt
0000088e  000502              7520  		DC	0x0,0x5,0x2	;; DW_LNE_set_address
00000891  00000000          + 7521  		DD	.DWLopt272	;;     operand
00000895  03                  7522  		DC	0x3	;; DW_LNS_advance_line
00000896  9005                7523  		DC	0x90,0x5	;; 656
00000898  01                  7524  		DC	0x1	;; DW_LNS_copy
00000899  000502              7525  		DC	0x0,0x5,0x2	;; DW_LNE_set_address
0000089c  00000000          + 7526  		DD	.DWLopt273	;;     operand
000008a0  39                  7527  		DC	0x39	;; SPECIAL 57
000008a1  06                  7528  		DC	0x6	;; DW_LNS_negate_stmt
000008a2  000502              7529  		DC	0x0,0x5,0x2	;; DW_LNE_set_address
000008a5  00000000          + 7530  		DD	.DWLopt274	;;     operand
000008a9  3B                  7531  		DC	0x3b	;; SPECIAL 59
000008aa  06                  7532  		DC	0x6	;; DW_LNS_negate_stmt
000008ab  000502              7533  		DC	0x0,0x5,0x2	;; DW_LNE_set_address
000008ae  00000000          + 7534  		DD	.DWLopt275	;;     operand
000008b2  3C                  7535  		DC	0x3c	;; SPECIAL 60
000008b3  000502              7536  		DC	0x0,0x5,0x2	;; DW_LNE_set_address
000008b6  00000000          + 7537  		DD	.DWLopt276	;;     operand
000008ba  1B                  7538  		DC	0x1b	;; SPECIAL 27
000008bb  000502              7539  		DC	0x0,0x5,0x2	;; DW_LNE_set_address
000008be  00000000          + 7540  		DD	.DWLopt277	;;     operand
000008c2  45                  7541  		DC	0x45	;; SPECIAL 69
000008c3  000502              7542  		DC	0x0,0x5,0x2	;; DW_LNE_set_address
000008c6  00000000          + 7543  		DD	.DWLopt278	;;     operand
000008ca  45                  7544  		DC	0x45	;; SPECIAL 69
000008cb  000502              7545  		DC	0x0,0x5,0x2	;; DW_LNE_set_address
000008ce  00000000          + 7546  		DD	.DWLopt279	;;     operand
000008d2  4B                  7547  		DC	0x4b	;; SPECIAL 75
000008d3  000502              7548  		DC	0x0,0x5,0x2	;; DW_LNE_set_address
000008d6  00000000          + 7549  		DD	.DWLopt280	;;     operand
000008da  4B                  7550  		DC	0x4b	;; SPECIAL 75
000008db  000502              7551  		DC	0x0,0x5,0x2	;; DW_LNE_set_address
000008de  00000000          + 7552  		DD	.DWLopt281	;;     operand
000008e2  45                  7553  		DC	0x45	;; SPECIAL 69
000008e3  000502              7554  		DC	0x0,0x5,0x2	;; DW_LNE_set_address
000008e6  00000000          + 7555  		DD	.DWLopt282	;;     operand
000008ea  33                  7556  		DC	0x33	;; SPECIAL 51
000008eb  000502              7557  		DC	0x0,0x5,0x2	;; DW_LNE_set_address
000008ee  00000000          + 7558  		DD	.DWLopt283	;;     operand
000008f2  3B                  7559  		DC	0x3b	;; SPECIAL 59
000008f3  000502              7560  		DC	0x0,0x5,0x2	;; DW_LNE_set_address
000008f6  00000000          + 7561  		DD	.DWLopt284	;;     operand
000008fa  3C                  7562  		DC	0x3c	;; SPECIAL 60
000008fb  000502              7563  		DC	0x0,0x5,0x2	;; DW_LNE_set_address
000008fe  00000000          + 7564  		DD	.DWLopt285	;;     operand
00000902  3B                  7565  		DC	0x3b	;; SPECIAL 59
00000903  06                  7566  		DC	0x6	;; DW_LNS_negate_stmt
00000904  000502              7567  		DC	0x0,0x5,0x2	;; DW_LNE_set_address
00000907  00000000          + 7568  		DD	.DWLopt286	;;     operand
0000090b  3D                  7569  		DC	0x3d	;; SPECIAL 61
0000090c  06                  7570  		DC	0x6	;; DW_LNS_negate_stmt
0000090d  000502              7571  		DC	0x0,0x5,0x2	;; DW_LNE_set_address
00000910  00000000          + 7572  		DD	.DWLopt287	;;     operand
00000914  3B                  7573  		DC	0x3b	;; SPECIAL 59
00000915  000502              7574  		DC	0x0,0x5,0x2	;; DW_LNE_set_address
00000918  00000000          + 7575  		DD	.DWLopt288	;;     operand
0000091c  3B                  7576  		DC	0x3b	;; SPECIAL 59
0000091d  000502              7577  		DC	0x0,0x5,0x2	;; DW_LNE_set_address
00000920  00000000          + 7578  		DD	.DWLopt289	;;     operand
00000924  3D                  7579  		DC	0x3d	;; SPECIAL 61
00000925  000502              7580  		DC	0x0,0x5,0x2	;; DW_LNE_set_address
00000928  00000000          + 7581  		DD	.DWLopt290	;;     operand
0000092c  3B                  7582  		DC	0x3b	;; SPECIAL 59
0000092d  000502              7583  		DC	0x0,0x5,0x2	;; DW_LNE_set_address
00000930  00000000          + 7584  		DD	.DWLopt291	;;     operand
00000934  3C                  7585  		DC	0x3c	;; SPECIAL 60
00000935  000502              7586  		DC	0x0,0x5,0x2	;; DW_LNE_set_address
00000938  00000000          + 7587  		DD	.DWLopt292	;;     operand
0000093c  3B                  7588  		DC	0x3b	;; SPECIAL 59
0000093d  000502              7589  		DC	0x0,0x5,0x2	;; DW_LNE_set_address
00000940  00000000          + 7590  		DD	.DWLopt293	;;     operand
00000944  3C                  7591  		DC	0x3c	;; SPECIAL 60
00000945  000502              7592  		DC	0x0,0x5,0x2	;; DW_LNE_set_address
00000948  00000000          + 7593  		DD	.DWLopt294	;;     operand
0000094c  3C                  7594  		DC	0x3c	;; SPECIAL 60
0000094d  000502              7595  		DC	0x0,0x5,0x2	;; DW_LNE_set_address
00000950  00000000          + 7596  		DD	.DWLopt295	;;     operand
00000954  3B                  7597  		DC	0x3b	;; SPECIAL 59
00000955  000502              7598  		DC	0x0,0x5,0x2	;; DW_LNE_set_address
00000958  00000000          + 7599  		DD	.DWLopt296	;;     operand
0000095c  3B                  7600  		DC	0x3b	;; SPECIAL 59
0000095d  06                  7601  		DC	0x6	;; DW_LNS_negate_stmt
0000095e  000502              7602  		DC	0x0,0x5,0x2	;; DW_LNE_set_address
00000961  00000000          + 7603  		DD	.LDW29	;;     operand
00000965  000101              7604  		DC	0x0,0x1,0x1	;; DW_LNE_end_sequence
00000968  000502              7605  		DC	0x0,0x5,0x2	;; DW_LNE_set_address
0000096b  00000000          + 7606  		DD	.DWLopt314	;;     operand
0000096f  03                  7607  		DC	0x3	;; DW_LNS_advance_line
00000970  D505                7608  		DC	0xd5,0x5	;; 725
00000972  01                  7609  		DC	0x1	;; DW_LNS_copy
00000973  000502              7610  		DC	0x0,0x5,0x2	;; DW_LNE_set_address
00000976  00000000          + 7611  		DD	.DWLopt315	;;     operand
0000097a  3B                  7612  		DC	0x3b	;; SPECIAL 59
0000097b  000502              7613  		DC	0x0,0x5,0x2	;; DW_LNE_set_address
0000097e  00000000          + 7614  		DD	.DWLopt316	;;     operand
00000982  3F                  7615  		DC	0x3f	;; SPECIAL 63
00000983  000502              7616  		DC	0x0,0x5,0x2	;; DW_LNE_set_address
00000986  00000000          + 7617  		DD	.DWLopt317	;;     operand
0000098a  45                  7618  		DC	0x45	;; SPECIAL 69
0000098b  06                  7619  		DC	0x6	;; DW_LNS_negate_stmt
0000098c  000502              7620  		DC	0x0,0x5,0x2	;; DW_LNE_set_address
0000098f  00000000          + 7621  		DD	.DWLopt318	;;     operand
00000993  2F                  7622  		DC	0x2f	;; SPECIAL 47
00000994  06                  7623  		DC	0x6	;; DW_LNS_negate_stmt
00000995  000502              7624  		DC	0x0,0x5,0x2	;; DW_LNE_set_address
00000998  00000000          + 7625  		DD	.DWLopt319	;;     operand
0000099c  4B                  7626  		DC	0x4b	;; SPECIAL 75
0000099d  000502              7627  		DC	0x0,0x5,0x2	;; DW_LNE_set_address
000009a0  00000000          + 7628  		DD	.DWLopt320	;;     operand
000009a4  3B                  7629  		DC	0x3b	;; SPECIAL 59
000009a5  000502              7630  		DC	0x0,0x5,0x2	;; DW_LNE_set_address
000009a8  00000000          + 7631  		DD	.DWLopt321	;;     operand
000009ac  3B                  7632  		DC	0x3b	;; SPECIAL 59
000009ad  000502              7633  		DC	0x0,0x5,0x2	;; DW_LNE_set_address
000009b0  00000000          + 7634  		DD	.DWLopt322	;;     operand
000009b4  3B                  7635  		DC	0x3b	;; SPECIAL 59
000009b5  000502              7636  		DC	0x0,0x5,0x2	;; DW_LNE_set_address
000009b8  00000000          + 7637  		DD	.DWLopt323	;;     operand
000009bc  40                  7638  		DC	0x40	;; SPECIAL 64
000009bd  000502              7639  		DC	0x0,0x5,0x2	;; DW_LNE_set_address
000009c0  00000000          + 7640  		DD	.DWLopt324	;;     operand
000009c4  4B                  7641  		DC	0x4b	;; SPECIAL 75
000009c5  000502              7642  		DC	0x0,0x5,0x2	;; DW_LNE_set_address
000009c8  00000000          + 7643  		DD	.DWLopt325	;;     operand
000009cc  3B                  7644  		DC	0x3b	;; SPECIAL 59
000009cd  000502              7645  		DC	0x0,0x5,0x2	;; DW_LNE_set_address
000009d0  00000000          + 7646  		DD	.DWLopt326	;;     operand
000009d4  3B                  7647  		DC	0x3b	;; SPECIAL 59
000009d5  000502              7648  		DC	0x0,0x5,0x2	;; DW_LNE_set_address
000009d8  00000000          + 7649  		DD	.DWLopt327	;;     operand
000009dc  3B                  7650  		DC	0x3b	;; SPECIAL 59
000009dd  000502              7651  		DC	0x0,0x5,0x2	;; DW_LNE_set_address
000009e0  00000000          + 7652  		DD	.DWLopt328	;;     operand
000009e4  40                  7653  		DC	0x40	;; SPECIAL 64
000009e5  000502              7654  		DC	0x0,0x5,0x2	;; DW_LNE_set_address
000009e8  00000000          + 7655  		DD	.DWLopt329	;;     operand
000009ec  41                  7656  		DC	0x41	;; SPECIAL 65
000009ed  06                  7657  		DC	0x6	;; DW_LNS_negate_stmt
000009ee  000502              7658  		DC	0x0,0x5,0x2	;; DW_LNE_set_address
000009f1  00000000          + 7659  		DD	.DWLopt330	;;     operand
000009f5  33                  7660  		DC	0x33	;; SPECIAL 51
000009f6  000502              7661  		DC	0x0,0x5,0x2	;; DW_LNE_set_address
000009f9  00000000          + 7662  		DD	.DWLopt331	;;     operand
000009fd  41                  7663  		DC	0x41	;; SPECIAL 65
000009fe  06                  7664  		DC	0x6	;; DW_LNS_negate_stmt
000009ff  000502              7665  		DC	0x0,0x5,0x2	;; DW_LNE_set_address
00000a02  00000000          + 7666  		DD	.DWLopt332	;;     operand
00000a06  3B                  7667  		DC	0x3b	;; SPECIAL 59
00000a07  000502              7668  		DC	0x0,0x5,0x2	;; DW_LNE_set_address
00000a0a  00000000          + 7669  		DD	.DWLopt333	;;     operand
00000a0e  3C                  7670  		DC	0x3c	;; SPECIAL 60
00000a0f  000502              7671  		DC	0x0,0x5,0x2	;; DW_LNE_set_address
00000a12  00000000          + 7672  		DD	.DWLopt334	;;     operand
00000a16  3C                  7673  		DC	0x3c	;; SPECIAL 60
00000a17  06                  7674  		DC	0x6	;; DW_LNS_negate_stmt
00000a18  000502              7675  		DC	0x0,0x5,0x2	;; DW_LNE_set_address
00000a1b  00000000          + 7676  		DD	.DWLopt335	;;     operand
00000a1f  38                  7677  		DC	0x38	;; SPECIAL 56
00000a20  06                  7678  		DC	0x6	;; DW_LNS_negate_stmt
00000a21  000502              7679  		DC	0x0,0x5,0x2	;; DW_LNE_set_address
00000a24  00000000          + 7680  		DD	.DWLopt336	;;     operand
00000a28  40                  7681  		DC	0x40	;; SPECIAL 64
00000a29  000502              7682  		DC	0x0,0x5,0x2	;; DW_LNE_set_address
00000a2c  00000000          + 7683  		DD	.DWLopt337	;;     operand
00000a30  44                  7684  		DC	0x44	;; SPECIAL 68
00000a31  000502              7685  		DC	0x0,0x5,0x2	;; DW_LNE_set_address
00000a34  00000000          + 7686  		DD	.DWLopt338	;;     operand
00000a38  3B                  7687  		DC	0x3b	;; SPECIAL 59
00000a39  000502              7688  		DC	0x0,0x5,0x2	;; DW_LNE_set_address
00000a3c  00000000          + 7689  		DD	.DWLopt339	;;     operand
00000a40  3D                  7690  		DC	0x3d	;; SPECIAL 61
00000a41  06                  7691  		DC	0x6	;; DW_LNS_negate_stmt
00000a42  000502              7692  		DC	0x0,0x5,0x2	;; DW_LNE_set_address
00000a45  00000000          + 7693  		DD	.DWLopt340	;;     operand
00000a49  03                  7694  		DC	0x3	;; DW_LNS_advance_line
00000a4a  D279                7695  		DC	0xd2,0x79	;; -814
00000a4c  01                  7696  		DC	0x1	;; DW_LNS_copy
00000a4d  000502              7697  		DC	0x0,0x5,0x2	;; DW_LNE_set_address
00000a50  00000000          + 7698  		DD	.DWLopt341	;;     operand
00000a54  03                  7699  		DC	0x3	;; DW_LNS_advance_line
00000a55  AE06                7700  		DC	0xae,0x6	;; 814
00000a57  01                  7701  		DC	0x1	;; DW_LNS_copy
00000a58  06                  7702  		DC	0x6	;; DW_LNS_negate_stmt
00000a59  000502              7703  		DC	0x0,0x5,0x2	;; DW_LNE_set_address
00000a5c  00000000          + 7704  		DD	.DWLopt342	;;     operand
00000a60  3F                  7705  		DC	0x3f	;; SPECIAL 63
00000a61  000502              7706  		DC	0x0,0x5,0x2	;; DW_LNE_set_address
00000a64  00000000          + 7707  		DD	.DWLopt343	;;     operand
00000a68  3D                  7708  		DC	0x3d	;; SPECIAL 61
00000a69  000502              7709  		DC	0x0,0x5,0x2	;; DW_LNE_set_address
00000a6c  00000000          + 7710  		DD	.DWLopt344	;;     operand
00000a70  39                  7711  		DC	0x39	;; SPECIAL 57
00000a71  06                  7712  		DC	0x6	;; DW_LNS_negate_stmt
00000a72  000502              7713  		DC	0x0,0x5,0x2	;; DW_LNE_set_address
00000a75  00000000          + 7714  		DD	.DWLopt345	;;     operand
00000a79  3B                  7715  		DC	0x3b	;; SPECIAL 59
00000a7a  06                  7716  		DC	0x6	;; DW_LNS_negate_stmt
00000a7b  000502              7717  		DC	0x0,0x5,0x2	;; DW_LNE_set_address
00000a7e  00000000          + 7718  		DD	.DWLopt346	;;     operand
00000a82  3E                  7719  		DC	0x3e	;; SPECIAL 62
00000a83  000502              7720  		DC	0x0,0x5,0x2	;; DW_LNE_set_address
00000a86  00000000          + 7721  		DD	.DWLopt347	;;     operand
00000a8a  3C                  7722  		DC	0x3c	;; SPECIAL 60
00000a8b  000502              7723  		DC	0x0,0x5,0x2	;; DW_LNE_set_address
00000a8e  00000000          + 7724  		DD	.DWLopt348	;;     operand
00000a92  3B                  7725  		DC	0x3b	;; SPECIAL 59
00000a93  000502              7726  		DC	0x0,0x5,0x2	;; DW_LNE_set_address
00000a96  00000000          + 7727  		DD	.DWLopt349	;;     operand
00000a9a  3B                  7728  		DC	0x3b	;; SPECIAL 59
00000a9b  000502              7729  		DC	0x0,0x5,0x2	;; DW_LNE_set_address
00000a9e  00000000          + 7730  		DD	.DWLopt350	;;     operand
00000aa2  3C                  7731  		DC	0x3c	;; SPECIAL 60
00000aa3  000502              7732  		DC	0x0,0x5,0x2	;; DW_LNE_set_address
00000aa6  00000000          + 7733  		DD	.DWLopt351	;;     operand
00000aaa  3C                  7734  		DC	0x3c	;; SPECIAL 60
00000aab  000502              7735  		DC	0x0,0x5,0x2	;; DW_LNE_set_address
00000aae  00000000          + 7736  		DD	.DWLopt352	;;     operand
00000ab2  3C                  7737  		DC	0x3c	;; SPECIAL 60
00000ab3  000502              7738  		DC	0x0,0x5,0x2	;; DW_LNE_set_address
00000ab6  00000000          + 7739  		DD	.DWLopt353	;;     operand
00000aba  3B                  7740  		DC	0x3b	;; SPECIAL 59
00000abb  000502              7741  		DC	0x0,0x5,0x2	;; DW_LNE_set_address
00000abe  00000000          + 7742  		DD	.DWLopt354	;;     operand
00000ac2  3C                  7743  		DC	0x3c	;; SPECIAL 60
00000ac3  000502              7744  		DC	0x0,0x5,0x2	;; DW_LNE_set_address
00000ac6  00000000          + 7745  		DD	.DWLopt355	;;     operand
00000aca  3C                  7746  		DC	0x3c	;; SPECIAL 60
00000acb  000502              7747  		DC	0x0,0x5,0x2	;; DW_LNE_set_address
00000ace  00000000          + 7748  		DD	.DWLopt356	;;     operand
00000ad2  3C                  7749  		DC	0x3c	;; SPECIAL 60
00000ad3  000502              7750  		DC	0x0,0x5,0x2	;; DW_LNE_set_address
00000ad6  00000000          + 7751  		DD	.DWLopt357	;;     operand
00000ada  3B                  7752  		DC	0x3b	;; SPECIAL 59
00000adb  000502              7753  		DC	0x0,0x5,0x2	;; DW_LNE_set_address
00000ade  00000000          + 7754  		DD	.DWLopt358	;;     operand
00000ae2  3C                  7755  		DC	0x3c	;; SPECIAL 60
00000ae3  000502              7756  		DC	0x0,0x5,0x2	;; DW_LNE_set_address
00000ae6  00000000          + 7757  		DD	.DWLopt359	;;     operand
00000aea  3B                  7758  		DC	0x3b	;; SPECIAL 59
00000aeb  000502              7759  		DC	0x0,0x5,0x2	;; DW_LNE_set_address
00000aee  00000000          + 7760  		DD	.DWLopt360	;;     operand
00000af2  3B                  7761  		DC	0x3b	;; SPECIAL 59
00000af3  000502              7762  		DC	0x0,0x5,0x2	;; DW_LNE_set_address
00000af6  00000000          + 7763  		DD	.DWLopt361	;;     operand
00000afa  3C                  7764  		DC	0x3c	;; SPECIAL 60
00000afb  000502              7765  		DC	0x0,0x5,0x2	;; DW_LNE_set_address
00000afe  00000000          + 7766  		DD	.DWLopt362	;;     operand
00000b02  3B                  7767  		DC	0x3b	;; SPECIAL 59
00000b03  000502              7768  		DC	0x0,0x5,0x2	;; DW_LNE_set_address
00000b06  00000000          + 7769  		DD	.DWLopt363	;;     operand
00000b0a  3B                  7770  		DC	0x3b	;; SPECIAL 59
00000b0b  000502              7771  		DC	0x0,0x5,0x2	;; DW_LNE_set_address
00000b0e  00000000          + 7772  		DD	.DWLopt364	;;     operand
00000b12  3F                  7773  		DC	0x3f	;; SPECIAL 63
00000b13  000502              7774  		DC	0x0,0x5,0x2	;; DW_LNE_set_address
00000b16  00000000          + 7775  		DD	.DWLopt365	;;     operand
00000b1a  3F                  7776  		DC	0x3f	;; SPECIAL 63
00000b1b  000502              7777  		DC	0x0,0x5,0x2	;; DW_LNE_set_address
00000b1e  00000000          + 7778  		DD	.DWLopt366	;;     operand
00000b22  3D                  7779  		DC	0x3d	;; SPECIAL 61
00000b23  000502              7780  		DC	0x0,0x5,0x2	;; DW_LNE_set_address
00000b26  00000000          + 7781  		DD	.DWLopt367	;;     operand
00000b2a  3C                  7782  		DC	0x3c	;; SPECIAL 60
00000b2b  000502              7783  		DC	0x0,0x5,0x2	;; DW_LNE_set_address
00000b2e  00000000          + 7784  		DD	.DWLopt368	;;     operand
00000b32  3B                  7785  		DC	0x3b	;; SPECIAL 59
00000b33  000502              7786  		DC	0x0,0x5,0x2	;; DW_LNE_set_address
00000b36  00000000          + 7787  		DD	.DWLopt369	;;     operand
00000b3a  3C                  7788  		DC	0x3c	;; SPECIAL 60
00000b3b  000502              7789  		DC	0x0,0x5,0x2	;; DW_LNE_set_address
00000b3e  00000000          + 7790  		DD	.DWLopt370	;;     operand
00000b42  3C                  7791  		DC	0x3c	;; SPECIAL 60
00000b43  000502              7792  		DC	0x0,0x5,0x2	;; DW_LNE_set_address
00000b46  00000000          + 7793  		DD	.DWLopt371	;;     operand
00000b4a  3B                  7794  		DC	0x3b	;; SPECIAL 59
00000b4b  000502              7795  		DC	0x0,0x5,0x2	;; DW_LNE_set_address
00000b4e  00000000          + 7796  		DD	.DWLopt372	;;     operand
00000b52  3B                  7797  		DC	0x3b	;; SPECIAL 59
00000b53  000502              7798  		DC	0x0,0x5,0x2	;; DW_LNE_set_address
00000b56  00000000          + 7799  		DD	.DWLopt373	;;     operand
00000b5a  3C                  7800  		DC	0x3c	;; SPECIAL 60
00000b5b  000502              7801  		DC	0x0,0x5,0x2	;; DW_LNE_set_address
00000b5e  00000000          + 7802  		DD	.DWLopt374	;;     operand
00000b62  3B                  7803  		DC	0x3b	;; SPECIAL 59
00000b63  06                  7804  		DC	0x6	;; DW_LNS_negate_stmt
00000b64  000502              7805  		DC	0x0,0x5,0x2	;; DW_LNE_set_address
00000b67  00000000          + 7806  		DD	.DWLopt375	;;     operand
00000b6b  3A                  7807  		DC	0x3a	;; SPECIAL 58
00000b6c  000502              7808  		DC	0x0,0x5,0x2	;; DW_LNE_set_address
00000b6f  00000000          + 7809  		DD	.DWLopt376	;;     operand
00000b73  0A                  7810  		DC	0xa	;; SPECIAL 10
00000b74  000502              7811  		DC	0x0,0x5,0x2	;; DW_LNE_set_address
00000b77  00000000          + 7812  		DD	.DWLopt377	;;     operand
00000b7b  41                  7813  		DC	0x41	;; SPECIAL 65
00000b7c  000502              7814  		DC	0x0,0x5,0x2	;; DW_LNE_set_address
00000b7f  00000000          + 7815  		DD	.DWLopt378	;;     operand
00000b83  41                  7816  		DC	0x41	;; SPECIAL 65
00000b84  000502              7817  		DC	0x0,0x5,0x2	;; DW_LNE_set_address
00000b87  00000000          + 7818  		DD	.DWLopt379	;;     operand
00000b8b  3E                  7819  		DC	0x3e	;; SPECIAL 62
00000b8c  000502              7820  		DC	0x0,0x5,0x2	;; DW_LNE_set_address
00000b8f  00000000          + 7821  		DD	.DWLopt380	;;     operand
00000b93  3E                  7822  		DC	0x3e	;; SPECIAL 62
00000b94  000502              7823  		DC	0x0,0x5,0x2	;; DW_LNE_set_address
00000b97  00000000          + 7824  		DD	.DWLopt381	;;     operand
00000b9b  4B                  7825  		DC	0x4b	;; SPECIAL 75
00000b9c  000502              7826  		DC	0x0,0x5,0x2	;; DW_LNE_set_address
00000b9f  00000000          + 7827  		DD	.DWLopt382	;;     operand
00000ba3  3F                  7828  		DC	0x3f	;; SPECIAL 63
00000ba4  06                  7829  		DC	0x6	;; DW_LNS_negate_stmt
00000ba5  000502              7830  		DC	0x0,0x5,0x2	;; DW_LNE_set_address
00000ba8  00000000          + 7831  		DD	.DWLopt383	;;     operand
00000bac  3F                  7832  		DC	0x3f	;; SPECIAL 63
00000bad  000502              7833  		DC	0x0,0x5,0x2	;; DW_LNE_set_address
00000bb0  00000000          + 7834  		DD	.DWLopt384	;;     operand
00000bb4  40                  7835  		DC	0x40	;; SPECIAL 64
00000bb5  000502              7836  		DC	0x0,0x5,0x2	;; DW_LNE_set_address
00000bb8  00000000          + 7837  		DD	.DWLopt385	;;     operand
00000bbc  1D                  7838  		DC	0x1d	;; SPECIAL 29
00000bbd  000502              7839  		DC	0x0,0x5,0x2	;; DW_LNE_set_address
00000bc0  00000000          + 7840  		DD	.DWLopt386	;;     operand
00000bc4  3F                  7841  		DC	0x3f	;; SPECIAL 63
00000bc5  000502              7842  		DC	0x0,0x5,0x2	;; DW_LNE_set_address
00000bc8  00000000          + 7843  		DD	.DWLopt387	;;     operand
00000bcc  4E                  7844  		DC	0x4e	;; SPECIAL 78
00000bcd  000502              7845  		DC	0x0,0x5,0x2	;; DW_LNE_set_address
00000bd0  00000000          + 7846  		DD	.DWLopt388	;;     operand
00000bd4  3F                  7847  		DC	0x3f	;; SPECIAL 63
00000bd5  000502              7848  		DC	0x0,0x5,0x2	;; DW_LNE_set_address
00000bd8  00000000          + 7849  		DD	.DWLopt389	;;     operand
00000bdc  03                  7850  		DC	0x3	;; DW_LNS_advance_line
00000bdd  43                  7851  		DC	0x43	;; -61
00000bde  01                  7852  		DC	0x1	;; DW_LNS_copy
00000bdf  000502              7853  		DC	0x0,0x5,0x2	;; DW_LNE_set_address
00000be2  00000000          + 7854  		DD	.DWLopt390	;;     operand
00000be6  5A                  7855  		DC	0x5a	;; SPECIAL 90
00000be7  000502              7856  		DC	0x0,0x5,0x2	;; DW_LNE_set_address
00000bea  00000000          + 7857  		DD	.DWLopt391	;;     operand
00000bee  3F                  7858  		DC	0x3f	;; SPECIAL 63
00000bef  000502              7859  		DC	0x0,0x5,0x2	;; DW_LNE_set_address
00000bf2  00000000          + 7860  		DD	.DWLopt392	;;     operand
00000bf6  4E                  7861  		DC	0x4e	;; SPECIAL 78
00000bf7  000502              7862  		DC	0x0,0x5,0x2	;; DW_LNE_set_address
00000bfa  00000000          + 7863  		DD	.DWLopt393	;;     operand
00000bfe  3F                  7864  		DC	0x3f	;; SPECIAL 63
00000bff  000502              7865  		DC	0x0,0x5,0x2	;; DW_LNE_set_address
00000c02  00000000          + 7866  		DD	.DWLopt394	;;     operand
00000c06  40                  7867  		DC	0x40	;; SPECIAL 64
00000c07  000502              7868  		DC	0x0,0x5,0x2	;; DW_LNE_set_address
00000c0a  00000000          + 7869  		DD	.DWLopt395	;;     operand
00000c0e  36                  7870  		DC	0x36	;; SPECIAL 54
00000c0f  000502              7871  		DC	0x0,0x5,0x2	;; DW_LNE_set_address
00000c12  00000000          + 7872  		DD	.DWLopt396	;;     operand
00000c16  3F                  7873  		DC	0x3f	;; SPECIAL 63
00000c17  000502              7874  		DC	0x0,0x5,0x2	;; DW_LNE_set_address
00000c1a  00000000          + 7875  		DD	.DWLopt397	;;     operand
00000c1e  36                  7876  		DC	0x36	;; SPECIAL 54
00000c1f  000502              7877  		DC	0x0,0x5,0x2	;; DW_LNE_set_address
00000c22  00000000          + 7878  		DD	.DWLopt398	;;     operand
00000c26  3F                  7879  		DC	0x3f	;; SPECIAL 63
00000c27  000502              7880  		DC	0x0,0x5,0x2	;; DW_LNE_set_address
00000c2a  00000000          + 7881  		DD	.DWLopt399	;;     operand
00000c2e  3C                  7882  		DC	0x3c	;; SPECIAL 60
00000c2f  000502              7883  		DC	0x0,0x5,0x2	;; DW_LNE_set_address
00000c32  00000000          + 7884  		DD	.DWLopt400	;;     operand
00000c36  03                  7885  		DC	0x3	;; DW_LNS_advance_line
00000c37  B17F                7886  		DC	0xb1,0x7f	;; -79
00000c39  01                  7887  		DC	0x1	;; DW_LNS_copy
00000c3a  000502              7888  		DC	0x0,0x5,0x2	;; DW_LNE_set_address
00000c3d  00000000          + 7889  		DD	.DWLopt401	;;     operand
00000c41  8A                  7890  		DC	0x8a	;; SPECIAL 138
00000c42  000502              7891  		DC	0x0,0x5,0x2	;; DW_LNE_set_address
00000c45  00000000          + 7892  		DD	.DWLopt402	;;     operand
00000c49  03                  7893  		DC	0x3	;; DW_LNS_advance_line
00000c4a  B17F                7894  		DC	0xb1,0x7f	;; -79
00000c4c  01                  7895  		DC	0x1	;; DW_LNS_copy
00000c4d  06                  7896  		DC	0x6	;; DW_LNS_negate_stmt
00000c4e  000502              7897  		DC	0x0,0x5,0x2	;; DW_LNE_set_address
00000c51  00000000          + 7898  		DD	.DWLopt403	;;     operand
00000c55  40                  7899  		DC	0x40	;; SPECIAL 64
00000c56  000502              7900  		DC	0x0,0x5,0x2	;; DW_LNE_set_address
00000c59  00000000          + 7901  		DD	.DWLopt404	;;     operand
00000c5d  5A                  7902  		DC	0x5a	;; SPECIAL 90
00000c5e  000502              7903  		DC	0x0,0x5,0x2	;; DW_LNE_set_address
00000c61  00000000          + 7904  		DD	.DWLopt405	;;     operand
00000c65  3F                  7905  		DC	0x3f	;; SPECIAL 63
00000c66  000502              7906  		DC	0x0,0x5,0x2	;; DW_LNE_set_address
00000c69  00000000          + 7907  		DD	.DWLopt406	;;     operand
00000c6d  4E                  7908  		DC	0x4e	;; SPECIAL 78
00000c6e  000502              7909  		DC	0x0,0x5,0x2	;; DW_LNE_set_address
00000c71  00000000          + 7910  		DD	.DWLopt407	;;     operand
00000c75  3E                  7911  		DC	0x3e	;; SPECIAL 62
00000c76  000502              7912  		DC	0x0,0x5,0x2	;; DW_LNE_set_address
00000c79  00000000          + 7913  		DD	.DWLopt408	;;     operand
00000c7d  3E                  7914  		DC	0x3e	;; SPECIAL 62
00000c7e  000502              7915  		DC	0x0,0x5,0x2	;; DW_LNE_set_address
00000c81  00000000          + 7916  		DD	.DWLopt409	;;     operand
00000c85  3E                  7917  		DC	0x3e	;; SPECIAL 62
00000c86  06                  7918  		DC	0x6	;; DW_LNS_negate_stmt
00000c87  000502              7919  		DC	0x0,0x5,0x2	;; DW_LNE_set_address
00000c8a  00000000          + 7920  		DD	.DWLopt410	;;     operand
00000c8e  46                  7921  		DC	0x46	;; SPECIAL 70
00000c8f  000502              7922  		DC	0x0,0x5,0x2	;; DW_LNE_set_address
00000c92  00000000          + 7923  		DD	.DWLopt411	;;     operand
00000c96  3C                  7924  		DC	0x3c	;; SPECIAL 60
00000c97  06                  7925  		DC	0x6	;; DW_LNS_negate_stmt
00000c98  000502              7926  		DC	0x0,0x5,0x2	;; DW_LNE_set_address
00000c9b  00000000          + 7927  		DD	.DWLopt412	;;     operand
00000c9f  38                  7928  		DC	0x38	;; SPECIAL 56
00000ca0  000502              7929  		DC	0x0,0x5,0x2	;; DW_LNE_set_address
00000ca3  00000000          + 7930  		DD	.DWLopt413	;;     operand
00000ca7  3C                  7931  		DC	0x3c	;; SPECIAL 60
00000ca8  06                  7932  		DC	0x6	;; DW_LNS_negate_stmt
00000ca9  000502              7933  		DC	0x0,0x5,0x2	;; DW_LNE_set_address
00000cac  00000000          + 7934  		DD	.DWLopt414	;;     operand
00000cb0  3B                  7935  		DC	0x3b	;; SPECIAL 59
00000cb1  06                  7936  		DC	0x6	;; DW_LNS_negate_stmt
00000cb2  000502              7937  		DC	0x0,0x5,0x2	;; DW_LNE_set_address
00000cb5  00000000          + 7938  		DD	.DWLopt415	;;     operand
00000cb9  03                  7939  		DC	0x3	;; DW_LNS_advance_line
00000cba  F478                7940  		DC	0xf4,0x78	;; -908
00000cbc  01                  7941  		DC	0x1	;; DW_LNS_copy
00000cbd  000502              7942  		DC	0x0,0x5,0x2	;; DW_LNE_set_address
00000cc0  00000000          + 7943  		DD	.DWLopt416	;;     operand
00000cc4  03                  7944  		DC	0x3	;; DW_LNS_advance_line
00000cc5  8C07                7945  		DC	0x8c,0x7	;; 908
00000cc7  01                  7946  		DC	0x1	;; DW_LNS_copy
00000cc8  06                  7947  		DC	0x6	;; DW_LNS_negate_stmt
00000cc9  000502              7948  		DC	0x0,0x5,0x2	;; DW_LNE_set_address
00000ccc  00000000          + 7949  		DD	.DWLopt417	;;     operand
00000cd0  4A                  7950  		DC	0x4a	;; SPECIAL 74
00000cd1  000502              7951  		DC	0x0,0x5,0x2	;; DW_LNE_set_address
00000cd4  00000000          + 7952  		DD	.DWLopt418	;;     operand
00000cd8  3B                  7953  		DC	0x3b	;; SPECIAL 59
00000cd9  000502              7954  		DC	0x0,0x5,0x2	;; DW_LNE_set_address
00000cdc  00000000          + 7955  		DD	.DWLopt419	;;     operand
00000ce0  3D                  7956  		DC	0x3d	;; SPECIAL 61
00000ce1  000502              7957  		DC	0x0,0x5,0x2	;; DW_LNE_set_address
00000ce4  00000000          + 7958  		DD	.DWLopt420	;;     operand
00000ce8  3B                  7959  		DC	0x3b	;; SPECIAL 59
00000ce9  000502              7960  		DC	0x0,0x5,0x2	;; DW_LNE_set_address
00000cec  00000000          + 7961  		DD	.DWLopt421	;;     operand
00000cf0  3A                  7962  		DC	0x3a	;; SPECIAL 58
00000cf1  06                  7963  		DC	0x6	;; DW_LNS_negate_stmt
00000cf2  000502              7964  		DC	0x0,0x5,0x2	;; DW_LNE_set_address
00000cf5  00000000          + 7965  		DD	.DWLopt422	;;     operand
00000cf9  03                  7966  		DC	0x3	;; DW_LNS_advance_line
00000cfa  DF78                7967  		DC	0xdf,0x78	;; -929
00000cfc  01                  7968  		DC	0x1	;; DW_LNS_copy
00000cfd  06                  7969  		DC	0x6	;; DW_LNS_negate_stmt
00000cfe  000502              7970  		DC	0x0,0x5,0x2	;; DW_LNE_set_address
00000d01  00000000          + 7971  		DD	.DWLopt423	;;     operand
00000d05  03                  7972  		DC	0x3	;; DW_LNS_advance_line
00000d06  A307                7973  		DC	0xa3,0x7	;; 931
00000d08  01                  7974  		DC	0x1	;; DW_LNS_copy
00000d09  000502              7975  		DC	0x0,0x5,0x2	;; DW_LNE_set_address
00000d0c  00000000          + 7976  		DD	.DWLopt424	;;     operand
00000d10  38                  7977  		DC	0x38	;; SPECIAL 56
00000d11  000502              7978  		DC	0x0,0x5,0x2	;; DW_LNE_set_address
00000d14  00000000          + 7979  		DD	.DWLopt425	;;     operand
00000d18  3A                  7980  		DC	0x3a	;; SPECIAL 58
00000d19  000502              7981  		DC	0x0,0x5,0x2	;; DW_LNE_set_address
00000d1c  00000000          + 7982  		DD	.DWLopt426	;;     operand
00000d20  46                  7983  		DC	0x46	;; SPECIAL 70
00000d21  000502              7984  		DC	0x0,0x5,0x2	;; DW_LNE_set_address
00000d24  00000000          + 7985  		DD	.DWLopt427	;;     operand
00000d28  3B                  7986  		DC	0x3b	;; SPECIAL 59
00000d29  000502              7987  		DC	0x0,0x5,0x2	;; DW_LNE_set_address
00000d2c  00000000          + 7988  		DD	.DWLopt428	;;     operand
00000d30  3C                  7989  		DC	0x3c	;; SPECIAL 60
00000d31  000502              7990  		DC	0x0,0x5,0x2	;; DW_LNE_set_address
00000d34  00000000          + 7991  		DD	.DWLopt429	;;     operand
00000d38  3B                  7992  		DC	0x3b	;; SPECIAL 59
00000d39  06                  7993  		DC	0x6	;; DW_LNS_negate_stmt
00000d3a  000502              7994  		DC	0x0,0x5,0x2	;; DW_LNE_set_address
00000d3d  00000000          + 7995  		DD	.LDW30	;;     operand
00000d41  000101              7996  		DC	0x0,0x1,0x1	;; DW_LNE_end_sequence
00000d44  000502              7997  		DC	0x0,0x5,0x2	;; DW_LNE_set_address
00000d47  00000000          + 7998  		DD	.DWLopt433	;;     operand
00000d4b  03                  7999  		DC	0x3	;; DW_LNS_advance_line
00000d4c  B607                8000  		DC	0xb6,0x7	;; 950
00000d4e  01                  8001  		DC	0x1	;; DW_LNS_copy
00000d4f  000502              8002  		DC	0x0,0x5,0x2	;; DW_LNE_set_address
00000d52  00000000          + 8003  		DD	.DWLopt434	;;     operand
00000d56  3A                  8004  		DC	0x3a	;; SPECIAL 58
00000d57  000502              8005  		DC	0x0,0x5,0x2	;; DW_LNE_set_address
00000d5a  00000000          + 8006  		DD	.DWLopt435	;;     operand
00000d5e  3C                  8007  		DC	0x3c	;; SPECIAL 60
00000d5f  06                  8008  		DC	0x6	;; DW_LNS_negate_stmt
00000d60  000502              8009  		DC	0x0,0x5,0x2	;; DW_LNE_set_address
00000d63  00000000          + 8010  		DD	.DWLopt436	;;     operand
00000d67  03                  8011  		DC	0x3	;; DW_LNS_advance_line
00000d68  C778                8012  		DC	0xc7,0x78	;; -953
00000d6a  01                  8013  		DC	0x1	;; DW_LNS_copy
00000d6b  000502              8014  		DC	0x0,0x5,0x2	;; DW_LNE_set_address
00000d6e  00000000          + 8015  		DD	.DWLopt437	;;     operand
00000d72  03                  8016  		DC	0x3	;; DW_LNS_advance_line
00000d73  B907                8017  		DC	0xb9,0x7	;; 953
00000d75  01                  8018  		DC	0x1	;; DW_LNS_copy
00000d76  06                  8019  		DC	0x6	;; DW_LNS_negate_stmt
00000d77  000502              8020  		DC	0x0,0x5,0x2	;; DW_LNE_set_address
00000d7a  00000000          + 8021  		DD	.DWLopt438	;;     operand
00000d7e  38                  8022  		DC	0x38	;; SPECIAL 56
00000d7f  000502              8023  		DC	0x0,0x5,0x2	;; DW_LNE_set_address
00000d82  00000000          + 8024  		DD	.DWLopt439	;;     operand
00000d86  3A                  8025  		DC	0x3a	;; SPECIAL 58
00000d87  000502              8026  		DC	0x0,0x5,0x2	;; DW_LNE_set_address
00000d8a  00000000          + 8027  		DD	.DWLopt440	;;     operand
00000d8e  3F                  8028  		DC	0x3f	;; SPECIAL 63
00000d8f  000502              8029  		DC	0x0,0x5,0x2	;; DW_LNE_set_address
00000d92  00000000          + 8030  		DD	.DWLopt441	;;     operand
00000d96  3B                  8031  		DC	0x3b	;; SPECIAL 59
00000d97  000502              8032  		DC	0x0,0x5,0x2	;; DW_LNE_set_address
00000d9a  00000000          + 8033  		DD	.DWLopt442	;;     operand
00000d9e  3C                  8034  		DC	0x3c	;; SPECIAL 60
00000d9f  000502              8035  		DC	0x0,0x5,0x2	;; DW_LNE_set_address
00000da2  00000000          + 8036  		DD	.DWLopt443	;;     operand
00000da6  3B                  8037  		DC	0x3b	;; SPECIAL 59
00000da7  000502              8038  		DC	0x0,0x5,0x2	;; DW_LNE_set_address
00000daa  00000000          + 8039  		DD	.DWLopt444	;;     operand
00000dae  3C                  8040  		DC	0x3c	;; SPECIAL 60
00000daf  06                  8041  		DC	0x6	;; DW_LNS_negate_stmt
00000db0  000502              8042  		DC	0x0,0x5,0x2	;; DW_LNE_set_address
00000db3  00000000          + 8043  		DD	.LDW31	;;     operand
00000db7  000101              8044  		DC	0x0,0x1,0x1	;; DW_LNE_end_sequence
00000dba  000502              8045  		DC	0x0,0x5,0x2	;; DW_LNE_set_address
00000dbd  00000000          + 8046  		DD	.DWLopt478	;;     operand
00000dc1  03                  8047  		DC	0x3	;; DW_LNS_advance_line
00000dc2  CB07                8048  		DC	0xcb,0x7	;; 971
00000dc4  01                  8049  		DC	0x1	;; DW_LNS_copy
00000dc5  000502              8050  		DC	0x0,0x5,0x2	;; DW_LNE_set_address
00000dc8  00000000          + 8051  		DD	.DWLopt479	;;     operand
00000dcc  3C                  8052  		DC	0x3c	;; SPECIAL 60
00000dcd  000502              8053  		DC	0x0,0x5,0x2	;; DW_LNE_set_address
00000dd0  00000000          + 8054  		DD	.DWLopt480	;;     operand
00000dd4  3C                  8055  		DC	0x3c	;; SPECIAL 60
00000dd5  000502              8056  		DC	0x0,0x5,0x2	;; DW_LNE_set_address
00000dd8  00000000          + 8057  		DD	.DWLopt481	;;     operand
00000ddc  3C                  8058  		DC	0x3c	;; SPECIAL 60
00000ddd  000502              8059  		DC	0x0,0x5,0x2	;; DW_LNE_set_address
00000de0  00000000          + 8060  		DD	.DWLopt482	;;     operand
00000de4  3E                  8061  		DC	0x3e	;; SPECIAL 62
00000de5  000502              8062  		DC	0x0,0x5,0x2	;; DW_LNE_set_address
00000de8  00000000          + 8063  		DD	.DWLopt483	;;     operand
00000dec  3E                  8064  		DC	0x3e	;; SPECIAL 62
00000ded  000502              8065  		DC	0x0,0x5,0x2	;; DW_LNE_set_address
00000df0  00000000          + 8066  		DD	.DWLopt484	;;     operand
00000df4  3D                  8067  		DC	0x3d	;; SPECIAL 61
00000df5  000502              8068  		DC	0x0,0x5,0x2	;; DW_LNE_set_address
00000df8  00000000          + 8069  		DD	.DWLopt485	;;     operand
00000dfc  3D                  8070  		DC	0x3d	;; SPECIAL 61
00000dfd  000502              8071  		DC	0x0,0x5,0x2	;; DW_LNE_set_address
00000e00  00000000          + 8072  		DD	.DWLopt486	;;     operand
00000e04  2F                  8073  		DC	0x2f	;; SPECIAL 47
00000e05  000502              8074  		DC	0x0,0x5,0x2	;; DW_LNE_set_address
00000e08  00000000          + 8075  		DD	.DWLopt487	;;     operand
00000e0c  3C                  8076  		DC	0x3c	;; SPECIAL 60
00000e0d  000502              8077  		DC	0x0,0x5,0x2	;; DW_LNE_set_address
00000e10  00000000          + 8078  		DD	.DWLopt488	;;     operand
00000e14  3B                  8079  		DC	0x3b	;; SPECIAL 59
00000e15  000502              8080  		DC	0x0,0x5,0x2	;; DW_LNE_set_address
00000e18  00000000          + 8081  		DD	.DWLopt489	;;     operand
00000e1c  3D                  8082  		DC	0x3d	;; SPECIAL 61
00000e1d  000502              8083  		DC	0x0,0x5,0x2	;; DW_LNE_set_address
00000e20  00000000          + 8084  		DD	.DWLopt490	;;     operand
00000e24  3D                  8085  		DC	0x3d	;; SPECIAL 61
00000e25  000502              8086  		DC	0x0,0x5,0x2	;; DW_LNE_set_address
00000e28  00000000          + 8087  		DD	.DWLopt491	;;     operand
00000e2c  3D                  8088  		DC	0x3d	;; SPECIAL 61
00000e2d  000502              8089  		DC	0x0,0x5,0x2	;; DW_LNE_set_address
00000e30  00000000          + 8090  		DD	.DWLopt492	;;     operand
00000e34  3F                  8091  		DC	0x3f	;; SPECIAL 63
00000e35  000502              8092  		DC	0x0,0x5,0x2	;; DW_LNE_set_address
00000e38  00000000          + 8093  		DD	.DWLopt493	;;     operand
00000e3c  38                  8094  		DC	0x38	;; SPECIAL 56
00000e3d  06                  8095  		DC	0x6	;; DW_LNS_negate_stmt
00000e3e  000502              8096  		DC	0x0,0x5,0x2	;; DW_LNE_set_address
00000e41  00000000          + 8097  		DD	.DWLopt494	;;     operand
00000e45  3C                  8098  		DC	0x3c	;; SPECIAL 60
00000e46  06                  8099  		DC	0x6	;; DW_LNS_negate_stmt
00000e47  000502              8100  		DC	0x0,0x5,0x2	;; DW_LNE_set_address
00000e4a  00000000          + 8101  		DD	.DWLopt495	;;     operand
00000e4e  03                  8102  		DC	0x3	;; DW_LNS_advance_line
00000e4f  8804                8103  		DC	0x88,0x4	;; 520
00000e51  01                  8104  		DC	0x1	;; DW_LNS_copy
00000e52  000502              8105  		DC	0x0,0x5,0x2	;; DW_LNE_set_address
00000e55  00000000          + 8106  		DD	.DWLopt496	;;     operand
00000e59  03                  8107  		DC	0x3	;; DW_LNS_advance_line
00000e5a  FB7B                8108  		DC	0xfb,0x7b	;; -517
00000e5c  01                  8109  		DC	0x1	;; DW_LNS_copy
00000e5d  000502              8110  		DC	0x0,0x5,0x2	;; DW_LNE_set_address
00000e60  00000000          + 8111  		DD	.DWLopt497	;;     operand
00000e64  3B                  8112  		DC	0x3b	;; SPECIAL 59
00000e65  000502              8113  		DC	0x0,0x5,0x2	;; DW_LNE_set_address
00000e68  00000000          + 8114  		DD	.DWLopt498	;;     operand
00000e6c  3D                  8115  		DC	0x3d	;; SPECIAL 61
00000e6d  000502              8116  		DC	0x0,0x5,0x2	;; DW_LNE_set_address
00000e70  00000000          + 8117  		DD	.DWLopt499	;;     operand
00000e74  42                  8118  		DC	0x42	;; SPECIAL 66
00000e75  000502              8119  		DC	0x0,0x5,0x2	;; DW_LNE_set_address
00000e78  00000000          + 8120  		DD	.DWLopt500	;;     operand
00000e7c  3C                  8121  		DC	0x3c	;; SPECIAL 60
00000e7d  06                  8122  		DC	0x6	;; DW_LNS_negate_stmt
00000e7e  000502              8123  		DC	0x0,0x5,0x2	;; DW_LNE_set_address
00000e81  00000000          + 8124  		DD	.DWLopt501	;;     operand
00000e85  30                  8125  		DC	0x30	;; SPECIAL 48
00000e86  000502              8126  		DC	0x0,0x5,0x2	;; DW_LNE_set_address
00000e89  00000000          + 8127  		DD	.DWLopt502	;;     operand
00000e8d  44                  8128  		DC	0x44	;; SPECIAL 68
00000e8e  06                  8129  		DC	0x6	;; DW_LNS_negate_stmt
00000e8f  000502              8130  		DC	0x0,0x5,0x2	;; DW_LNE_set_address
00000e92  00000000          + 8131  		DD	.DWLopt503	;;     operand
00000e96  2F                  8132  		DC	0x2f	;; SPECIAL 47
00000e97  000502              8133  		DC	0x0,0x5,0x2	;; DW_LNE_set_address
00000e9a  00000000          + 8134  		DD	.DWLopt504	;;     operand
00000e9e  3D                  8135  		DC	0x3d	;; SPECIAL 61
00000e9f  000502              8136  		DC	0x0,0x5,0x2	;; DW_LNE_set_address
00000ea2  00000000          + 8137  		DD	.DWLopt505	;;     operand
00000ea6  3D                  8138  		DC	0x3d	;; SPECIAL 61
00000ea7  06                  8139  		DC	0x6	;; DW_LNS_negate_stmt
00000ea8  000502              8140  		DC	0x0,0x5,0x2	;; DW_LNE_set_address
00000eab  00000000          + 8141  		DD	.DWLopt506	;;     operand
00000eaf  3D                  8142  		DC	0x3d	;; SPECIAL 61
00000eb0  000502              8143  		DC	0x0,0x5,0x2	;; DW_LNE_set_address
00000eb3  00000000          + 8144  		DD	.DWLopt507	;;     operand
00000eb7  3C                  8145  		DC	0x3c	;; SPECIAL 60
00000eb8  06                  8146  		DC	0x6	;; DW_LNS_negate_stmt
00000eb9  000502              8147  		DC	0x0,0x5,0x2	;; DW_LNE_set_address
00000ebc  00000000          + 8148  		DD	.DWLopt508	;;     operand
00000ec0  3C                  8149  		DC	0x3c	;; SPECIAL 60
00000ec1  000502              8150  		DC	0x0,0x5,0x2	;; DW_LNE_set_address
00000ec4  00000000          + 8151  		DD	.DWLopt509	;;     operand
00000ec8  3D                  8152  		DC	0x3d	;; SPECIAL 61
00000ec9  000502              8153  		DC	0x0,0x5,0x2	;; DW_LNE_set_address
00000ecc  00000000          + 8154  		DD	.DWLopt510	;;     operand
00000ed0  3C                  8155  		DC	0x3c	;; SPECIAL 60
00000ed1  000502              8156  		DC	0x0,0x5,0x2	;; DW_LNE_set_address
00000ed4  00000000          + 8157  		DD	.DWLopt511	;;     operand
00000ed8  3E                  8158  		DC	0x3e	;; SPECIAL 62
00000ed9  000502              8159  		DC	0x0,0x5,0x2	;; DW_LNE_set_address
00000edc  00000000          + 8160  		DD	.DWLopt512	;;     operand
00000ee0  3C                  8161  		DC	0x3c	;; SPECIAL 60
00000ee1  000502              8162  		DC	0x0,0x5,0x2	;; DW_LNE_set_address
00000ee4  00000000          + 8163  		DD	.DWLopt513	;;     operand
00000ee8  3C                  8164  		DC	0x3c	;; SPECIAL 60
00000ee9  000502              8165  		DC	0x0,0x5,0x2	;; DW_LNE_set_address
00000eec  00000000          + 8166  		DD	.DWLopt514	;;     operand
00000ef0  3C                  8167  		DC	0x3c	;; SPECIAL 60
00000ef1  000502              8168  		DC	0x0,0x5,0x2	;; DW_LNE_set_address
00000ef4  00000000          + 8169  		DD	.DWLopt515	;;     operand
00000ef8  3B                  8170  		DC	0x3b	;; SPECIAL 59
00000ef9  000502              8171  		DC	0x0,0x5,0x2	;; DW_LNE_set_address
00000efc  00000000          + 8172  		DD	.DWLopt516	;;     operand
00000f00  3B                  8173  		DC	0x3b	;; SPECIAL 59
00000f01  000502              8174  		DC	0x0,0x5,0x2	;; DW_LNE_set_address
00000f04  00000000          + 8175  		DD	.DWLopt517	;;     operand
00000f08  3C                  8176  		DC	0x3c	;; SPECIAL 60
00000f09  000502              8177  		DC	0x0,0x5,0x2	;; DW_LNE_set_address
00000f0c  00000000          + 8178  		DD	.DWLopt518	;;     operand
00000f10  3C                  8179  		DC	0x3c	;; SPECIAL 60
00000f11  000502              8180  		DC	0x0,0x5,0x2	;; DW_LNE_set_address
00000f14  00000000          + 8181  		DD	.DWLopt519	;;     operand
00000f18  3B                  8182  		DC	0x3b	;; SPECIAL 59
00000f19  000502              8183  		DC	0x0,0x5,0x2	;; DW_LNE_set_address
00000f1c  00000000          + 8184  		DD	.DWLopt520	;;     operand
00000f20  3D                  8185  		DC	0x3d	;; SPECIAL 61
00000f21  000502              8186  		DC	0x0,0x5,0x2	;; DW_LNE_set_address
00000f24  00000000          + 8187  		DD	.DWLopt521	;;     operand
00000f28  39                  8188  		DC	0x39	;; SPECIAL 57
00000f29  06                  8189  		DC	0x6	;; DW_LNS_negate_stmt
00000f2a  000502              8190  		DC	0x0,0x5,0x2	;; DW_LNE_set_address
00000f2d  00000000          + 8191  		DD	.DWLopt522	;;     operand
00000f31  03                  8192  		DC	0x3	;; DW_LNS_advance_line
00000f32  EF77                8193  		DC	0xef,0x77	;; -1041
00000f34  01                  8194  		DC	0x1	;; DW_LNS_copy
00000f35  06                  8195  		DC	0x6	;; DW_LNS_negate_stmt
00000f36  000502              8196  		DC	0x0,0x5,0x2	;; DW_LNE_set_address
00000f39  00000000          + 8197  		DD	.DWLopt523	;;     operand
00000f3d  03                  8198  		DC	0x3	;; DW_LNS_advance_line
00000f3e  9D08                8199  		DC	0x9d,0x8	;; 1053
00000f40  01                  8200  		DC	0x1	;; DW_LNS_copy
00000f41  000502              8201  		DC	0x0,0x5,0x2	;; DW_LNE_set_address
00000f44  00000000          + 8202  		DD	.DWLopt524	;;     operand
00000f48  3B                  8203  		DC	0x3b	;; SPECIAL 59
00000f49  06                  8204  		DC	0x6	;; DW_LNS_negate_stmt
00000f4a  000502              8205  		DC	0x0,0x5,0x2	;; DW_LNE_set_address
00000f4d  00000000          + 8206  		DD	.DWLopt525	;;     operand
00000f51  39                  8207  		DC	0x39	;; SPECIAL 57
00000f52  000502              8208  		DC	0x0,0x5,0x2	;; DW_LNE_set_address
00000f55  00000000          + 8209  		DD	.DWLopt526	;;     operand
00000f59  3B                  8210  		DC	0x3b	;; SPECIAL 59
00000f5a  06                  8211  		DC	0x6	;; DW_LNS_negate_stmt
00000f5b  000502              8212  		DC	0x0,0x5,0x2	;; DW_LNE_set_address
00000f5e  00000000          + 8213  		DD	.DWLopt527	;;     operand
00000f62  3D                  8214  		DC	0x3d	;; SPECIAL 61
00000f63  000502              8215  		DC	0x0,0x5,0x2	;; DW_LNE_set_address
00000f66  00000000          + 8216  		DD	.DWLopt528	;;     operand
00000f6a  33                  8217  		DC	0x33	;; SPECIAL 51
00000f6b  000502              8218  		DC	0x0,0x5,0x2	;; DW_LNE_set_address
00000f6e  00000000          + 8219  		DD	.DWLopt529	;;     operand
00000f72  43                  8220  		DC	0x43	;; SPECIAL 67
00000f73  06                  8221  		DC	0x6	;; DW_LNS_negate_stmt
00000f74  000502              8222  		DC	0x0,0x5,0x2	;; DW_LNE_set_address
00000f77  00000000          + 8223  		DD	.DWLopt530	;;     operand
00000f7b  31                  8224  		DC	0x31	;; SPECIAL 49
00000f7c  000502              8225  		DC	0x0,0x5,0x2	;; DW_LNE_set_address
00000f7f  00000000          + 8226  		DD	.DWLopt531	;;     operand
00000f83  43                  8227  		DC	0x43	;; SPECIAL 67
00000f84  06                  8228  		DC	0x6	;; DW_LNS_negate_stmt
00000f85  000502              8229  		DC	0x0,0x5,0x2	;; DW_LNE_set_address
00000f88  00000000          + 8230  		DD	.DWLopt532	;;     operand
00000f8c  3C                  8231  		DC	0x3c	;; SPECIAL 60
00000f8d  000502              8232  		DC	0x0,0x5,0x2	;; DW_LNE_set_address
00000f90  00000000          + 8233  		DD	.DWLopt533	;;     operand
00000f94  3F                  8234  		DC	0x3f	;; SPECIAL 63
00000f95  000502              8235  		DC	0x0,0x5,0x2	;; DW_LNE_set_address
00000f98  00000000          + 8236  		DD	.DWLopt534	;;     operand
00000f9c  3D                  8237  		DC	0x3d	;; SPECIAL 61
00000f9d  000502              8238  		DC	0x0,0x5,0x2	;; DW_LNE_set_address
00000fa0  00000000          + 8239  		DD	.DWLopt535	;;     operand
00000fa4  38                  8240  		DC	0x38	;; SPECIAL 56
00000fa5  06                  8241  		DC	0x6	;; DW_LNS_negate_stmt
00000fa6  000502              8242  		DC	0x0,0x5,0x2	;; DW_LNE_set_address
00000fa9  00000000          + 8243  		DD	.DWLopt536	;;     operand
00000fad  3C                  8244  		DC	0x3c	;; SPECIAL 60
00000fae  06                  8245  		DC	0x6	;; DW_LNS_negate_stmt
00000faf  000502              8246  		DC	0x0,0x5,0x2	;; DW_LNE_set_address
00000fb2  00000000          + 8247  		DD	.DWLopt537	;;     operand
00000fb6  3C                  8248  		DC	0x3c	;; SPECIAL 60
00000fb7  000502              8249  		DC	0x0,0x5,0x2	;; DW_LNE_set_address
00000fba  00000000          + 8250  		DD	.DWLopt538	;;     operand
00000fbe  45                  8251  		DC	0x45	;; SPECIAL 69
00000fbf  06                  8252  		DC	0x6	;; DW_LNS_negate_stmt
00000fc0  000502              8253  		DC	0x0,0x5,0x2	;; DW_LNE_set_address
00000fc3  00000000          + 8254  		DD	.DWLopt539	;;     operand
00000fc7  03                  8255  		DC	0x3	;; DW_LNS_advance_line
00000fc8  B403                8256  		DC	0xb4,0x3	;; 436
00000fca  01                  8257  		DC	0x1	;; DW_LNS_copy
00000fcb  06                  8258  		DC	0x6	;; DW_LNS_negate_stmt
00000fcc  000502              8259  		DC	0x0,0x5,0x2	;; DW_LNE_set_address
00000fcf  00000000          + 8260  		DD	.DWLopt540	;;     operand
00000fd3  03                  8261  		DC	0x3	;; DW_LNS_advance_line
00000fd4  CE7C                8262  		DC	0xce,0x7c	;; -434
00000fd6  01                  8263  		DC	0x1	;; DW_LNS_copy
00000fd7  000502              8264  		DC	0x0,0x5,0x2	;; DW_LNE_set_address
00000fda  00000000          + 8265  		DD	.DWLopt541	;;     operand
00000fde  43                  8266  		DC	0x43	;; SPECIAL 67
00000fdf  06                  8267  		DC	0x6	;; DW_LNS_negate_stmt
00000fe0  000502              8268  		DC	0x0,0x5,0x2	;; DW_LNE_set_address
00000fe3  00000000          + 8269  		DD	.DWLopt542	;;     operand
00000fe7  03                  8270  		DC	0x3	;; DW_LNS_advance_line
00000fe8  A903                8271  		DC	0xa9,0x3	;; 425
00000fea  01                  8272  		DC	0x1	;; DW_LNS_copy
00000feb  000502              8273  		DC	0x0,0x5,0x2	;; DW_LNE_set_address
00000fee  00000000          + 8274  		DD	.DWLopt543	;;     operand
00000ff2  03                  8275  		DC	0x3	;; DW_LNS_advance_line
00000ff3  D77C                8276  		DC	0xd7,0x7c	;; -425
00000ff5  01                  8277  		DC	0x1	;; DW_LNS_copy
00000ff6  000502              8278  		DC	0x0,0x5,0x2	;; DW_LNE_set_address
00000ff9  00000000          + 8279  		DD	.DWLopt544	;;     operand
00000ffd  03                  8280  		DC	0x3	;; DW_LNS_advance_line
00000ffe  A903                8281  		DC	0xa9,0x3	;; 425
00001000  01                  8282  		DC	0x1	;; DW_LNS_copy
00001001  06                  8283  		DC	0x6	;; DW_LNS_negate_stmt
00001002  000502              8284  		DC	0x0,0x5,0x2	;; DW_LNE_set_address
00001005  00000000          + 8285  		DD	.DWLopt545	;;     operand
00001009  03                  8286  		DC	0x3	;; DW_LNS_advance_line
0000100a  E67C                8287  		DC	0xe6,0x7c	;; -410
0000100c  01                  8288  		DC	0x1	;; DW_LNS_copy
0000100d  000502              8289  		DC	0x0,0x5,0x2	;; DW_LNE_set_address
00001010  00000000          + 8290  		DD	.DWLopt546	;;     operand
00001014  3B                  8291  		DC	0x3b	;; SPECIAL 59
00001015  06                  8292  		DC	0x6	;; DW_LNS_negate_stmt
00001016  000502              8293  		DC	0x0,0x5,0x2	;; DW_LNE_set_address
00001019  00000000          + 8294  		DD	.DWLopt547	;;     operand
0000101d  03                  8295  		DC	0x3	;; DW_LNS_advance_line
0000101e  9903                8296  		DC	0x99,0x3	;; 409
00001020  01                  8297  		DC	0x1	;; DW_LNS_copy
00001021  06                  8298  		DC	0x6	;; DW_LNS_negate_stmt
00001022  000502              8299  		DC	0x0,0x5,0x2	;; DW_LNE_set_address
00001025  00000000          + 8300  		DD	.DWLopt548	;;     operand
00001029  03                  8301  		DC	0x3	;; DW_LNS_advance_line
0000102a  E97C                8302  		DC	0xe9,0x7c	;; -407
0000102c  01                  8303  		DC	0x1	;; DW_LNS_copy
0000102d  000502              8304  		DC	0x0,0x5,0x2	;; DW_LNE_set_address
00001030  00000000          + 8305  		DD	.DWLopt549	;;     operand
00001034  3C                  8306  		DC	0x3c	;; SPECIAL 60
00001035  06                  8307  		DC	0x6	;; DW_LNS_negate_stmt
00001036  000502              8308  		DC	0x0,0x5,0x2	;; DW_LNE_set_address
00001039  00000000          + 8309  		DD	.DWLopt550	;;     operand
0000103d  03                  8310  		DC	0x3	;; DW_LNS_advance_line
0000103e  9503                8311  		DC	0x95,0x3	;; 405
00001040  01                  8312  		DC	0x1	;; DW_LNS_copy
00001041  06                  8313  		DC	0x6	;; DW_LNS_negate_stmt
00001042  000502              8314  		DC	0x0,0x5,0x2	;; DW_LNE_set_address
00001045  00000000          + 8315  		DD	.DWLopt551	;;     operand
00001049  03                  8316  		DC	0x3	;; DW_LNS_advance_line
0000104a  ED7C                8317  		DC	0xed,0x7c	;; -403
0000104c  01                  8318  		DC	0x1	;; DW_LNS_copy
0000104d  000502              8319  		DC	0x0,0x5,0x2	;; DW_LNE_set_address
00001050  00000000          + 8320  		DD	.DWLopt552	;;     operand
00001054  3B                  8321  		DC	0x3b	;; SPECIAL 59
00001055  06                  8322  		DC	0x6	;; DW_LNS_negate_stmt
00001056  000502              8323  		DC	0x0,0x5,0x2	;; DW_LNE_set_address
00001059  00000000          + 8324  		DD	.DWLopt553	;;     operand
0000105d  03                  8325  		DC	0x3	;; DW_LNS_advance_line
0000105e  9203                8326  		DC	0x92,0x3	;; 402
00001060  01                  8327  		DC	0x1	;; DW_LNS_copy
00001061  06                  8328  		DC	0x6	;; DW_LNS_negate_stmt
00001062  000502              8329  		DC	0x0,0x5,0x2	;; DW_LNE_set_address
00001065  00000000          + 8330  		DD	.DWLopt554	;;     operand
00001069  03                  8331  		DC	0x3	;; DW_LNS_advance_line
0000106a  F67C                8332  		DC	0xf6,0x7c	;; -394
0000106c  01                  8333  		DC	0x1	;; DW_LNS_copy
0000106d  06                  8334  		DC	0x6	;; DW_LNS_negate_stmt
0000106e  000502              8335  		DC	0x0,0x5,0x2	;; DW_LNE_set_address
00001071  00000000          + 8336  		DD	.DWLopt555	;;     operand
00001075  03                  8337  		DC	0x3	;; DW_LNS_advance_line
00001076  8A03                8338  		DC	0x8a,0x3	;; 394
00001078  01                  8339  		DC	0x1	;; DW_LNS_copy
00001079  06                  8340  		DC	0x6	;; DW_LNS_negate_stmt
0000107a  000502              8341  		DC	0x0,0x5,0x2	;; DW_LNE_set_address
0000107d  00000000          + 8342  		DD	.DWLopt556	;;     operand
00001081  03                  8343  		DC	0x3	;; DW_LNS_advance_line
00001082  F87C                8344  		DC	0xf8,0x7c	;; -392
00001084  01                  8345  		DC	0x1	;; DW_LNS_copy
00001085  000502              8346  		DC	0x0,0x5,0x2	;; DW_LNE_set_address
00001088  00000000          + 8347  		DD	.DWLopt557	;;     operand
0000108c  3B                  8348  		DC	0x3b	;; SPECIAL 59
0000108d  06                  8349  		DC	0x6	;; DW_LNS_negate_stmt
0000108e  000502              8350  		DC	0x0,0x5,0x2	;; DW_LNE_set_address
00001091  00000000          + 8351  		DD	.DWLopt558	;;     operand
00001095  03                  8352  		DC	0x3	;; DW_LNS_advance_line
00001096  8703                8353  		DC	0x87,0x3	;; 391
00001098  01                  8354  		DC	0x1	;; DW_LNS_copy
00001099  06                  8355  		DC	0x6	;; DW_LNS_negate_stmt
0000109a  000502              8356  		DC	0x0,0x5,0x2	;; DW_LNE_set_address
0000109d  00000000          + 8357  		DD	.DWLopt559	;;     operand
000010a1  03                  8358  		DC	0x3	;; DW_LNS_advance_line
000010a2  FC7C                8359  		DC	0xfc,0x7c	;; -388
000010a4  01                  8360  		DC	0x1	;; DW_LNS_copy
000010a5  000502              8361  		DC	0x0,0x5,0x2	;; DW_LNE_set_address
000010a8  00000000          + 8362  		DD	.DWLopt560	;;     operand
000010ac  39                  8363  		DC	0x39	;; SPECIAL 57
000010ad  000502              8364  		DC	0x0,0x5,0x2	;; DW_LNE_set_address
000010b0  00000000          + 8365  		DD	.DWLopt561	;;     operand
000010b4  3D                  8366  		DC	0x3d	;; SPECIAL 61
000010b5  000502              8367  		DC	0x0,0x5,0x2	;; DW_LNE_set_address
000010b8  00000000          + 8368  		DD	.DWLopt562	;;     operand
000010bc  3F                  8369  		DC	0x3f	;; SPECIAL 63
000010bd  06                  8370  		DC	0x6	;; DW_LNS_negate_stmt
000010be  000502              8371  		DC	0x0,0x5,0x2	;; DW_LNE_set_address
000010c1  00000000          + 8372  		DD	.DWLopt563	;;     operand
000010c5  03                  8373  		DC	0x3	;; DW_LNS_advance_line
000010c6  FD02                8374  		DC	0xfd,0x2	;; 381
000010c8  01                  8375  		DC	0x1	;; DW_LNS_copy
000010c9  06                  8376  		DC	0x6	;; DW_LNS_negate_stmt
000010ca  000502              8377  		DC	0x0,0x5,0x2	;; DW_LNE_set_address
000010cd  00000000          + 8378  		DD	.DWLopt564	;;     operand
000010d1  03                  8379  		DC	0x3	;; DW_LNS_advance_line
000010d2  857D                8380  		DC	0x85,0x7d	;; -379
000010d4  01                  8381  		DC	0x1	;; DW_LNS_copy
000010d5  000502              8382  		DC	0x0,0x5,0x2	;; DW_LNE_set_address
000010d8  00000000          + 8383  		DD	.DWLopt565	;;     operand
000010dc  3B                  8384  		DC	0x3b	;; SPECIAL 59
000010dd  000502              8385  		DC	0x0,0x5,0x2	;; DW_LNE_set_address
000010e0  00000000          + 8386  		DD	.DWLopt566	;;     operand
000010e4  3B                  8387  		DC	0x3b	;; SPECIAL 59
000010e5  000502              8388  		DC	0x0,0x5,0x2	;; DW_LNE_set_address
000010e8  00000000          + 8389  		DD	.DWLopt567	;;     operand
000010ec  3D                  8390  		DC	0x3d	;; SPECIAL 61
000010ed  06                  8391  		DC	0x6	;; DW_LNS_negate_stmt
000010ee  000502              8392  		DC	0x0,0x5,0x2	;; DW_LNE_set_address
000010f1  00000000          + 8393  		DD	.DWLopt568	;;     operand
000010f5  03                  8394  		DC	0x3	;; DW_LNS_advance_line
000010f6  F602                8395  		DC	0xf6,0x2	;; 374
000010f8  01                  8396  		DC	0x1	;; DW_LNS_copy
000010f9  06                  8397  		DC	0x6	;; DW_LNS_negate_stmt
000010fa  000502              8398  		DC	0x0,0x5,0x2	;; DW_LNE_set_address
000010fd  00000000          + 8399  		DD	.DWLopt569	;;     operand
00001101  03                  8400  		DC	0x3	;; DW_LNS_advance_line
00001102  8D7D                8401  		DC	0x8d,0x7d	;; -371
00001104  01                  8402  		DC	0x1	;; DW_LNS_copy
00001105  000502              8403  		DC	0x0,0x5,0x2	;; DW_LNE_set_address
00001108  00000000          + 8404  		DD	.DWLopt570	;;     operand
0000110c  4F                  8405  		DC	0x4f	;; SPECIAL 79
0000110d  06                  8406  		DC	0x6	;; DW_LNS_negate_stmt
0000110e  000502              8407  		DC	0x0,0x5,0x2	;; DW_LNE_set_address
00001111  00000000          + 8408  		DD	.DWLopt571	;;     operand
00001115  25                  8409  		DC	0x25	;; SPECIAL 37
00001116  06                  8410  		DC	0x6	;; DW_LNS_negate_stmt
00001117  000502              8411  		DC	0x0,0x5,0x2	;; DW_LNE_set_address
0000111a  00000000          + 8412  		DD	.DWLopt572	;;     operand
0000111e  3E                  8413  		DC	0x3e	;; SPECIAL 62
0000111f  000502              8414  		DC	0x0,0x5,0x2	;; DW_LNE_set_address
00001122  00000000          + 8415  		DD	.DWLopt573	;;     operand
00001126  4D                  8416  		DC	0x4d	;; SPECIAL 77
00001127  06                  8417  		DC	0x6	;; DW_LNS_negate_stmt
00001128  000502              8418  		DC	0x0,0x5,0x2	;; DW_LNE_set_address
0000112b  00000000          + 8419  		DD	.DWLopt574	;;     operand
0000112f  27                  8420  		DC	0x27	;; SPECIAL 39
00001130  06                  8421  		DC	0x6	;; DW_LNS_negate_stmt
00001131  000502              8422  		DC	0x0,0x5,0x2	;; DW_LNE_set_address
00001134  00000000          + 8423  		DD	.DWLopt575	;;     operand
00001138  3D                  8424  		DC	0x3d	;; SPECIAL 61
00001139  06                  8425  		DC	0x6	;; DW_LNS_negate_stmt
0000113a  000502              8426  		DC	0x0,0x5,0x2	;; DW_LNE_set_address
0000113d  00000000          + 8427  		DD	.DWLopt576	;;     operand
00001141  4A                  8428  		DC	0x4a	;; SPECIAL 74
00001142  000502              8429  		DC	0x0,0x5,0x2	;; DW_LNE_set_address
00001145  00000000          + 8430  		DD	.DWLopt577	;;     operand
00001149  2A                  8431  		DC	0x2a	;; SPECIAL 42
0000114a  06                  8432  		DC	0x6	;; DW_LNS_negate_stmt
0000114b  000502              8433  		DC	0x0,0x5,0x2	;; DW_LNE_set_address
0000114e  00000000          + 8434  		DD	.DWLopt578	;;     operand
00001152  3D                  8435  		DC	0x3d	;; SPECIAL 61
00001153  000502              8436  		DC	0x0,0x5,0x2	;; DW_LNE_set_address
00001156  00000000          + 8437  		DD	.DWLopt579	;;     operand
0000115a  2F                  8438  		DC	0x2f	;; SPECIAL 47
0000115b  000502              8439  		DC	0x0,0x5,0x2	;; DW_LNE_set_address
0000115e  00000000          + 8440  		DD	.DWLopt580	;;     operand
00001162  3C                  8441  		DC	0x3c	;; SPECIAL 60
00001163  000502              8442  		DC	0x0,0x5,0x2	;; DW_LNE_set_address
00001166  00000000          + 8443  		DD	.DWLopt581	;;     operand
0000116a  3B                  8444  		DC	0x3b	;; SPECIAL 59
0000116b  000502              8445  		DC	0x0,0x5,0x2	;; DW_LNE_set_address
0000116e  00000000          + 8446  		DD	.DWLopt582	;;     operand
00001172  3D                  8447  		DC	0x3d	;; SPECIAL 61
00001173  000502              8448  		DC	0x0,0x5,0x2	;; DW_LNE_set_address
00001176  00000000          + 8449  		DD	.DWLopt583	;;     operand
0000117a  3D                  8450  		DC	0x3d	;; SPECIAL 61
0000117b  000502              8451  		DC	0x0,0x5,0x2	;; DW_LNE_set_address
0000117e  00000000          + 8452  		DD	.DWLopt584	;;     operand
00001182  3D                  8453  		DC	0x3d	;; SPECIAL 61
00001183  000502              8454  		DC	0x0,0x5,0x2	;; DW_LNE_set_address
00001186  00000000          + 8455  		DD	.DWLopt585	;;     operand
0000118a  3C                  8456  		DC	0x3c	;; SPECIAL 60
0000118b  000502              8457  		DC	0x0,0x5,0x2	;; DW_LNE_set_address
0000118e  00000000          + 8458  		DD	.DWLopt586	;;     operand
00001192  3D                  8459  		DC	0x3d	;; SPECIAL 61
00001193  000502              8460  		DC	0x0,0x5,0x2	;; DW_LNE_set_address
00001196  00000000          + 8461  		DD	.DWLopt587	;;     operand
0000119a  3D                  8462  		DC	0x3d	;; SPECIAL 61
0000119b  06                  8463  		DC	0x6	;; DW_LNS_negate_stmt
0000119c  000502              8464  		DC	0x0,0x5,0x2	;; DW_LNE_set_address
0000119f  00000000          + 8465  		DD	.DWLopt588	;;     operand
000011a3  3C                  8466  		DC	0x3c	;; SPECIAL 60
000011a4  000502              8467  		DC	0x0,0x5,0x2	;; DW_LNE_set_address
000011a7  00000000          + 8468  		DD	.DWLopt589	;;     operand
000011ab  3C                  8469  		DC	0x3c	;; SPECIAL 60
000011ac  06                  8470  		DC	0x6	;; DW_LNS_negate_stmt
000011ad  000502              8471  		DC	0x0,0x5,0x2	;; DW_LNE_set_address
000011b0  00000000          + 8472  		DD	.DWLopt590	;;     operand
000011b4  3C                  8473  		DC	0x3c	;; SPECIAL 60
000011b5  000502              8474  		DC	0x0,0x5,0x2	;; DW_LNE_set_address
000011b8  00000000          + 8475  		DD	.DWLopt591	;;     operand
000011bc  3D                  8476  		DC	0x3d	;; SPECIAL 61
000011bd  000502              8477  		DC	0x0,0x5,0x2	;; DW_LNE_set_address
000011c0  00000000          + 8478  		DD	.DWLopt592	;;     operand
000011c4  3C                  8479  		DC	0x3c	;; SPECIAL 60
000011c5  000502              8480  		DC	0x0,0x5,0x2	;; DW_LNE_set_address
000011c8  00000000          + 8481  		DD	.DWLopt593	;;     operand
000011cc  3E                  8482  		DC	0x3e	;; SPECIAL 62
000011cd  000502              8483  		DC	0x0,0x5,0x2	;; DW_LNE_set_address
000011d0  00000000          + 8484  		DD	.DWLopt594	;;     operand
000011d4  3B                  8485  		DC	0x3b	;; SPECIAL 59
000011d5  000502              8486  		DC	0x0,0x5,0x2	;; DW_LNE_set_address
000011d8  00000000          + 8487  		DD	.DWLopt595	;;     operand
000011dc  3C                  8488  		DC	0x3c	;; SPECIAL 60
000011dd  000502              8489  		DC	0x0,0x5,0x2	;; DW_LNE_set_address
000011e0  00000000          + 8490  		DD	.DWLopt596	;;     operand
000011e4  3B                  8491  		DC	0x3b	;; SPECIAL 59
000011e5  000502              8492  		DC	0x0,0x5,0x2	;; DW_LNE_set_address
000011e8  00000000          + 8493  		DD	.DWLopt597	;;     operand
000011ec  3B                  8494  		DC	0x3b	;; SPECIAL 59
000011ed  000502              8495  		DC	0x0,0x5,0x2	;; DW_LNE_set_address
000011f0  00000000          + 8496  		DD	.DWLopt598	;;     operand
000011f4  3C                  8497  		DC	0x3c	;; SPECIAL 60
000011f5  06                  8498  		DC	0x6	;; DW_LNS_negate_stmt
000011f6  000502              8499  		DC	0x0,0x5,0x2	;; DW_LNE_set_address
000011f9  00000000          + 8500  		DD	.DWLopt599	;;     operand
000011fd  03                  8501  		DC	0x3	;; DW_LNS_advance_line
000011fe  CA02                8502  		DC	0xca,0x2	;; 330
00001200  01                  8503  		DC	0x1	;; DW_LNS_copy
00001201  000502              8504  		DC	0x0,0x5,0x2	;; DW_LNE_set_address
00001204  00000000          + 8505  		DD	.DWLopt600	;;     operand
00001208  03                  8506  		DC	0x3	;; DW_LNS_advance_line
00001209  B67D                8507  		DC	0xb6,0x7d	;; -330
0000120b  01                  8508  		DC	0x1	;; DW_LNS_copy
0000120c  000502              8509  		DC	0x0,0x5,0x2	;; DW_LNE_set_address
0000120f  00000000          + 8510  		DD	.DWLopt601	;;     operand
00001213  03                  8511  		DC	0x3	;; DW_LNS_advance_line
00001214  CA02                8512  		DC	0xca,0x2	;; 330
00001216  01                  8513  		DC	0x1	;; DW_LNS_copy
00001217  06                  8514  		DC	0x6	;; DW_LNS_negate_stmt
00001218  000502              8515  		DC	0x0,0x5,0x2	;; DW_LNE_set_address
0000121b  00000000          + 8516  		DD	.DWLopt602	;;     operand
0000121f  03                  8517  		DC	0x3	;; DW_LNS_advance_line
00001220  B87D                8518  		DC	0xb8,0x7d	;; -328
00001222  01                  8519  		DC	0x1	;; DW_LNS_copy
00001223  000502              8520  		DC	0x0,0x5,0x2	;; DW_LNE_set_address
00001226  00000000          + 8521  		DD	.DWLopt603	;;     operand
0000122a  3B                  8522  		DC	0x3b	;; SPECIAL 59
0000122b  06                  8523  		DC	0x6	;; DW_LNS_negate_stmt
0000122c  000502              8524  		DC	0x0,0x5,0x2	;; DW_LNE_set_address
0000122f  00000000          + 8525  		DD	.DWLopt604	;;     operand
00001233  03                  8526  		DC	0x3	;; DW_LNS_advance_line
00001234  C702                8527  		DC	0xc7,0x2	;; 327
00001236  01                  8528  		DC	0x1	;; DW_LNS_copy
00001237  06                  8529  		DC	0x6	;; DW_LNS_negate_stmt
00001238  000502              8530  		DC	0x0,0x5,0x2	;; DW_LNE_set_address
0000123b  00000000          + 8531  		DD	.DWLopt605	;;     operand
0000123f  03                  8532  		DC	0x3	;; DW_LNS_advance_line
00001240  BC7D                8533  		DC	0xbc,0x7d	;; -324
00001242  01                  8534  		DC	0x1	;; DW_LNS_copy
00001243  000502              8535  		DC	0x0,0x5,0x2	;; DW_LNE_set_address
00001246  00000000          + 8536  		DD	.DWLopt606	;;     operand
0000124a  39                  8537  		DC	0x39	;; SPECIAL 57
0000124b  06                  8538  		DC	0x6	;; DW_LNS_negate_stmt
0000124c  000502              8539  		DC	0x0,0x5,0x2	;; DW_LNE_set_address
0000124f  00000000          + 8540  		DD	.DWLopt607	;;     operand
00001253  03                  8541  		DC	0x3	;; DW_LNS_advance_line
00001254  C502                8542  		DC	0xc5,0x2	;; 325
00001256  01                  8543  		DC	0x1	;; DW_LNS_copy
00001257  06                  8544  		DC	0x6	;; DW_LNS_negate_stmt
00001258  000502              8545  		DC	0x0,0x5,0x2	;; DW_LNE_set_address
0000125b  00000000          + 8546  		DD	.DWLopt608	;;     operand
0000125f  03                  8547  		DC	0x3	;; DW_LNS_advance_line
00001260  C77D                8548  		DC	0xc7,0x7d	;; -313
00001262  01                  8549  		DC	0x1	;; DW_LNS_copy
00001263  000502              8550  		DC	0x0,0x5,0x2	;; DW_LNE_set_address
00001266  00000000          + 8551  		DD	.DWLopt609	;;     operand
0000126a  3B                  8552  		DC	0x3b	;; SPECIAL 59
0000126b  06                  8553  		DC	0x6	;; DW_LNS_negate_stmt
0000126c  000502              8554  		DC	0x0,0x5,0x2	;; DW_LNE_set_address
0000126f  00000000          + 8555  		DD	.DWLopt610	;;     operand
00001273  39                  8556  		DC	0x39	;; SPECIAL 57
00001274  000502              8557  		DC	0x0,0x5,0x2	;; DW_LNE_set_address
00001277  00000000          + 8558  		DD	.DWLopt611	;;     operand
0000127b  3B                  8559  		DC	0x3b	;; SPECIAL 59
0000127c  06                  8560  		DC	0x6	;; DW_LNS_negate_stmt
0000127d  000502              8561  		DC	0x0,0x5,0x2	;; DW_LNE_set_address
00001280  00000000          + 8562  		DD	.DWLopt612	;;     operand
00001284  3C                  8563  		DC	0x3c	;; SPECIAL 60
00001285  000502              8564  		DC	0x0,0x5,0x2	;; DW_LNE_set_address
00001288  00000000          + 8565  		DD	.DWLopt613	;;     operand
0000128c  34                  8566  		DC	0x34	;; SPECIAL 52
0000128d  000502              8567  		DC	0x0,0x5,0x2	;; DW_LNE_set_address
00001290  00000000          + 8568  		DD	.DWLopt614	;;     operand
00001294  42                  8569  		DC	0x42	;; SPECIAL 66
00001295  06                  8570  		DC	0x6	;; DW_LNS_negate_stmt
00001296  000502              8571  		DC	0x0,0x5,0x2	;; DW_LNE_set_address
00001299  00000000          + 8572  		DD	.DWLopt615	;;     operand
0000129d  32                  8573  		DC	0x32	;; SPECIAL 50
0000129e  000502              8574  		DC	0x0,0x5,0x2	;; DW_LNE_set_address
000012a1  00000000          + 8575  		DD	.DWLopt616	;;     operand
000012a5  42                  8576  		DC	0x42	;; SPECIAL 66
000012a6  000502              8577  		DC	0x0,0x5,0x2	;; DW_LNE_set_address
000012a9  00000000          + 8578  		DD	.DWLopt617	;;     operand
000012ad  03                  8579  		DC	0x3	;; DW_LNS_advance_line
000012ae  B402                8580  		DC	0xb4,0x2	;; 308
000012b0  01                  8581  		DC	0x1	;; DW_LNS_copy
000012b1  06                  8582  		DC	0x6	;; DW_LNS_negate_stmt
000012b2  000502              8583  		DC	0x0,0x5,0x2	;; DW_LNE_set_address
000012b5  00000000          + 8584  		DD	.DWLopt618	;;     operand
000012b9  03                  8585  		DC	0x3	;; DW_LNS_advance_line
000012ba  D57D                8586  		DC	0xd5,0x7d	;; -299
000012bc  01                  8587  		DC	0x1	;; DW_LNS_copy
000012bd  000502              8588  		DC	0x0,0x5,0x2	;; DW_LNE_set_address
000012c0  00000000          + 8589  		DD	.DWLopt619	;;     operand
000012c4  3C                  8590  		DC	0x3c	;; SPECIAL 60
000012c5  000502              8591  		DC	0x0,0x5,0x2	;; DW_LNE_set_address
000012c8  00000000          + 8592  		DD	.DWLopt620	;;     operand
000012cc  3B                  8593  		DC	0x3b	;; SPECIAL 59
000012cd  000502              8594  		DC	0x0,0x5,0x2	;; DW_LNE_set_address
000012d0  00000000          + 8595  		DD	.DWLopt621	;;     operand
000012d4  3A                  8596  		DC	0x3a	;; SPECIAL 58
000012d5  06                  8597  		DC	0x6	;; DW_LNS_negate_stmt
000012d6  000502              8598  		DC	0x0,0x5,0x2	;; DW_LNE_set_address
000012d9  00000000          + 8599  		DD	.DWLopt622	;;     operand
000012dd  03                  8600  		DC	0x3	;; DW_LNS_advance_line
000012de  BA76                8601  		DC	0xba,0x76	;; -1222
000012e0  01                  8602  		DC	0x1	;; DW_LNS_copy
000012e1  06                  8603  		DC	0x6	;; DW_LNS_negate_stmt
000012e2  000502              8604  		DC	0x0,0x5,0x2	;; DW_LNE_set_address
000012e5  00000000          + 8605  		DD	.DWLopt623	;;     operand
000012e9  03                  8606  		DC	0x3	;; DW_LNS_advance_line
000012ea  C809                8607  		DC	0xc8,0x9	;; 1224
000012ec  01                  8608  		DC	0x1	;; DW_LNS_copy
000012ed  000502              8609  		DC	0x0,0x5,0x2	;; DW_LNE_set_address
000012f0  00000000          + 8610  		DD	.DWLopt624	;;     operand
000012f4  38                  8611  		DC	0x38	;; SPECIAL 56
000012f5  000502              8612  		DC	0x0,0x5,0x2	;; DW_LNE_set_address
000012f8  00000000          + 8613  		DD	.DWLopt625	;;     operand
000012fc  3A                  8614  		DC	0x3a	;; SPECIAL 58
000012fd  000502              8615  		DC	0x0,0x5,0x2	;; DW_LNE_set_address
00001300  00000000          + 8616  		DD	.DWLopt626	;;     operand
00001304  3F                  8617  		DC	0x3f	;; SPECIAL 63
00001305  000502              8618  		DC	0x0,0x5,0x2	;; DW_LNE_set_address
00001308  00000000          + 8619  		DD	.DWLopt627	;;     operand
0000130c  3B                  8620  		DC	0x3b	;; SPECIAL 59
0000130d  000502              8621  		DC	0x0,0x5,0x2	;; DW_LNE_set_address
00001310  00000000          + 8622  		DD	.DWLopt628	;;     operand
00001314  3F                  8623  		DC	0x3f	;; SPECIAL 63
00001315  000502              8624  		DC	0x0,0x5,0x2	;; DW_LNE_set_address
00001318  00000000          + 8625  		DD	.DWLopt629	;;     operand
0000131c  3C                  8626  		DC	0x3c	;; SPECIAL 60
0000131d  000502              8627  		DC	0x0,0x5,0x2	;; DW_LNE_set_address
00001320  00000000          + 8628  		DD	.DWLopt630	;;     operand
00001324  3C                  8629  		DC	0x3c	;; SPECIAL 60
00001325  000502              8630  		DC	0x0,0x5,0x2	;; DW_LNE_set_address
00001328  00000000          + 8631  		DD	.DWLopt631	;;     operand
0000132c  3B                  8632  		DC	0x3b	;; SPECIAL 59
0000132d  000502              8633  		DC	0x0,0x5,0x2	;; DW_LNE_set_address
00001330  00000000          + 8634  		DD	.DWLopt632	;;     operand
00001334  3B                  8635  		DC	0x3b	;; SPECIAL 59
00001335  000502              8636  		DC	0x0,0x5,0x2	;; DW_LNE_set_address
00001338  00000000          + 8637  		DD	.DWLopt633	;;     operand
0000133c  3B                  8638  		DC	0x3b	;; SPECIAL 59
0000133d  000502              8639  		DC	0x0,0x5,0x2	;; DW_LNE_set_address
00001340  00000000          + 8640  		DD	.DWLopt634	;;     operand
00001344  3D                  8641  		DC	0x3d	;; SPECIAL 61
00001345  000502              8642  		DC	0x0,0x5,0x2	;; DW_LNE_set_address
00001348  00000000          + 8643  		DD	.DWLopt635	;;     operand
0000134c  3B                  8644  		DC	0x3b	;; SPECIAL 59
0000134d  000502              8645  		DC	0x0,0x5,0x2	;; DW_LNE_set_address
00001350  00000000          + 8646  		DD	.DWLopt636	;;     operand
00001354  3C                  8647  		DC	0x3c	;; SPECIAL 60
00001355  000502              8648  		DC	0x0,0x5,0x2	;; DW_LNE_set_address
00001358  00000000          + 8649  		DD	.DWLopt637	;;     operand
0000135c  3B                  8650  		DC	0x3b	;; SPECIAL 59
0000135d  000502              8651  		DC	0x0,0x5,0x2	;; DW_LNE_set_address
00001360  00000000          + 8652  		DD	.DWLopt638	;;     operand
00001364  3C                  8653  		DC	0x3c	;; SPECIAL 60
00001365  000502              8654  		DC	0x0,0x5,0x2	;; DW_LNE_set_address
00001368  00000000          + 8655  		DD	.DWLopt639	;;     operand
0000136c  3B                  8656  		DC	0x3b	;; SPECIAL 59
0000136d  000502              8657  		DC	0x0,0x5,0x2	;; DW_LNE_set_address
00001370  00000000          + 8658  		DD	.DWLopt640	;;     operand
00001374  3C                  8659  		DC	0x3c	;; SPECIAL 60
00001375  000502              8660  		DC	0x0,0x5,0x2	;; DW_LNE_set_address
00001378  00000000          + 8661  		DD	.DWLopt641	;;     operand
0000137c  3B                  8662  		DC	0x3b	;; SPECIAL 59
0000137d  000502              8663  		DC	0x0,0x5,0x2	;; DW_LNE_set_address
00001380  00000000          + 8664  		DD	.DWLopt642	;;     operand
00001384  3C                  8665  		DC	0x3c	;; SPECIAL 60
00001385  06                  8666  		DC	0x6	;; DW_LNS_negate_stmt
00001386  000502              8667  		DC	0x0,0x5,0x2	;; DW_LNE_set_address
00001389  00000000          + 8668  		DD	.DWLopt643	;;     operand
0000138d  03                  8669  		DC	0x3	;; DW_LNS_advance_line
0000138e  8702                8670  		DC	0x87,0x2	;; 263
00001390  01                  8671  		DC	0x1	;; DW_LNS_copy
00001391  06                  8672  		DC	0x6	;; DW_LNS_negate_stmt
00001392  000502              8673  		DC	0x0,0x5,0x2	;; DW_LNE_set_address
00001395  00000000          + 8674  		DD	.DWLopt644	;;     operand
00001399  03                  8675  		DC	0x3	;; DW_LNS_advance_line
0000139a  FD7D                8676  		DC	0xfd,0x7d	;; -259
0000139c  01                  8677  		DC	0x1	;; DW_LNS_copy
0000139d  06                  8678  		DC	0x6	;; DW_LNS_negate_stmt
0000139e  000502              8679  		DC	0x0,0x5,0x2	;; DW_LNE_set_address
000013a1  00000000          + 8680  		DD	.DWLopt645	;;     operand
000013a5  03                  8681  		DC	0x3	;; DW_LNS_advance_line
000013a6  8302                8682  		DC	0x83,0x2	;; 259
000013a8  01                  8683  		DC	0x1	;; DW_LNS_copy
000013a9  06                  8684  		DC	0x6	;; DW_LNS_negate_stmt
000013aa  000502              8685  		DC	0x0,0x5,0x2	;; DW_LNE_set_address
000013ad  00000000          + 8686  		DD	.DWLopt646	;;     operand
000013b1  03                  8687  		DC	0x3	;; DW_LNS_advance_line
000013b2  FF7D                8688  		DC	0xff,0x7d	;; -257
000013b4  01                  8689  		DC	0x1	;; DW_LNS_copy
000013b5  000502              8690  		DC	0x0,0x5,0x2	;; DW_LNE_set_address
000013b8  00000000          + 8691  		DD	.DWLopt647	;;     operand
000013bc  3B                  8692  		DC	0x3b	;; SPECIAL 59
000013bd  06                  8693  		DC	0x6	;; DW_LNS_negate_stmt
000013be  000502              8694  		DC	0x0,0x5,0x2	;; DW_LNE_set_address
000013c1  00000000          + 8695  		DD	.DWLopt648	;;     operand
000013c5  03                  8696  		DC	0x3	;; DW_LNS_advance_line
000013c6  8002                8697  		DC	0x80,0x2	;; 256
000013c8  01                  8698  		DC	0x1	;; DW_LNS_copy
000013c9  06                  8699  		DC	0x6	;; DW_LNS_negate_stmt
000013ca  000502              8700  		DC	0x0,0x5,0x2	;; DW_LNE_set_address
000013cd  00000000          + 8701  		DD	.DWLopt649	;;     operand
000013d1  03                  8702  		DC	0x3	;; DW_LNS_advance_line
000013d2  827E                8703  		DC	0x82,0x7e	;; -254
000013d4  01                  8704  		DC	0x1	;; DW_LNS_copy
000013d5  000502              8705  		DC	0x0,0x5,0x2	;; DW_LNE_set_address
000013d8  00000000          + 8706  		DD	.DWLopt650	;;     operand
000013dc  3B                  8707  		DC	0x3b	;; SPECIAL 59
000013dd  000502              8708  		DC	0x0,0x5,0x2	;; DW_LNE_set_address
000013e0  00000000          + 8709  		DD	.DWLopt651	;;     operand
000013e4  3B                  8710  		DC	0x3b	;; SPECIAL 59
000013e5  000502              8711  		DC	0x0,0x5,0x2	;; DW_LNE_set_address
000013e8  00000000          + 8712  		DD	.DWLopt652	;;     operand
000013ec  3B                  8713  		DC	0x3b	;; SPECIAL 59
000013ed  000502              8714  		DC	0x0,0x5,0x2	;; DW_LNE_set_address
000013f0  00000000          + 8715  		DD	.DWLopt653	;;     operand
000013f4  3C                  8716  		DC	0x3c	;; SPECIAL 60
000013f5  000502              8717  		DC	0x0,0x5,0x2	;; DW_LNE_set_address
000013f8  00000000          + 8718  		DD	.DWLopt654	;;     operand
000013fc  41                  8719  		DC	0x41	;; SPECIAL 65
000013fd  06                  8720  		DC	0x6	;; DW_LNS_negate_stmt
000013fe  000502              8721  		DC	0x0,0x5,0x2	;; DW_LNE_set_address
00001401  00000000          + 8722  		DD	.DWLopt655	;;     operand
00001405  03                  8723  		DC	0x3	;; DW_LNS_advance_line
00001406  F201                8724  		DC	0xf2,0x1	;; 242
00001408  01                  8725  		DC	0x1	;; DW_LNS_copy
00001409  06                  8726  		DC	0x6	;; DW_LNS_negate_stmt
0000140a  000502              8727  		DC	0x0,0x5,0x2	;; DW_LNE_set_address
0000140d  00000000          + 8728  		DD	.DWLopt656	;;     operand
00001411  03                  8729  		DC	0x3	;; DW_LNS_advance_line
00001412  907E                8730  		DC	0x90,0x7e	;; -240
00001414  01                  8731  		DC	0x1	;; DW_LNS_copy
00001415  000502              8732  		DC	0x0,0x5,0x2	;; DW_LNE_set_address
00001418  00000000          + 8733  		DD	.DWLopt657	;;     operand
0000141c  3C                  8734  		DC	0x3c	;; SPECIAL 60
0000141d  000502              8735  		DC	0x0,0x5,0x2	;; DW_LNE_set_address
00001420  00000000          + 8736  		DD	.DWLopt658	;;     operand
00001424  3E                  8737  		DC	0x3e	;; SPECIAL 62
00001425  000502              8738  		DC	0x0,0x5,0x2	;; DW_LNE_set_address
00001428  00000000          + 8739  		DD	.DWLopt659	;;     operand
0000142c  3E                  8740  		DC	0x3e	;; SPECIAL 62
0000142d  000502              8741  		DC	0x0,0x5,0x2	;; DW_LNE_set_address
00001430  00000000          + 8742  		DD	.DWLopt660	;;     operand
00001434  3D                  8743  		DC	0x3d	;; SPECIAL 61
00001435  000502              8744  		DC	0x0,0x5,0x2	;; DW_LNE_set_address
00001438  00000000          + 8745  		DD	.DWLopt661	;;     operand
0000143c  3D                  8746  		DC	0x3d	;; SPECIAL 61
0000143d  000502              8747  		DC	0x0,0x5,0x2	;; DW_LNE_set_address
00001440  00000000          + 8748  		DD	.DWLopt662	;;     operand
00001444  2F                  8749  		DC	0x2f	;; SPECIAL 47
00001445  000502              8750  		DC	0x0,0x5,0x2	;; DW_LNE_set_address
00001448  00000000          + 8751  		DD	.DWLopt663	;;     operand
0000144c  3C                  8752  		DC	0x3c	;; SPECIAL 60
0000144d  000502              8753  		DC	0x0,0x5,0x2	;; DW_LNE_set_address
00001450  00000000          + 8754  		DD	.DWLopt664	;;     operand
00001454  3B                  8755  		DC	0x3b	;; SPECIAL 59
00001455  000502              8756  		DC	0x0,0x5,0x2	;; DW_LNE_set_address
00001458  00000000          + 8757  		DD	.DWLopt665	;;     operand
0000145c  3D                  8758  		DC	0x3d	;; SPECIAL 61
0000145d  000502              8759  		DC	0x0,0x5,0x2	;; DW_LNE_set_address
00001460  00000000          + 8760  		DD	.DWLopt666	;;     operand
00001464  3D                  8761  		DC	0x3d	;; SPECIAL 61
00001465  000502              8762  		DC	0x0,0x5,0x2	;; DW_LNE_set_address
00001468  00000000          + 8763  		DD	.DWLopt667	;;     operand
0000146c  3D                  8764  		DC	0x3d	;; SPECIAL 61
0000146d  000502              8765  		DC	0x0,0x5,0x2	;; DW_LNE_set_address
00001470  00000000          + 8766  		DD	.DWLopt668	;;     operand
00001474  3D                  8767  		DC	0x3d	;; SPECIAL 61
00001475  000502              8768  		DC	0x0,0x5,0x2	;; DW_LNE_set_address
00001478  00000000          + 8769  		DD	.DWLopt669	;;     operand
0000147c  3C                  8770  		DC	0x3c	;; SPECIAL 60
0000147d  06                  8771  		DC	0x6	;; DW_LNS_negate_stmt
0000147e  000502              8772  		DC	0x0,0x5,0x2	;; DW_LNE_set_address
00001481  00000000          + 8773  		DD	.DWLopt670	;;     operand
00001485  03                  8774  		DC	0x3	;; DW_LNS_advance_line
00001486  DA01                8775  		DC	0xda,0x1	;; 218
00001488  01                  8776  		DC	0x1	;; DW_LNS_copy
00001489  06                  8777  		DC	0x6	;; DW_LNS_negate_stmt
0000148a  000502              8778  		DC	0x0,0x5,0x2	;; DW_LNE_set_address
0000148d  00000000          + 8779  		DD	.DWLopt671	;;     operand
00001491  03                  8780  		DC	0x3	;; DW_LNS_advance_line
00001492  A87E                8781  		DC	0xa8,0x7e	;; -216
00001494  01                  8782  		DC	0x1	;; DW_LNS_copy
00001495  000502              8783  		DC	0x0,0x5,0x2	;; DW_LNE_set_address
00001498  00000000          + 8784  		DD	.DWLopt672	;;     operand
0000149c  3C                  8785  		DC	0x3c	;; SPECIAL 60
0000149d  000502              8786  		DC	0x0,0x5,0x2	;; DW_LNE_set_address
000014a0  00000000          + 8787  		DD	.DWLopt673	;;     operand
000014a4  3B                  8788  		DC	0x3b	;; SPECIAL 59
000014a5  000502              8789  		DC	0x0,0x5,0x2	;; DW_LNE_set_address
000014a8  00000000          + 8790  		DD	.DWLopt674	;;     operand
000014ac  3D                  8791  		DC	0x3d	;; SPECIAL 61
000014ad  000502              8792  		DC	0x0,0x5,0x2	;; DW_LNE_set_address
000014b0  00000000          + 8793  		DD	.DWLopt675	;;     operand
000014b4  39                  8794  		DC	0x39	;; SPECIAL 57
000014b5  000502              8795  		DC	0x0,0x5,0x2	;; DW_LNE_set_address
000014b8  00000000          + 8796  		DD	.DWLopt676	;;     operand
000014bc  3D                  8797  		DC	0x3d	;; SPECIAL 61
000014bd  000502              8798  		DC	0x0,0x5,0x2	;; DW_LNE_set_address
000014c0  00000000          + 8799  		DD	.DWLopt677	;;     operand
000014c4  3C                  8800  		DC	0x3c	;; SPECIAL 60
000014c5  000502              8801  		DC	0x0,0x5,0x2	;; DW_LNE_set_address
000014c8  00000000          + 8802  		DD	.DWLopt678	;;     operand
000014cc  41                  8803  		DC	0x41	;; SPECIAL 65
000014cd  000502              8804  		DC	0x0,0x5,0x2	;; DW_LNE_set_address
000014d0  00000000          + 8805  		DD	.DWLopt679	;;     operand
000014d4  3B                  8806  		DC	0x3b	;; SPECIAL 59
000014d5  000502              8807  		DC	0x0,0x5,0x2	;; DW_LNE_set_address
000014d8  00000000          + 8808  		DD	.DWLopt680	;;     operand
000014dc  3C                  8809  		DC	0x3c	;; SPECIAL 60
000014dd  000502              8810  		DC	0x0,0x5,0x2	;; DW_LNE_set_address
000014e0  00000000          + 8811  		DD	.DWLopt681	;;     operand
000014e4  3A                  8812  		DC	0x3a	;; SPECIAL 58
000014e5  000502              8813  		DC	0x0,0x5,0x2	;; DW_LNE_set_address
000014e8  00000000          + 8814  		DD	.DWLopt682	;;     operand
000014ec  3A                  8815  		DC	0x3a	;; SPECIAL 58
000014ed  000502              8816  		DC	0x0,0x5,0x2	;; DW_LNE_set_address
000014f0  00000000          + 8817  		DD	.DWLopt683	;;     operand
000014f4  3D                  8818  		DC	0x3d	;; SPECIAL 61
000014f5  000502              8819  		DC	0x0,0x5,0x2	;; DW_LNE_set_address
000014f8  00000000          + 8820  		DD	.DWLopt684	;;     operand
000014fc  3A                  8821  		DC	0x3a	;; SPECIAL 58
000014fd  000502              8822  		DC	0x0,0x5,0x2	;; DW_LNE_set_address
00001500  00000000          + 8823  		DD	.DWLopt685	;;     operand
00001504  3F                  8824  		DC	0x3f	;; SPECIAL 63
00001505  000502              8825  		DC	0x0,0x5,0x2	;; DW_LNE_set_address
00001508  00000000          + 8826  		DD	.DWLopt686	;;     operand
0000150c  3B                  8827  		DC	0x3b	;; SPECIAL 59
0000150d  06                  8828  		DC	0x6	;; DW_LNS_negate_stmt
0000150e  000502              8829  		DC	0x0,0x5,0x2	;; DW_LNE_set_address
00001511  00000000          + 8830  		DD	.DWLopt687	;;     operand
00001515  03                  8831  		DC	0x3	;; DW_LNS_advance_line
00001516  CD75                8832  		DC	0xcd,0x75	;; -1331
00001518  01                  8833  		DC	0x1	;; DW_LNS_copy
00001519  000502              8834  		DC	0x0,0x5,0x2	;; DW_LNE_set_address
0000151c  00000000          + 8835  		DD	.DWLopt688	;;     operand
00001520  03                  8836  		DC	0x3	;; DW_LNS_advance_line
00001521  B30A                8837  		DC	0xb3,0xa	;; 1331
00001523  01                  8838  		DC	0x1	;; DW_LNS_copy
00001524  06                  8839  		DC	0x6	;; DW_LNS_negate_stmt
00001525  000502              8840  		DC	0x0,0x5,0x2	;; DW_LNE_set_address
00001528  00000000          + 8841  		DD	.DWLopt689	;;     operand
0000152c  3B                  8842  		DC	0x3b	;; SPECIAL 59
0000152d  000502              8843  		DC	0x0,0x5,0x2	;; DW_LNE_set_address
00001530  00000000          + 8844  		DD	.DWLopt690	;;     operand
00001534  3A                  8845  		DC	0x3a	;; SPECIAL 58
00001535  000502              8846  		DC	0x0,0x5,0x2	;; DW_LNE_set_address
00001538  00000000          + 8847  		DD	.DWLopt691	;;     operand
0000153c  3A                  8848  		DC	0x3a	;; SPECIAL 58
0000153d  000502              8849  		DC	0x0,0x5,0x2	;; DW_LNE_set_address
00001540  00000000          + 8850  		DD	.DWLopt692	;;     operand
00001544  33                  8851  		DC	0x33	;; SPECIAL 51
00001545  000502              8852  		DC	0x0,0x5,0x2	;; DW_LNE_set_address
00001548  00000000          + 8853  		DD	.DWLopt693	;;     operand
0000154c  3A                  8854  		DC	0x3a	;; SPECIAL 58
0000154d  000502              8855  		DC	0x0,0x5,0x2	;; DW_LNE_set_address
00001550  00000000          + 8856  		DD	.DWLopt694	;;     operand
00001554  46                  8857  		DC	0x46	;; SPECIAL 70
00001555  000502              8858  		DC	0x0,0x5,0x2	;; DW_LNE_set_address
00001558  00000000          + 8859  		DD	.DWLopt695	;;     operand
0000155c  3A                  8860  		DC	0x3a	;; SPECIAL 58
0000155d  06                  8861  		DC	0x6	;; DW_LNS_negate_stmt
0000155e  000502              8862  		DC	0x0,0x5,0x2	;; DW_LNE_set_address
00001561  00000000          + 8863  		DD	.DWLopt696	;;     operand
00001565  03                  8864  		DC	0x3	;; DW_LNS_advance_line
00001566  C775                8865  		DC	0xc7,0x75	;; -1337
00001568  01                  8866  		DC	0x1	;; DW_LNS_copy
00001569  06                  8867  		DC	0x6	;; DW_LNS_negate_stmt
0000156a  000502              8868  		DC	0x0,0x5,0x2	;; DW_LNE_set_address
0000156d  00000000          + 8869  		DD	.DWLopt697	;;     operand
00001571  03                  8870  		DC	0x3	;; DW_LNS_advance_line
00001572  BE0A                8871  		DC	0xbe,0xa	;; 1342
00001574  01                  8872  		DC	0x1	;; DW_LNS_copy
00001575  000502              8873  		DC	0x0,0x5,0x2	;; DW_LNE_set_address
00001578  00000000          + 8874  		DD	.DWLopt698	;;     operand
0000157c  3B                  8875  		DC	0x3b	;; SPECIAL 59
0000157d  000502              8876  		DC	0x0,0x5,0x2	;; DW_LNE_set_address
00001580  00000000          + 8877  		DD	.DWLopt699	;;     operand
00001584  3C                  8878  		DC	0x3c	;; SPECIAL 60
00001585  000502              8879  		DC	0x0,0x5,0x2	;; DW_LNE_set_address
00001588  00000000          + 8880  		DD	.DWLopt700	;;     operand
0000158c  3C                  8881  		DC	0x3c	;; SPECIAL 60
0000158d  000502              8882  		DC	0x0,0x5,0x2	;; DW_LNE_set_address
00001590  00000000          + 8883  		DD	.DWLopt701	;;     operand
00001594  3C                  8884  		DC	0x3c	;; SPECIAL 60
00001595  000502              8885  		DC	0x0,0x5,0x2	;; DW_LNE_set_address
00001598  00000000          + 8886  		DD	.DWLopt702	;;     operand
0000159c  3B                  8887  		DC	0x3b	;; SPECIAL 59
0000159d  000502              8888  		DC	0x0,0x5,0x2	;; DW_LNE_set_address
000015a0  00000000          + 8889  		DD	.DWLopt703	;;     operand
000015a4  3F                  8890  		DC	0x3f	;; SPECIAL 63
000015a5  000502              8891  		DC	0x0,0x5,0x2	;; DW_LNE_set_address
000015a8  00000000          + 8892  		DD	.DWLopt704	;;     operand
000015ac  3B                  8893  		DC	0x3b	;; SPECIAL 59
000015ad  06                  8894  		DC	0x6	;; DW_LNS_negate_stmt
000015ae  000502              8895  		DC	0x0,0x5,0x2	;; DW_LNE_set_address
000015b1  00000000          + 8896  		DD	.DWLopt705	;;     operand
000015b5  39                  8897  		DC	0x39	;; SPECIAL 57
000015b6  000502              8898  		DC	0x0,0x5,0x2	;; DW_LNE_set_address
000015b9  00000000          + 8899  		DD	.DWLopt706	;;     operand
000015bd  3B                  8900  		DC	0x3b	;; SPECIAL 59
000015be  06                  8901  		DC	0x6	;; DW_LNS_negate_stmt
000015bf  000502              8902  		DC	0x0,0x5,0x2	;; DW_LNE_set_address
000015c2  00000000          + 8903  		DD	.DWLopt707	;;     operand
000015c6  3D                  8904  		DC	0x3d	;; SPECIAL 61
000015c7  000502              8905  		DC	0x0,0x5,0x2	;; DW_LNE_set_address
000015ca  00000000          + 8906  		DD	.DWLopt708	;;     operand
000015ce  3E                  8907  		DC	0x3e	;; SPECIAL 62
000015cf  000502              8908  		DC	0x0,0x5,0x2	;; DW_LNE_set_address
000015d2  00000000          + 8909  		DD	.DWLopt709	;;     operand
000015d6  3C                  8910  		DC	0x3c	;; SPECIAL 60
000015d7  000502              8911  		DC	0x0,0x5,0x2	;; DW_LNE_set_address
000015da  00000000          + 8912  		DD	.DWLopt710	;;     operand
000015de  44                  8913  		DC	0x44	;; SPECIAL 68
000015df  06                  8914  		DC	0x6	;; DW_LNS_negate_stmt
000015e0  000502              8915  		DC	0x0,0x5,0x2	;; DW_LNE_set_address
000015e3  00000000          + 8916  		DD	.DWLopt711	;;     operand
000015e7  30                  8917  		DC	0x30	;; SPECIAL 48
000015e8  000502              8918  		DC	0x0,0x5,0x2	;; DW_LNE_set_address
000015eb  00000000          + 8919  		DD	.DWLopt712	;;     operand
000015ef  44                  8920  		DC	0x44	;; SPECIAL 68
000015f0  000502              8921  		DC	0x0,0x5,0x2	;; DW_LNE_set_address
000015f3  00000000          + 8922  		DD	.DWLopt713	;;     operand
000015f7  30                  8923  		DC	0x30	;; SPECIAL 48
000015f8  06                  8924  		DC	0x6	;; DW_LNS_negate_stmt
000015f9  000502              8925  		DC	0x0,0x5,0x2	;; DW_LNE_set_address
000015fc  00000000          + 8926  		DD	.DWLopt714	;;     operand
00001600  3D                  8927  		DC	0x3d	;; SPECIAL 61
00001601  000502              8928  		DC	0x0,0x5,0x2	;; DW_LNE_set_address
00001604  00000000          + 8929  		DD	.DWLopt715	;;     operand
00001608  3B                  8930  		DC	0x3b	;; SPECIAL 59
00001609  000502              8931  		DC	0x0,0x5,0x2	;; DW_LNE_set_address
0000160c  00000000          + 8932  		DD	.DWLopt716	;;     operand
00001610  3B                  8933  		DC	0x3b	;; SPECIAL 59
00001611  000502              8934  		DC	0x0,0x5,0x2	;; DW_LNE_set_address
00001614  00000000          + 8935  		DD	.DWLopt717	;;     operand
00001618  3B                  8936  		DC	0x3b	;; SPECIAL 59
00001619  000502              8937  		DC	0x0,0x5,0x2	;; DW_LNE_set_address
0000161c  00000000          + 8938  		DD	.DWLopt718	;;     operand
00001620  41                  8939  		DC	0x41	;; SPECIAL 65
00001621  000502              8940  		DC	0x0,0x5,0x2	;; DW_LNE_set_address
00001624  00000000          + 8941  		DD	.DWLopt719	;;     operand
00001628  3C                  8942  		DC	0x3c	;; SPECIAL 60
00001629  000502              8943  		DC	0x0,0x5,0x2	;; DW_LNE_set_address
0000162c  00000000          + 8944  		DD	.DWLopt720	;;     operand
00001630  45                  8945  		DC	0x45	;; SPECIAL 69
00001631  000502              8946  		DC	0x0,0x5,0x2	;; DW_LNE_set_address
00001634  00000000          + 8947  		DD	.DWLopt721	;;     operand
00001638  3D                  8948  		DC	0x3d	;; SPECIAL 61
00001639  000502              8949  		DC	0x0,0x5,0x2	;; DW_LNE_set_address
0000163c  00000000          + 8950  		DD	.DWLopt722	;;     operand
00001640  3C                  8951  		DC	0x3c	;; SPECIAL 60
00001641  06                  8952  		DC	0x6	;; DW_LNS_negate_stmt
00001642  000502              8953  		DC	0x0,0x5,0x2	;; DW_LNE_set_address
00001645  00000000          + 8954  		DD	.DWLopt723	;;     operand
00001649  38                  8955  		DC	0x38	;; SPECIAL 56
0000164a  000502              8956  		DC	0x0,0x5,0x2	;; DW_LNE_set_address
0000164d  00000000          + 8957  		DD	.DWLopt724	;;     operand
00001651  3C                  8958  		DC	0x3c	;; SPECIAL 60
00001652  06                  8959  		DC	0x6	;; DW_LNS_negate_stmt
00001653  000502              8960  		DC	0x0,0x5,0x2	;; DW_LNE_set_address
00001656  00000000          + 8961  		DD	.DWLopt725	;;     operand
0000165a  3C                  8962  		DC	0x3c	;; SPECIAL 60
0000165b  000502              8963  		DC	0x0,0x5,0x2	;; DW_LNE_set_address
0000165e  00000000          + 8964  		DD	.DWLopt726	;;     operand
00001662  3D                  8965  		DC	0x3d	;; SPECIAL 61
00001663  000502              8966  		DC	0x0,0x5,0x2	;; DW_LNE_set_address
00001666  00000000          + 8967  		DD	.DWLopt727	;;     operand
0000166a  3C                  8968  		DC	0x3c	;; SPECIAL 60
0000166b  000502              8969  		DC	0x0,0x5,0x2	;; DW_LNE_set_address
0000166e  00000000          + 8970  		DD	.DWLopt728	;;     operand
00001672  3C                  8971  		DC	0x3c	;; SPECIAL 60
00001673  000502              8972  		DC	0x0,0x5,0x2	;; DW_LNE_set_address
00001676  00000000          + 8973  		DD	.DWLopt729	;;     operand
0000167a  3E                  8974  		DC	0x3e	;; SPECIAL 62
0000167b  06                  8975  		DC	0x6	;; DW_LNS_negate_stmt
0000167c  000502              8976  		DC	0x0,0x5,0x2	;; DW_LNE_set_address
0000167f  00000000          + 8977  		DD	.DWLopt730	;;     operand
00001683  3A                  8978  		DC	0x3a	;; SPECIAL 58
00001684  000502              8979  		DC	0x0,0x5,0x2	;; DW_LNE_set_address
00001687  00000000          + 8980  		DD	.DWLopt731	;;     operand
0000168b  36                  8981  		DC	0x36	;; SPECIAL 54
0000168c  06                  8982  		DC	0x6	;; DW_LNS_negate_stmt
0000168d  000502              8983  		DC	0x0,0x5,0x2	;; DW_LNE_set_address
00001690  00000000          + 8984  		DD	.DWLopt732	;;     operand
00001694  41                  8985  		DC	0x41	;; SPECIAL 65
00001695  000502              8986  		DC	0x0,0x5,0x2	;; DW_LNE_set_address
00001698  00000000          + 8987  		DD	.DWLopt733	;;     operand
0000169c  44                  8988  		DC	0x44	;; SPECIAL 68
0000169d  000502              8989  		DC	0x0,0x5,0x2	;; DW_LNE_set_address
000016a0  00000000          + 8990  		DD	.DWLopt734	;;     operand
000016a4  3B                  8991  		DC	0x3b	;; SPECIAL 59
000016a5  06                  8992  		DC	0x6	;; DW_LNS_negate_stmt
000016a6  000502              8993  		DC	0x0,0x5,0x2	;; DW_LNE_set_address
000016a9  00000000          + 8994  		DD	.DWLopt735	;;     operand
000016ad  39                  8995  		DC	0x39	;; SPECIAL 57
000016ae  000502              8996  		DC	0x0,0x5,0x2	;; DW_LNE_set_address
000016b1  00000000          + 8997  		DD	.DWLopt736	;;     operand
000016b5  3B                  8998  		DC	0x3b	;; SPECIAL 59
000016b6  06                  8999  		DC	0x6	;; DW_LNS_negate_stmt
000016b7  000502              9000  		DC	0x0,0x5,0x2	;; DW_LNE_set_address
000016ba  00000000          + 9001  		DD	.DWLopt737	;;     operand
000016be  3D                  9002  		DC	0x3d	;; SPECIAL 61
000016bf  000502              9003  		DC	0x0,0x5,0x2	;; DW_LNE_set_address
000016c2  00000000          + 9004  		DD	.DWLopt738	;;     operand
000016c6  30                  9005  		DC	0x30	;; SPECIAL 48
000016c7  000502              9006  		DC	0x0,0x5,0x2	;; DW_LNE_set_address
000016ca  00000000          + 9007  		DD	.DWLopt739	;;     operand
000016ce  46                  9008  		DC	0x46	;; SPECIAL 70
000016cf  06                  9009  		DC	0x6	;; DW_LNS_negate_stmt
000016d0  000502              9010  		DC	0x0,0x5,0x2	;; DW_LNE_set_address
000016d3  00000000          + 9011  		DD	.DWLopt740	;;     operand
000016d7  2E                  9012  		DC	0x2e	;; SPECIAL 46
000016d8  000502              9013  		DC	0x0,0x5,0x2	;; DW_LNE_set_address
000016db  00000000          + 9014  		DD	.DWLopt741	;;     operand
000016df  46                  9015  		DC	0x46	;; SPECIAL 70
000016e0  06                  9016  		DC	0x6	;; DW_LNS_negate_stmt
000016e1  000502              9017  		DC	0x0,0x5,0x2	;; DW_LNE_set_address
000016e4  00000000          + 9018  		DD	.DWLopt742	;;     operand
000016e8  3C                  9019  		DC	0x3c	;; SPECIAL 60
000016e9  06                  9020  		DC	0x6	;; DW_LNS_negate_stmt
000016ea  000502              9021  		DC	0x0,0x5,0x2	;; DW_LNE_set_address
000016ed  00000000          + 9022  		DD	.DWLopt743	;;     operand
000016f1  03                  9023  		DC	0x3	;; DW_LNS_advance_line
000016f2  EA74                9024  		DC	0xea,0x74	;; -1430
000016f4  01                  9025  		DC	0x1	;; DW_LNS_copy
000016f5  06                  9026  		DC	0x6	;; DW_LNS_negate_stmt
000016f6  000502              9027  		DC	0x0,0x5,0x2	;; DW_LNE_set_address
000016f9  00000000          + 9028  		DD	.DWLopt744	;;     operand
000016fd  03                  9029  		DC	0x3	;; DW_LNS_advance_line
000016fe  9B0B                9030  		DC	0x9b,0xb	;; 1435
00001700  01                  9031  		DC	0x1	;; DW_LNS_copy
00001701  000502              9032  		DC	0x0,0x5,0x2	;; DW_LNE_set_address
00001704  00000000          + 9033  		DD	.DWLopt745	;;     operand
00001708  3C                  9034  		DC	0x3c	;; SPECIAL 60
00001709  000502              9035  		DC	0x0,0x5,0x2	;; DW_LNE_set_address
0000170c  00000000          + 9036  		DD	.DWLopt746	;;     operand
00001710  3C                  9037  		DC	0x3c	;; SPECIAL 60
00001711  000502              9038  		DC	0x0,0x5,0x2	;; DW_LNE_set_address
00001714  00000000          + 9039  		DD	.DWLopt747	;;     operand
00001718  3B                  9040  		DC	0x3b	;; SPECIAL 59
00001719  000502              9041  		DC	0x0,0x5,0x2	;; DW_LNE_set_address
0000171c  00000000          + 9042  		DD	.DWLopt748	;;     operand
00001720  3B                  9043  		DC	0x3b	;; SPECIAL 59
00001721  000502              9044  		DC	0x0,0x5,0x2	;; DW_LNE_set_address
00001724  00000000          + 9045  		DD	.DWLopt749	;;     operand
00001728  3B                  9046  		DC	0x3b	;; SPECIAL 59
00001729  000502              9047  		DC	0x0,0x5,0x2	;; DW_LNE_set_address
0000172c  00000000          + 9048  		DD	.DWLopt750	;;     operand
00001730  3D                  9049  		DC	0x3d	;; SPECIAL 61
00001731  000502              9050  		DC	0x0,0x5,0x2	;; DW_LNE_set_address
00001734  00000000          + 9051  		DD	.DWLopt751	;;     operand
00001738  42                  9052  		DC	0x42	;; SPECIAL 66
00001739  000502              9053  		DC	0x0,0x5,0x2	;; DW_LNE_set_address
0000173c  00000000          + 9054  		DD	.DWLopt752	;;     operand
00001740  40                  9055  		DC	0x40	;; SPECIAL 64
00001741  000502              9056  		DC	0x0,0x5,0x2	;; DW_LNE_set_address
00001744  00000000          + 9057  		DD	.DWLopt753	;;     operand
00001748  3C                  9058  		DC	0x3c	;; SPECIAL 60
00001749  000502              9059  		DC	0x0,0x5,0x2	;; DW_LNE_set_address
0000174c  00000000          + 9060  		DD	.DWLopt754	;;     operand
00001750  39                  9061  		DC	0x39	;; SPECIAL 57
00001751  06                  9062  		DC	0x6	;; DW_LNS_negate_stmt
00001752  000502              9063  		DC	0x0,0x5,0x2	;; DW_LNE_set_address
00001755  00000000          + 9064  		DD	.DWLopt755	;;     operand
00001759  3B                  9065  		DC	0x3b	;; SPECIAL 59
0000175a  06                  9066  		DC	0x6	;; DW_LNS_negate_stmt
0000175b  000502              9067  		DC	0x0,0x5,0x2	;; DW_LNE_set_address
0000175e  00000000          + 9068  		DD	.DWLopt756	;;     operand
00001762  3C                  9069  		DC	0x3c	;; SPECIAL 60
00001763  000502              9070  		DC	0x0,0x5,0x2	;; DW_LNE_set_address
00001766  00000000          + 9071  		DD	.DWLopt757	;;     operand
0000176a  3C                  9072  		DC	0x3c	;; SPECIAL 60
0000176b  000502              9073  		DC	0x0,0x5,0x2	;; DW_LNE_set_address
0000176e  00000000          + 9074  		DD	.DWLopt758	;;     operand
00001772  03                  9075  		DC	0x3	;; DW_LNS_advance_line
00001773  F87C                9076  		DC	0xf8,0x7c	;; -392
00001775  01                  9077  		DC	0x1	;; DW_LNS_copy
00001776  000502              9078  		DC	0x0,0x5,0x2	;; DW_LNE_set_address
00001779  00000000          + 9079  		DD	.DWLopt759	;;     operand
0000177d  03                  9080  		DC	0x3	;; DW_LNS_advance_line
0000177e  8C03                9081  		DC	0x8c,0x3	;; 396
00001780  01                  9082  		DC	0x1	;; DW_LNS_copy
00001781  000502              9083  		DC	0x0,0x5,0x2	;; DW_LNE_set_address
00001784  00000000          + 9084  		DD	.DWLopt760	;;     operand
00001788  03                  9085  		DC	0x3	;; DW_LNS_advance_line
00001789  F87C                9086  		DC	0xf8,0x7c	;; -392
0000178b  01                  9087  		DC	0x1	;; DW_LNS_copy
0000178c  06                  9088  		DC	0x6	;; DW_LNS_negate_stmt
0000178d  000502              9089  		DC	0x0,0x5,0x2	;; DW_LNE_set_address
00001790  00000000          + 9090  		DD	.DWLopt761	;;     operand
00001794  03                  9091  		DC	0x3	;; DW_LNS_advance_line
00001795  8803                9092  		DC	0x88,0x3	;; 392
00001797  01                  9093  		DC	0x1	;; DW_LNS_copy
00001798  000502              9094  		DC	0x0,0x5,0x2	;; DW_LNE_set_address
0000179b  00000000          + 9095  		DD	.DWLopt762	;;     operand
0000179f  36                  9096  		DC	0x36	;; SPECIAL 54
000017a0  000502              9097  		DC	0x0,0x5,0x2	;; DW_LNE_set_address
000017a3  00000000          + 9098  		DD	.DWLopt763	;;     operand
000017a7  03                  9099  		DC	0x3	;; DW_LNS_advance_line
000017a8  FC7C                9100  		DC	0xfc,0x7c	;; -388
000017aa  01                  9101  		DC	0x1	;; DW_LNS_copy
000017ab  000502              9102  		DC	0x0,0x5,0x2	;; DW_LNE_set_address
000017ae  00000000          + 9103  		DD	.DWLopt764	;;     operand
000017b2  36                  9104  		DC	0x36	;; SPECIAL 54
000017b3  000502              9105  		DC	0x0,0x5,0x2	;; DW_LNE_set_address
000017b6  00000000          + 9106  		DD	.DWLopt765	;;     operand
000017ba  03                  9107  		DC	0x3	;; DW_LNS_advance_line
000017bb  BD03                9108  		DC	0xbd,0x3	;; 445
000017bd  01                  9109  		DC	0x1	;; DW_LNS_copy
000017be  06                  9110  		DC	0x6	;; DW_LNS_negate_stmt
000017bf  000502              9111  		DC	0x0,0x5,0x2	;; DW_LNE_set_address
000017c2  00000000          + 9112  		DD	.DWLopt766	;;     operand
000017c6  0E                  9113  		DC	0xe	;; SPECIAL 14
000017c7  06                  9114  		DC	0x6	;; DW_LNS_negate_stmt
000017c8  000502              9115  		DC	0x0,0x5,0x2	;; DW_LNE_set_address
000017cb  00000000          + 9116  		DD	.DWLopt767	;;     operand
000017cf  66                  9117  		DC	0x66	;; SPECIAL 102
000017d0  06                  9118  		DC	0x6	;; DW_LNS_negate_stmt
000017d1  000502              9119  		DC	0x0,0x5,0x2	;; DW_LNE_set_address
000017d4  00000000          + 9120  		DD	.DWLopt768	;;     operand
000017d8  10                  9121  		DC	0x10	;; SPECIAL 16
000017d9  000502              9122  		DC	0x0,0x5,0x2	;; DW_LNE_set_address
000017dc  00000000          + 9123  		DD	.DWLopt769	;;     operand
000017e0  43                  9124  		DC	0x43	;; SPECIAL 67
000017e1  000502              9125  		DC	0x0,0x5,0x2	;; DW_LNE_set_address
000017e4  00000000          + 9126  		DD	.DWLopt770	;;     operand
000017e8  3E                  9127  		DC	0x3e	;; SPECIAL 62
000017e9  000502              9128  		DC	0x0,0x5,0x2	;; DW_LNE_set_address
000017ec  00000000          + 9129  		DD	.DWLopt771	;;     operand
000017f0  31                  9130  		DC	0x31	;; SPECIAL 49
000017f1  000502              9131  		DC	0x0,0x5,0x2	;; DW_LNE_set_address
000017f4  00000000          + 9132  		DD	.DWLopt772	;;     operand
000017f8  03                  9133  		DC	0x3	;; DW_LNS_advance_line
000017f9  817D                9134  		DC	0x81,0x7d	;; -383
000017fb  01                  9135  		DC	0x1	;; DW_LNS_copy
000017fc  000502              9136  		DC	0x0,0x5,0x2	;; DW_LNE_set_address
000017ff  00000000          + 9137  		DD	.DWLopt773	;;     operand
00001803  31                  9138  		DC	0x31	;; SPECIAL 49
00001804  000502              9139  		DC	0x0,0x5,0x2	;; DW_LNE_set_address
00001807  00000000          + 9140  		DD	.DWLopt774	;;     operand
0000180b  03                  9141  		DC	0x3	;; DW_LNS_advance_line
0000180c  9303                9142  		DC	0x93,0x3	;; 403
0000180e  01                  9143  		DC	0x1	;; DW_LNS_copy
0000180f  000502              9144  		DC	0x0,0x5,0x2	;; DW_LNE_set_address
00001812  00000000          + 9145  		DD	.DWLopt775	;;     operand
00001816  31                  9146  		DC	0x31	;; SPECIAL 49
00001817  000502              9147  		DC	0x0,0x5,0x2	;; DW_LNE_set_address
0000181a  00000000          + 9148  		DD	.DWLopt776	;;     operand
0000181e  03                  9149  		DC	0x3	;; DW_LNS_advance_line
0000181f  817D                9150  		DC	0x81,0x7d	;; -383
00001821  01                  9151  		DC	0x1	;; DW_LNS_copy
00001822  000502              9152  		DC	0x0,0x5,0x2	;; DW_LNE_set_address
00001825  00000000          + 9153  		DD	.DWLopt777	;;     operand
00001829  31                  9154  		DC	0x31	;; SPECIAL 49
0000182a  000502              9155  		DC	0x0,0x5,0x2	;; DW_LNE_set_address
0000182d  00000000          + 9156  		DD	.DWLopt778	;;     operand
00001831  03                  9157  		DC	0x3	;; DW_LNS_advance_line
00001832  9203                9158  		DC	0x92,0x3	;; 402
00001834  01                  9159  		DC	0x1	;; DW_LNS_copy
00001835  000502              9160  		DC	0x0,0x5,0x2	;; DW_LNE_set_address
00001838  00000000          + 9161  		DD	.DWLopt779	;;     operand
0000183c  31                  9162  		DC	0x31	;; SPECIAL 49
0000183d  000502              9163  		DC	0x0,0x5,0x2	;; DW_LNE_set_address
00001840  00000000          + 9164  		DD	.DWLopt780	;;     operand
00001844  03                  9165  		DC	0x3	;; DW_LNS_advance_line
00001845  F17D                9166  		DC	0xf1,0x7d	;; -271
00001847  01                  9167  		DC	0x1	;; DW_LNS_copy
00001848  000502              9168  		DC	0x0,0x5,0x2	;; DW_LNE_set_address
0000184b  00000000          + 9169  		DD	.DWLopt781	;;     operand
0000184f  03                  9170  		DC	0x3	;; DW_LNS_advance_line
00001850  907F                9171  		DC	0x90,0x7f	;; -112
00001852  01                  9172  		DC	0x1	;; DW_LNS_copy
00001853  000502              9173  		DC	0x0,0x5,0x2	;; DW_LNE_set_address
00001856  00000000          + 9174  		DD	.DWLopt782	;;     operand
0000185a  31                  9175  		DC	0x31	;; SPECIAL 49
0000185b  06                  9176  		DC	0x6	;; DW_LNS_negate_stmt
0000185c  000502              9177  		DC	0x0,0x5,0x2	;; DW_LNE_set_address
0000185f  00000000          + 9178  		DD	.DWLopt783	;;     operand
00001863  03                  9179  		DC	0x3	;; DW_LNS_advance_line
00001864  BD77                9180  		DC	0xbd,0x77	;; -1091
00001866  01                  9181  		DC	0x1	;; DW_LNS_copy
00001867  06                  9182  		DC	0x6	;; DW_LNS_negate_stmt
00001868  000502              9183  		DC	0x0,0x5,0x2	;; DW_LNE_set_address
0000186b  00000000          + 9184  		DD	.DWLopt784	;;     operand
0000186f  03                  9185  		DC	0x3	;; DW_LNS_advance_line
00001870  E00B                9186  		DC	0xe0,0xb	;; 1504
00001872  01                  9187  		DC	0x1	;; DW_LNS_copy
00001873  000502              9188  		DC	0x0,0x5,0x2	;; DW_LNE_set_address
00001876  00000000          + 9189  		DD	.DWLopt785	;;     operand
0000187a  3C                  9190  		DC	0x3c	;; SPECIAL 60
0000187b  000502              9191  		DC	0x0,0x5,0x2	;; DW_LNE_set_address
0000187e  00000000          + 9192  		DD	.DWLopt786	;;     operand
00001882  3B                  9193  		DC	0x3b	;; SPECIAL 59
00001883  000502              9194  		DC	0x0,0x5,0x2	;; DW_LNE_set_address
00001886  00000000          + 9195  		DD	.DWLopt787	;;     operand
0000188a  3D                  9196  		DC	0x3d	;; SPECIAL 61
0000188b  000502              9197  		DC	0x0,0x5,0x2	;; DW_LNE_set_address
0000188e  00000000          + 9198  		DD	.DWLopt788	;;     operand
00001892  39                  9199  		DC	0x39	;; SPECIAL 57
00001893  000502              9200  		DC	0x0,0x5,0x2	;; DW_LNE_set_address
00001896  00000000          + 9201  		DD	.DWLopt789	;;     operand
0000189a  3D                  9202  		DC	0x3d	;; SPECIAL 61
0000189b  06                  9203  		DC	0x6	;; DW_LNS_negate_stmt
0000189c  000502              9204  		DC	0x0,0x5,0x2	;; DW_LNE_set_address
0000189f  00000000          + 9205  		DD	.DWLopt790	;;     operand
000018a3  3A                  9206  		DC	0x3a	;; SPECIAL 58
000018a4  000502              9207  		DC	0x0,0x5,0x2	;; DW_LNE_set_address
000018a7  00000000          + 9208  		DD	.DWLopt791	;;     operand
000018ab  03                  9209  		DC	0x3	;; DW_LNS_advance_line
000018ac  8D7E                9210  		DC	0x8d,0x7e	;; -243
000018ae  01                  9211  		DC	0x1	;; DW_LNS_copy
000018af  000502              9212  		DC	0x0,0x5,0x2	;; DW_LNE_set_address
000018b2  00000000          + 9213  		DD	.DWLopt792	;;     operand
000018b6  03                  9214  		DC	0x3	;; DW_LNS_advance_line
000018b7  F77E                9215  		DC	0xf7,0x7e	;; -137
000018b9  01                  9216  		DC	0x1	;; DW_LNS_copy
000018ba  000502              9217  		DC	0x0,0x5,0x2	;; DW_LNE_set_address
000018bd  00000000          + 9218  		DD	.DWLopt793	;;     operand
000018c1  03                  9219  		DC	0x3	;; DW_LNS_advance_line
000018c2  8203                9220  		DC	0x82,0x3	;; 386
000018c4  01                  9221  		DC	0x1	;; DW_LNS_copy
000018c5  000502              9222  		DC	0x0,0x5,0x2	;; DW_LNE_set_address
000018c8  00000000          + 9223  		DD	.LDW32	;;     operand
000018cc  000101              9224  		DC	0x0,0x1,0x1	;; DW_LNE_end_sequence
000018cf  000502              9225  		DC	0x0,0x5,0x2	;; DW_LNE_set_address
000018d2  00000000          + 9226  		DD	.DWLopt802	;;     operand
000018d6  03                  9227  		DC	0x3	;; DW_LNS_advance_line
000018d7  FA0B                9228  		DC	0xfa,0xb	;; 1530
000018d9  01                  9229  		DC	0x1	;; DW_LNS_copy
000018da  000502              9230  		DC	0x0,0x5,0x2	;; DW_LNE_set_address
000018dd  00000000          + 9231  		DD	.DWLopt803	;;     operand
000018e1  3B                  9232  		DC	0x3b	;; SPECIAL 59
000018e2  000502              9233  		DC	0x0,0x5,0x2	;; DW_LNE_set_address
000018e5  00000000          + 9234  		DD	.DWLopt804	;;     operand
000018e9  3D                  9235  		DC	0x3d	;; SPECIAL 61
000018ea  000502              9236  		DC	0x0,0x5,0x2	;; DW_LNE_set_address
000018ed  00000000          + 9237  		DD	.DWLopt805	;;     operand
000018f1  3C                  9238  		DC	0x3c	;; SPECIAL 60
000018f2  000502              9239  		DC	0x0,0x5,0x2	;; DW_LNE_set_address
000018f5  00000000          + 9240  		DD	.DWLopt806	;;     operand
000018f9  3B                  9241  		DC	0x3b	;; SPECIAL 59
000018fa  000502              9242  		DC	0x0,0x5,0x2	;; DW_LNE_set_address
000018fd  00000000          + 9243  		DD	.DWLopt807	;;     operand
00001901  3C                  9244  		DC	0x3c	;; SPECIAL 60
00001902  06                  9245  		DC	0x6	;; DW_LNS_negate_stmt
00001903  000502              9246  		DC	0x0,0x5,0x2	;; DW_LNE_set_address
00001906  00000000          + 9247  		DD	.DWLopt808	;;     operand
0000190a  38                  9248  		DC	0x38	;; SPECIAL 56
0000190b  06                  9249  		DC	0x6	;; DW_LNS_negate_stmt
0000190c  000502              9250  		DC	0x0,0x5,0x2	;; DW_LNE_set_address
0000190f  00000000          + 9251  		DD	.DWLopt809	;;     operand
00001913  3D                  9252  		DC	0x3d	;; SPECIAL 61
00001914  000502              9253  		DC	0x0,0x5,0x2	;; DW_LNE_set_address
00001917  00000000          + 9254  		DD	.DWLopt810	;;     operand
0000191b  3C                  9255  		DC	0x3c	;; SPECIAL 60
0000191c  06                  9256  		DC	0x6	;; DW_LNS_negate_stmt
0000191d  000502              9257  		DC	0x0,0x5,0x2	;; DW_LNE_set_address
00001920  00000000          + 9258  		DD	.DWLopt811	;;     operand
00001924  38                  9259  		DC	0x38	;; SPECIAL 56
00001925  06                  9260  		DC	0x6	;; DW_LNS_negate_stmt
00001926  000502              9261  		DC	0x0,0x5,0x2	;; DW_LNE_set_address
00001929  00000000          + 9262  		DD	.DWLopt812	;;     operand
0000192d  3D                  9263  		DC	0x3d	;; SPECIAL 61
0000192e  000502              9264  		DC	0x0,0x5,0x2	;; DW_LNE_set_address
00001931  00000000          + 9265  		DD	.DWLopt813	;;     operand
00001935  3C                  9266  		DC	0x3c	;; SPECIAL 60
00001936  000502              9267  		DC	0x0,0x5,0x2	;; DW_LNE_set_address
00001939  00000000          + 9268  		DD	.DWLopt814	;;     operand
0000193d  43                  9269  		DC	0x43	;; SPECIAL 67
0000193e  06                  9270  		DC	0x6	;; DW_LNS_negate_stmt
0000193f  000502              9271  		DC	0x0,0x5,0x2	;; DW_LNE_set_address
00001942  00000000          + 9272  		DD	.DWLopt815	;;     operand
00001946  2F                  9273  		DC	0x2f	;; SPECIAL 47
00001947  06                  9274  		DC	0x6	;; DW_LNS_negate_stmt
00001948  000502              9275  		DC	0x0,0x5,0x2	;; DW_LNE_set_address
0000194b  00000000          + 9276  		DD	.DWLopt816	;;     operand
0000194f  43                  9277  		DC	0x43	;; SPECIAL 67
00001950  06                  9278  		DC	0x6	;; DW_LNS_negate_stmt
00001951  000502              9279  		DC	0x0,0x5,0x2	;; DW_LNE_set_address
00001954  00000000          + 9280  		DD	.DWLopt817	;;     operand
00001958  3C                  9281  		DC	0x3c	;; SPECIAL 60
00001959  06                  9282  		DC	0x6	;; DW_LNS_negate_stmt
0000195a  000502              9283  		DC	0x0,0x5,0x2	;; DW_LNE_set_address
0000195d  00000000          + 9284  		DD	.DWLopt818	;;     operand
00001961  3C                  9285  		DC	0x3c	;; SPECIAL 60
00001962  000502              9286  		DC	0x0,0x5,0x2	;; DW_LNE_set_address
00001965  00000000          + 9287  		DD	.DWLopt819	;;     operand
00001969  3D                  9288  		DC	0x3d	;; SPECIAL 61
0000196a  000502              9289  		DC	0x0,0x5,0x2	;; DW_LNE_set_address
0000196d  00000000          + 9290  		DD	.DWLopt820	;;     operand
00001971  3D                  9291  		DC	0x3d	;; SPECIAL 61
00001972  000502              9292  		DC	0x0,0x5,0x2	;; DW_LNE_set_address
00001975  00000000          + 9293  		DD	.DWLopt821	;;     operand
00001979  3E                  9294  		DC	0x3e	;; SPECIAL 62
0000197a  000502              9295  		DC	0x0,0x5,0x2	;; DW_LNE_set_address
0000197d  00000000          + 9296  		DD	.DWLopt822	;;     operand
00001981  3C                  9297  		DC	0x3c	;; SPECIAL 60
00001982  000502              9298  		DC	0x0,0x5,0x2	;; DW_LNE_set_address
00001985  00000000          + 9299  		DD	.DWLopt823	;;     operand
00001989  3C                  9300  		DC	0x3c	;; SPECIAL 60
0000198a  000502              9301  		DC	0x0,0x5,0x2	;; DW_LNE_set_address
0000198d  00000000          + 9302  		DD	.DWLopt824	;;     operand
00001991  3C                  9303  		DC	0x3c	;; SPECIAL 60
00001992  000502              9304  		DC	0x0,0x5,0x2	;; DW_LNE_set_address
00001995  00000000          + 9305  		DD	.DWLopt825	;;     operand
00001999  3B                  9306  		DC	0x3b	;; SPECIAL 59
0000199a  000502              9307  		DC	0x0,0x5,0x2	;; DW_LNE_set_address
0000199d  00000000          + 9308  		DD	.DWLopt826	;;     operand
000019a1  3B                  9309  		DC	0x3b	;; SPECIAL 59
000019a2  000502              9310  		DC	0x0,0x5,0x2	;; DW_LNE_set_address
000019a5  00000000          + 9311  		DD	.DWLopt827	;;     operand
000019a9  3C                  9312  		DC	0x3c	;; SPECIAL 60
000019aa  000502              9313  		DC	0x0,0x5,0x2	;; DW_LNE_set_address
000019ad  00000000          + 9314  		DD	.DWLopt828	;;     operand
000019b1  55                  9315  		DC	0x55	;; SPECIAL 85
000019b2  06                  9316  		DC	0x6	;; DW_LNS_negate_stmt
000019b3  000502              9317  		DC	0x0,0x5,0x2	;; DW_LNE_set_address
000019b6  00000000          + 9318  		DD	.DWLopt829	;;     operand
000019ba  1F                  9319  		DC	0x1f	;; SPECIAL 31
000019bb  000502              9320  		DC	0x0,0x5,0x2	;; DW_LNE_set_address
000019be  00000000          + 9321  		DD	.DWLopt830	;;     operand
000019c2  55                  9322  		DC	0x55	;; SPECIAL 85
000019c3  06                  9323  		DC	0x6	;; DW_LNS_negate_stmt
000019c4  000502              9324  		DC	0x0,0x5,0x2	;; DW_LNE_set_address
000019c7  00000000          + 9325  		DD	.DWLopt831	;;     operand
000019cb  21                  9326  		DC	0x21	;; SPECIAL 33
000019cc  000502              9327  		DC	0x0,0x5,0x2	;; DW_LNE_set_address
000019cf  00000000          + 9328  		DD	.DWLopt832	;;     operand
000019d3  3B                  9329  		DC	0x3b	;; SPECIAL 59
000019d4  000502              9330  		DC	0x0,0x5,0x2	;; DW_LNE_set_address
000019d7  00000000          + 9331  		DD	.DWLopt833	;;     operand
000019db  3D                  9332  		DC	0x3d	;; SPECIAL 61
000019dc  000502              9333  		DC	0x0,0x5,0x2	;; DW_LNE_set_address
000019df  00000000          + 9334  		DD	.DWLopt834	;;     operand
000019e3  39                  9335  		DC	0x39	;; SPECIAL 57
000019e4  06                  9336  		DC	0x6	;; DW_LNS_negate_stmt
000019e5  000502              9337  		DC	0x0,0x5,0x2	;; DW_LNE_set_address
000019e8  00000000          + 9338  		DD	.DWLopt835	;;     operand
000019ec  03                  9339  		DC	0x3	;; DW_LNS_advance_line
000019ed  D273                9340  		DC	0xd2,0x73	;; -1582
000019ef  01                  9341  		DC	0x1	;; DW_LNS_copy
000019f0  06                  9342  		DC	0x6	;; DW_LNS_negate_stmt
000019f1  000502              9343  		DC	0x0,0x5,0x2	;; DW_LNE_set_address
000019f4  00000000          + 9344  		DD	.DWLopt836	;;     operand
000019f8  03                  9345  		DC	0x3	;; DW_LNS_advance_line
000019f9  BA0C                9346  		DC	0xba,0xc	;; 1594
000019fb  01                  9347  		DC	0x1	;; DW_LNS_copy
000019fc  000502              9348  		DC	0x0,0x5,0x2	;; DW_LNE_set_address
000019ff  00000000          + 9349  		DD	.DWLopt837	;;     operand
00001a03  3B                  9350  		DC	0x3b	;; SPECIAL 59
00001a04  06                  9351  		DC	0x6	;; DW_LNS_negate_stmt
00001a05  000502              9352  		DC	0x0,0x5,0x2	;; DW_LNE_set_address
00001a08  00000000          + 9353  		DD	.DWLopt838	;;     operand
00001a0c  39                  9354  		DC	0x39	;; SPECIAL 57
00001a0d  000502              9355  		DC	0x0,0x5,0x2	;; DW_LNE_set_address
00001a10  00000000          + 9356  		DD	.DWLopt839	;;     operand
00001a14  3B                  9357  		DC	0x3b	;; SPECIAL 59
00001a15  06                  9358  		DC	0x6	;; DW_LNS_negate_stmt
00001a16  000502              9359  		DC	0x0,0x5,0x2	;; DW_LNE_set_address
00001a19  00000000          + 9360  		DD	.DWLopt840	;;     operand
00001a1d  3C                  9361  		DC	0x3c	;; SPECIAL 60
00001a1e  000502              9362  		DC	0x0,0x5,0x2	;; DW_LNE_set_address
00001a21  00000000          + 9363  		DD	.DWLopt841	;;     operand
00001a25  34                  9364  		DC	0x34	;; SPECIAL 52
00001a26  000502              9365  		DC	0x0,0x5,0x2	;; DW_LNE_set_address
00001a29  00000000          + 9366  		DD	.DWLopt842	;;     operand
00001a2d  42                  9367  		DC	0x42	;; SPECIAL 66
00001a2e  06                  9368  		DC	0x6	;; DW_LNS_negate_stmt
00001a2f  000502              9369  		DC	0x0,0x5,0x2	;; DW_LNE_set_address
00001a32  00000000          + 9370  		DD	.DWLopt843	;;     operand
00001a36  32                  9371  		DC	0x32	;; SPECIAL 50
00001a37  000502              9372  		DC	0x0,0x5,0x2	;; DW_LNE_set_address
00001a3a  00000000          + 9373  		DD	.DWLopt844	;;     operand
00001a3e  42                  9374  		DC	0x42	;; SPECIAL 66
00001a3f  06                  9375  		DC	0x6	;; DW_LNS_negate_stmt
00001a40  000502              9376  		DC	0x0,0x5,0x2	;; DW_LNE_set_address
00001a43  00000000          + 9377  		DD	.DWLopt845	;;     operand
00001a47  3C                  9378  		DC	0x3c	;; SPECIAL 60
00001a48  06                  9379  		DC	0x6	;; DW_LNS_negate_stmt
00001a49  000502              9380  		DC	0x0,0x5,0x2	;; DW_LNE_set_address
00001a4c  00000000          + 9381  		DD	.DWLopt846	;;     operand
00001a50  3D                  9382  		DC	0x3d	;; SPECIAL 61
00001a51  000502              9383  		DC	0x0,0x5,0x2	;; DW_LNE_set_address
00001a54  00000000          + 9384  		DD	.LDW33	;;     operand
00001a58  000101              9385  		DC	0x0,0x1,0x1	;; DW_LNE_end_sequence
00001a5b  000502              9386  		DC	0x0,0x5,0x2	;; DW_LNE_set_address
00001a5e  00000000          + 9387  		DD	.DWLopt847	;;     operand
00001a62  03                  9388  		DC	0x3	;; DW_LNS_advance_line
00001a63  C70C                9389  		DC	0xc7,0xc	;; 1607
00001a65  01                  9390  		DC	0x1	;; DW_LNS_copy
00001a66  000502              9391  		DC	0x0,0x5,0x2	;; DW_LNE_set_address
00001a69  00000000          + 9392  		DD	.DWLopt848	;;     operand
00001a6d  3C                  9393  		DC	0x3c	;; SPECIAL 60
00001a6e  000502              9394  		DC	0x0,0x5,0x2	;; DW_LNE_set_address
00001a71  00000000          + 9395  		DD	.DWLopt849	;;     operand
00001a75  3B                  9396  		DC	0x3b	;; SPECIAL 59
00001a76  000502              9397  		DC	0x0,0x5,0x2	;; DW_LNE_set_address
00001a79  00000000          + 9398  		DD	.DWLopt850	;;     operand
00001a7d  3D                  9399  		DC	0x3d	;; SPECIAL 61
00001a7e  000502              9400  		DC	0x0,0x5,0x2	;; DW_LNE_set_address
00001a81  00000000          + 9401  		DD	.DWLopt851	;;     operand
00001a85  3C                  9402  		DC	0x3c	;; SPECIAL 60
00001a86  000502              9403  		DC	0x0,0x5,0x2	;; DW_LNE_set_address
00001a89  00000000          + 9404  		DD	.DWLopt852	;;     operand
00001a8d  37                  9405  		DC	0x37	;; SPECIAL 55
00001a8e  000502              9406  		DC	0x0,0x5,0x2	;; DW_LNE_set_address
00001a91  00000000          + 9407  		DD	.DWLopt853	;;     operand
00001a95  40                  9408  		DC	0x40	;; SPECIAL 64
00001a96  06                  9409  		DC	0x6	;; DW_LNS_negate_stmt
00001a97  000502              9410  		DC	0x0,0x5,0x2	;; DW_LNE_set_address
00001a9a  00000000          + 9411  		DD	.LDW34	;;     operand
00001a9e  000101              9412  		DC	0x0,0x1,0x1	;; DW_LNE_end_sequence
00001aa1  000502              9413  		DC	0x0,0x5,0x2	;; DW_LNE_set_address
00001aa4  00000000          + 9414  		DD	.DWLopt854	;;     operand
00001aa8  03                  9415  		DC	0x3	;; DW_LNS_advance_line
00001aa9  D60C                9416  		DC	0xd6,0xc	;; 1622
00001aab  01                  9417  		DC	0x1	;; DW_LNS_copy
00001aac  000502              9418  		DC	0x0,0x5,0x2	;; DW_LNE_set_address
00001aaf  00000000          + 9419  		DD	.DWLopt855	;;     operand
00001ab3  3C                  9420  		DC	0x3c	;; SPECIAL 60
00001ab4  000502              9421  		DC	0x0,0x5,0x2	;; DW_LNE_set_address
00001ab7  00000000          + 9422  		DD	.DWLopt856	;;     operand
00001abb  3B                  9423  		DC	0x3b	;; SPECIAL 59
00001abc  000502              9424  		DC	0x0,0x5,0x2	;; DW_LNE_set_address
00001abf  00000000          + 9425  		DD	.DWLopt857	;;     operand
00001ac3  3D                  9426  		DC	0x3d	;; SPECIAL 61
00001ac4  000502              9427  		DC	0x0,0x5,0x2	;; DW_LNE_set_address
00001ac7  00000000          + 9428  		DD	.DWLopt858	;;     operand
00001acb  3C                  9429  		DC	0x3c	;; SPECIAL 60
00001acc  000502              9430  		DC	0x0,0x5,0x2	;; DW_LNE_set_address
00001acf  00000000          + 9431  		DD	.DWLopt859	;;     operand
00001ad3  37                  9432  		DC	0x37	;; SPECIAL 55
00001ad4  000502              9433  		DC	0x0,0x5,0x2	;; DW_LNE_set_address
00001ad7  00000000          + 9434  		DD	.DWLopt860	;;     operand
00001adb  40                  9435  		DC	0x40	;; SPECIAL 64
00001adc  06                  9436  		DC	0x6	;; DW_LNS_negate_stmt
00001add  000502              9437  		DC	0x0,0x5,0x2	;; DW_LNE_set_address
00001ae0  00000000          + 9438  		DD	.LDW35	;;     operand
00001ae4  000101              9439  		DC	0x0,0x1,0x1	;; DW_LNE_end_sequence
00001ae7  000502              9440  		DC	0x0,0x5,0x2	;; DW_LNE_set_address
00001aea  00000000          + 9441  		DD	.DWLopt861	;;     operand
00001aee  03                  9442  		DC	0x3	;; DW_LNS_advance_line
00001aef  E50C                9443  		DC	0xe5,0xc	;; 1637
00001af1  01                  9444  		DC	0x1	;; DW_LNS_copy
00001af2  000502              9445  		DC	0x0,0x5,0x2	;; DW_LNE_set_address
00001af5  00000000          + 9446  		DD	.DWLopt862	;;     operand
00001af9  54                  9447  		DC	0x54	;; SPECIAL 84
00001afa  000502              9448  		DC	0x0,0x5,0x2	;; DW_LNE_set_address
00001afd  00000000          + 9449  		DD	.DWLopt863	;;     operand
00001b01  22                  9450  		DC	0x22	;; SPECIAL 34
00001b02  000502              9451  		DC	0x0,0x5,0x2	;; DW_LNE_set_address
00001b05  00000000          + 9452  		DD	.DWLopt864	;;     operand
00001b09  3B                  9453  		DC	0x3b	;; SPECIAL 59
00001b0a  06                  9454  		DC	0x6	;; DW_LNS_negate_stmt
00001b0b  000502              9455  		DC	0x0,0x5,0x2	;; DW_LNE_set_address
00001b0e  00000000          + 9456  		DD	.DWLopt865	;;     operand
00001b12  51                  9457  		DC	0x51	;; SPECIAL 81
00001b13  06                  9458  		DC	0x6	;; DW_LNS_negate_stmt
00001b14  000502              9459  		DC	0x0,0x5,0x2	;; DW_LNE_set_address
00001b17  00000000          + 9460  		DD	.DWLopt866	;;     operand
00001b1b  25                  9461  		DC	0x25	;; SPECIAL 37
00001b1c  000502              9462  		DC	0x0,0x5,0x2	;; DW_LNE_set_address
00001b1f  00000000          + 9463  		DD	.DWLopt867	;;     operand
00001b23  3B                  9464  		DC	0x3b	;; SPECIAL 59
00001b24  000502              9465  		DC	0x0,0x5,0x2	;; DW_LNE_set_address
00001b27  00000000          + 9466  		DD	.DWLopt868	;;     operand
00001b2b  3C                  9467  		DC	0x3c	;; SPECIAL 60
00001b2c  000502              9468  		DC	0x0,0x5,0x2	;; DW_LNE_set_address
00001b2f  00000000          + 9469  		DD	.DWLopt869	;;     operand
00001b33  3C                  9470  		DC	0x3c	;; SPECIAL 60
00001b34  000502              9471  		DC	0x0,0x5,0x2	;; DW_LNE_set_address
00001b37  00000000          + 9472  		DD	.DWLopt870	;;     operand
00001b3b  3B                  9473  		DC	0x3b	;; SPECIAL 59
00001b3c  000502              9474  		DC	0x0,0x5,0x2	;; DW_LNE_set_address
00001b3f  00000000          + 9475  		DD	.DWLopt871	;;     operand
00001b43  3C                  9476  		DC	0x3c	;; SPECIAL 60
00001b44  000502              9477  		DC	0x0,0x5,0x2	;; DW_LNE_set_address
00001b47  00000000          + 9478  		DD	.DWLopt872	;;     operand
00001b4b  3C                  9479  		DC	0x3c	;; SPECIAL 60
00001b4c  000502              9480  		DC	0x0,0x5,0x2	;; DW_LNE_set_address
00001b4f  00000000          + 9481  		DD	.DWLopt873	;;     operand
00001b53  3B                  9482  		DC	0x3b	;; SPECIAL 59
00001b54  000502              9483  		DC	0x0,0x5,0x2	;; DW_LNE_set_address
00001b57  00000000          + 9484  		DD	.DWLopt874	;;     operand
00001b5b  3D                  9485  		DC	0x3d	;; SPECIAL 61
00001b5c  000502              9486  		DC	0x0,0x5,0x2	;; DW_LNE_set_address
00001b5f  00000000          + 9487  		DD	.DWLopt875	;;     operand
00001b63  39                  9488  		DC	0x39	;; SPECIAL 57
00001b64  000502              9489  		DC	0x0,0x5,0x2	;; DW_LNE_set_address
00001b67  00000000          + 9490  		DD	.DWLopt876	;;     operand
00001b6b  3D                  9491  		DC	0x3d	;; SPECIAL 61
00001b6c  06                  9492  		DC	0x6	;; DW_LNS_negate_stmt
00001b6d  000502              9493  		DC	0x0,0x5,0x2	;; DW_LNE_set_address
00001b70  00000000          + 9494  		DD	.DWLopt877	;;     operand
00001b74  3F                  9495  		DC	0x3f	;; SPECIAL 63
00001b75  000502              9496  		DC	0x0,0x5,0x2	;; DW_LNE_set_address
00001b78  00000000          + 9497  		DD	.LDW36	;;     operand
00001b7c  000101              9498  		DC	0x0,0x1,0x1	;; DW_LNE_end_sequence
00001b7f  000502              9499  		DC	0x0,0x5,0x2	;; DW_LNE_set_address
00001b82  00000000          + 9500  		DD	.DWLopt878	;;     operand
00001b86  03                  9501  		DC	0x3	;; DW_LNS_advance_line
00001b87  830D                9502  		DC	0x83,0xd	;; 1667
00001b89  01                  9503  		DC	0x1	;; DW_LNS_copy
00001b8a  000502              9504  		DC	0x0,0x5,0x2	;; DW_LNE_set_address
00001b8d  00000000          + 9505  		DD	.DWLopt879	;;     operand
00001b91  3C                  9506  		DC	0x3c	;; SPECIAL 60
00001b92  000502              9507  		DC	0x0,0x5,0x2	;; DW_LNE_set_address
00001b95  00000000          + 9508  		DD	.DWLopt880	;;     operand
00001b99  3B                  9509  		DC	0x3b	;; SPECIAL 59
00001b9a  000502              9510  		DC	0x0,0x5,0x2	;; DW_LNE_set_address
00001b9d  00000000          + 9511  		DD	.DWLopt881	;;     operand
00001ba1  3C                  9512  		DC	0x3c	;; SPECIAL 60
00001ba2  000502              9513  		DC	0x0,0x5,0x2	;; DW_LNE_set_address
00001ba5  00000000          + 9514  		DD	.DWLopt882	;;     operand
00001ba9  3C                  9515  		DC	0x3c	;; SPECIAL 60
00001baa  000502              9516  		DC	0x0,0x5,0x2	;; DW_LNE_set_address
00001bad  00000000          + 9517  		DD	.DWLopt883	;;     operand
00001bb1  3B                  9518  		DC	0x3b	;; SPECIAL 59
00001bb2  000502              9519  		DC	0x0,0x5,0x2	;; DW_LNE_set_address
00001bb5  00000000          + 9520  		DD	.DWLopt884	;;     operand
00001bb9  3D                  9521  		DC	0x3d	;; SPECIAL 61
00001bba  06                  9522  		DC	0x6	;; DW_LNS_negate_stmt
00001bbb  000502              9523  		DC	0x0,0x5,0x2	;; DW_LNE_set_address
00001bbe  00000000          + 9524  		DD	.LDW37	;;     operand
00001bc2  000101              9525  		DC	0x0,0x1,0x1	;; DW_LNE_end_sequence
00001bc5  000502              9526  		DC	0x0,0x5,0x2	;; DW_LNE_set_address
00001bc8  00000000          + 9527  		DD	.DWLopt885	;;     operand
00001bcc  03                  9528  		DC	0x3	;; DW_LNS_advance_line
00001bcd  920D                9529  		DC	0x92,0xd	;; 1682
00001bcf  01                  9530  		DC	0x1	;; DW_LNS_copy
00001bd0  000502              9531  		DC	0x0,0x5,0x2	;; DW_LNE_set_address
00001bd3  00000000          + 9532  		DD	.DWLopt886	;;     operand
00001bd7  3C                  9533  		DC	0x3c	;; SPECIAL 60
00001bd8  000502              9534  		DC	0x0,0x5,0x2	;; DW_LNE_set_address
00001bdb  00000000          + 9535  		DD	.DWLopt887	;;     operand
00001bdf  3C                  9536  		DC	0x3c	;; SPECIAL 60
00001be0  000502              9537  		DC	0x0,0x5,0x2	;; DW_LNE_set_address
00001be3  00000000          + 9538  		DD	.DWLopt888	;;     operand
00001be7  3E                  9539  		DC	0x3e	;; SPECIAL 62
00001be8  000502              9540  		DC	0x0,0x5,0x2	;; DW_LNE_set_address
00001beb  00000000          + 9541  		DD	.DWLopt889	;;     operand
00001bef  3B                  9542  		DC	0x3b	;; SPECIAL 59
00001bf0  000502              9543  		DC	0x0,0x5,0x2	;; DW_LNE_set_address
00001bf3  00000000          + 9544  		DD	.DWLopt890	;;     operand
00001bf7  3C                  9545  		DC	0x3c	;; SPECIAL 60
00001bf8  000502              9546  		DC	0x0,0x5,0x2	;; DW_LNE_set_address
00001bfb  00000000          + 9547  		DD	.DWLopt891	;;     operand
00001bff  3C                  9548  		DC	0x3c	;; SPECIAL 60
00001c00  000502              9549  		DC	0x0,0x5,0x2	;; DW_LNE_set_address
00001c03  00000000          + 9550  		DD	.DWLopt892	;;     operand
00001c07  3B                  9551  		DC	0x3b	;; SPECIAL 59
00001c08  000502              9552  		DC	0x0,0x5,0x2	;; DW_LNE_set_address
00001c0b  00000000          + 9553  		DD	.DWLopt893	;;     operand
00001c0f  3D                  9554  		DC	0x3d	;; SPECIAL 61
00001c10  06                  9555  		DC	0x6	;; DW_LNS_negate_stmt
00001c11  000502              9556  		DC	0x0,0x5,0x2	;; DW_LNE_set_address
00001c14  00000000          + 9557  		DD	.LDW38	;;     operand
00001c18  000101              9558  		DC	0x0,0x1,0x1	;; DW_LNE_end_sequence
00001c1b  000502              9559  		DC	0x0,0x5,0x2	;; DW_LNE_set_address
00001c1e  00000000          + 9560  		DD	.DWLopt897	;;     operand
00001c22  03                  9561  		DC	0x3	;; DW_LNS_advance_line
00001c23  A90D                9562  		DC	0xa9,0xd	;; 1705
00001c25  01                  9563  		DC	0x1	;; DW_LNS_copy
00001c26  000502              9564  		DC	0x0,0x5,0x2	;; DW_LNE_set_address
00001c29  00000000          + 9565  		DD	.DWLopt898	;;     operand
00001c2d  3C                  9566  		DC	0x3c	;; SPECIAL 60
00001c2e  000502              9567  		DC	0x0,0x5,0x2	;; DW_LNE_set_address
00001c31  00000000          + 9568  		DD	.DWLopt899	;;     operand
00001c35  3C                  9569  		DC	0x3c	;; SPECIAL 60
00001c36  000502              9570  		DC	0x0,0x5,0x2	;; DW_LNE_set_address
00001c39  00000000          + 9571  		DD	.DWLopt900	;;     operand
00001c3d  3F                  9572  		DC	0x3f	;; SPECIAL 63
00001c3e  000502              9573  		DC	0x0,0x5,0x2	;; DW_LNE_set_address
00001c41  00000000          + 9574  		DD	.DWLopt901	;;     operand
00001c45  3B                  9575  		DC	0x3b	;; SPECIAL 59
00001c46  06                  9576  		DC	0x6	;; DW_LNS_negate_stmt
00001c47  000502              9577  		DC	0x0,0x5,0x2	;; DW_LNE_set_address
00001c4a  00000000          + 9578  		DD	.DWLopt902	;;     operand
00001c4e  39                  9579  		DC	0x39	;; SPECIAL 57
00001c4f  06                  9580  		DC	0x6	;; DW_LNS_negate_stmt
00001c50  000502              9581  		DC	0x0,0x5,0x2	;; DW_LNE_set_address
00001c53  00000000          + 9582  		DD	.DWLopt903	;;     operand
00001c57  3C                  9583  		DC	0x3c	;; SPECIAL 60
00001c58  000502              9584  		DC	0x0,0x5,0x2	;; DW_LNE_set_address
00001c5b  00000000          + 9585  		DD	.DWLopt904	;;     operand
00001c5f  3C                  9586  		DC	0x3c	;; SPECIAL 60
00001c60  000502              9587  		DC	0x0,0x5,0x2	;; DW_LNE_set_address
00001c63  00000000          + 9588  		DD	.DWLopt905	;;     operand
00001c67  3C                  9589  		DC	0x3c	;; SPECIAL 60
00001c68  000502              9590  		DC	0x0,0x5,0x2	;; DW_LNE_set_address
00001c6b  00000000          + 9591  		DD	.DWLopt906	;;     operand
00001c6f  3C                  9592  		DC	0x3c	;; SPECIAL 60
00001c70  000502              9593  		DC	0x0,0x5,0x2	;; DW_LNE_set_address
00001c73  00000000          + 9594  		DD	.DWLopt907	;;     operand
00001c77  3C                  9595  		DC	0x3c	;; SPECIAL 60
00001c78  000502              9596  		DC	0x0,0x5,0x2	;; DW_LNE_set_address
00001c7b  00000000          + 9597  		DD	.DWLopt908	;;     operand
00001c7f  3C                  9598  		DC	0x3c	;; SPECIAL 60
00001c80  000502              9599  		DC	0x0,0x5,0x2	;; DW_LNE_set_address
00001c83  00000000          + 9600  		DD	.DWLopt909	;;     operand
00001c87  3B                  9601  		DC	0x3b	;; SPECIAL 59
00001c88  000502              9602  		DC	0x0,0x5,0x2	;; DW_LNE_set_address
00001c8b  00000000          + 9603  		DD	.DWLopt910	;;     operand
00001c8f  3D                  9604  		DC	0x3d	;; SPECIAL 61
00001c90  000502              9605  		DC	0x0,0x5,0x2	;; DW_LNE_set_address
00001c93  00000000          + 9606  		DD	.DWLopt911	;;     operand
00001c97  3B                  9607  		DC	0x3b	;; SPECIAL 59
00001c98  000502              9608  		DC	0x0,0x5,0x2	;; DW_LNE_set_address
00001c9b  00000000          + 9609  		DD	.DWLopt912	;;     operand
00001c9f  3D                  9610  		DC	0x3d	;; SPECIAL 61
00001ca0  06                  9611  		DC	0x6	;; DW_LNS_negate_stmt
00001ca1  000502              9612  		DC	0x0,0x5,0x2	;; DW_LNE_set_address
00001ca4  00000000          + 9613  		DD	.LDW39	;;     operand
00001ca8  000101              9614  		DC	0x0,0x1,0x1	;; DW_LNE_end_sequence
00001cab  06                  9615  		DC	0x6	;; DW_LNS_negate_stmt
00001cac  000502              9616  		DC	0x0,0x5,0x2	;; DW_LNE_set_address
00001caf  00000000          + 9617  		DD	.DWLopt926	;;     operand
00001cb3  39                  9618  		DC	0x39	;; SPECIAL 57
00001cb4  06                  9619  		DC	0x6	;; DW_LNS_negate_stmt
00001cb5  000502              9620  		DC	0x0,0x5,0x2	;; DW_LNE_set_address
00001cb8  00000000          + 9621  		DD	.DWLopt927	;;     operand
00001cbc  03                  9622  		DC	0x3	;; DW_LNS_advance_line
00001cbd  CE0D                9623  		DC	0xce,0xd	;; 1742
00001cbf  01                  9624  		DC	0x1	;; DW_LNS_copy
00001cc0  000502              9625  		DC	0x0,0x5,0x2	;; DW_LNE_set_address
00001cc3  00000000          + 9626  		DD	.DWLopt928	;;     operand
00001cc7  3C                  9627  		DC	0x3c	;; SPECIAL 60
00001cc8  000502              9628  		DC	0x0,0x5,0x2	;; DW_LNE_set_address
00001ccb  00000000          + 9629  		DD	.DWLopt929	;;     operand
00001ccf  3C                  9630  		DC	0x3c	;; SPECIAL 60
00001cd0  000502              9631  		DC	0x0,0x5,0x2	;; DW_LNE_set_address
00001cd3  00000000          + 9632  		DD	.DWLopt930	;;     operand
00001cd7  3C                  9633  		DC	0x3c	;; SPECIAL 60
00001cd8  000502              9634  		DC	0x0,0x5,0x2	;; DW_LNE_set_address
00001cdb  00000000          + 9635  		DD	.DWLopt931	;;     operand
00001cdf  3B                  9636  		DC	0x3b	;; SPECIAL 59
00001ce0  000502              9637  		DC	0x0,0x5,0x2	;; DW_LNE_set_address
00001ce3  00000000          + 9638  		DD	.DWLopt932	;;     operand
00001ce7  3B                  9639  		DC	0x3b	;; SPECIAL 59
00001ce8  06                  9640  		DC	0x6	;; DW_LNS_negate_stmt
00001ce9  000502              9641  		DC	0x0,0x5,0x2	;; DW_LNE_set_address
00001cec  00000000          + 9642  		DD	.DWLopt933	;;     operand
00001cf0  03                  9643  		DC	0x3	;; DW_LNS_advance_line
00001cf1  AA72                9644  		DC	0xaa,0x72	;; -1750
00001cf3  01                  9645  		DC	0x1	;; DW_LNS_copy
00001cf4  06                  9646  		DC	0x6	;; DW_LNS_negate_stmt
00001cf5  000502              9647  		DC	0x0,0x5,0x2	;; DW_LNE_set_address
00001cf8  00000000          + 9648  		DD	.DWLopt934	;;     operand
00001cfc  03                  9649  		DC	0x3	;; DW_LNS_advance_line
00001cfd  D80D                9650  		DC	0xd8,0xd	;; 1752
00001cff  01                  9651  		DC	0x1	;; DW_LNS_copy
00001d00  000502              9652  		DC	0x0,0x5,0x2	;; DW_LNE_set_address
00001d03  00000000          + 9653  		DD	.DWLopt935	;;     operand
00001d07  3C                  9654  		DC	0x3c	;; SPECIAL 60
00001d08  06                  9655  		DC	0x6	;; DW_LNS_negate_stmt
00001d09  000502              9656  		DC	0x0,0x5,0x2	;; DW_LNE_set_address
00001d0c  00000000          + 9657  		DD	.DWLopt936	;;     operand
00001d10  38                  9658  		DC	0x38	;; SPECIAL 56
00001d11  06                  9659  		DC	0x6	;; DW_LNS_negate_stmt
00001d12  000502              9660  		DC	0x0,0x5,0x2	;; DW_LNE_set_address
00001d15  00000000          + 9661  		DD	.DWLopt937	;;     operand
00001d19  40                  9662  		DC	0x40	;; SPECIAL 64
00001d1a  000502              9663  		DC	0x0,0x5,0x2	;; DW_LNE_set_address
00001d1d  00000000          + 9664  		DD	.DWLopt938	;;     operand
00001d21  32                  9665  		DC	0x32	;; SPECIAL 50
00001d22  000502              9666  		DC	0x0,0x5,0x2	;; DW_LNE_set_address
00001d25  00000000          + 9667  		DD	.DWLopt939	;;     operand
00001d29  36                  9668  		DC	0x36	;; SPECIAL 54
00001d2a  06                  9669  		DC	0x6	;; DW_LNS_negate_stmt
00001d2b  000502              9670  		DC	0x0,0x5,0x2	;; DW_LNE_set_address
00001d2e  00000000          + 9671  		DD	.DWLopt940	;;     operand
00001d32  03                  9672  		DC	0x3	;; DW_LNS_advance_line
00001d33  AE72                9673  		DC	0xae,0x72	;; -1746
00001d35  01                  9674  		DC	0x1	;; DW_LNS_copy
00001d36  06                  9675  		DC	0x6	;; DW_LNS_negate_stmt
00001d37  000502              9676  		DC	0x0,0x5,0x2	;; DW_LNE_set_address
00001d3a  00000000          + 9677  		DD	.DWLopt941	;;     operand
00001d3e  03                  9678  		DC	0x3	;; DW_LNS_advance_line
00001d3f  E50D                9679  		DC	0xe5,0xd	;; 1765
00001d41  01                  9680  		DC	0x1	;; DW_LNS_copy
00001d42  000502              9681  		DC	0x0,0x5,0x2	;; DW_LNE_set_address
00001d45  00000000          + 9682  		DD	.DWLopt942	;;     operand
00001d49  3D                  9683  		DC	0x3d	;; SPECIAL 61
00001d4a  000502              9684  		DC	0x0,0x5,0x2	;; DW_LNE_set_address
00001d4d  00000000          + 9685  		DD	.DWLopt943	;;     operand
00001d51  3B                  9686  		DC	0x3b	;; SPECIAL 59
00001d52  06                  9687  		DC	0x6	;; DW_LNS_negate_stmt
00001d53  000502              9688  		DC	0x0,0x5,0x2	;; DW_LNE_set_address
00001d56  00000000          + 9689  		DD	.LDW40	;;     operand
00001d5a  000101              9690  		DC	0x0,0x1,0x1	;; DW_LNE_end_sequence
00001d5d  000502              9691  		DC	0x0,0x5,0x2	;; DW_LNE_set_address
00001d60  00000000          + 9692  		DD	.DWLopt949	;;     operand
00001d64  03                  9693  		DC	0x3	;; DW_LNS_advance_line
00001d65  EE0D                9694  		DC	0xee,0xd	;; 1774
00001d67  01                  9695  		DC	0x1	;; DW_LNS_copy
00001d68  000502              9696  		DC	0x0,0x5,0x2	;; DW_LNE_set_address
00001d6b  00000000          + 9697  		DD	.DWLopt950	;;     operand
00001d6f  3C                  9698  		DC	0x3c	;; SPECIAL 60
00001d70  000502              9699  		DC	0x0,0x5,0x2	;; DW_LNE_set_address
00001d73  00000000          + 9700  		DD	.DWLopt951	;;     operand
00001d77  3C                  9701  		DC	0x3c	;; SPECIAL 60
00001d78  000502              9702  		DC	0x0,0x5,0x2	;; DW_LNE_set_address
00001d7b  00000000          + 9703  		DD	.DWLopt952	;;     operand
00001d7f  3C                  9704  		DC	0x3c	;; SPECIAL 60
00001d80  000502              9705  		DC	0x0,0x5,0x2	;; DW_LNE_set_address
00001d83  00000000          + 9706  		DD	.DWLopt953	;;     operand
00001d87  3D                  9707  		DC	0x3d	;; SPECIAL 61
00001d88  000502              9708  		DC	0x0,0x5,0x2	;; DW_LNE_set_address
00001d8b  00000000          + 9709  		DD	.DWLopt954	;;     operand
00001d8f  3B                  9710  		DC	0x3b	;; SPECIAL 59
00001d90  06                  9711  		DC	0x6	;; DW_LNS_negate_stmt
00001d91  000502              9712  		DC	0x0,0x5,0x2	;; DW_LNE_set_address
00001d94  00000000          + 9713  		DD	.LDW42	;;     operand
00001d98  000101              9714  		DC	0x0,0x1,0x1	;; DW_LNE_end_sequence
00001d9b  000502              9715  		DC	0x0,0x5,0x2	;; DW_LNE_set_address
00001d9e  00000000          + 9716  		DD	.DWLopt960	;;     operand
00001da2  03                  9717  		DC	0x3	;; DW_LNS_advance_line
00001da3  FE0D                9718  		DC	0xfe,0xd	;; 1790
00001da5  01                  9719  		DC	0x1	;; DW_LNS_copy
00001da6  000502              9720  		DC	0x0,0x5,0x2	;; DW_LNE_set_address
00001da9  00000000          + 9721  		DD	.DWLopt961	;;     operand
00001dad  3C                  9722  		DC	0x3c	;; SPECIAL 60
00001dae  000502              9723  		DC	0x0,0x5,0x2	;; DW_LNE_set_address
00001db1  00000000          + 9724  		DD	.DWLopt962	;;     operand
00001db5  3C                  9725  		DC	0x3c	;; SPECIAL 60
00001db6  000502              9726  		DC	0x0,0x5,0x2	;; DW_LNE_set_address
00001db9  00000000          + 9727  		DD	.DWLopt963	;;     operand
00001dbd  3C                  9728  		DC	0x3c	;; SPECIAL 60
00001dbe  000502              9729  		DC	0x0,0x5,0x2	;; DW_LNE_set_address
00001dc1  00000000          + 9730  		DD	.DWLopt964	;;     operand
00001dc5  3D                  9731  		DC	0x3d	;; SPECIAL 61
00001dc6  000502              9732  		DC	0x0,0x5,0x2	;; DW_LNE_set_address
00001dc9  00000000          + 9733  		DD	.DWLopt965	;;     operand
00001dcd  3B                  9734  		DC	0x3b	;; SPECIAL 59
00001dce  06                  9735  		DC	0x6	;; DW_LNS_negate_stmt
00001dcf  000502              9736  		DC	0x0,0x5,0x2	;; DW_LNE_set_address
00001dd2  00000000          + 9737  		DD	.LDW43	;;     operand
00001dd6  000101              9738  		DC	0x0,0x1,0x1	;; DW_LNE_end_sequence
00001dd9                      9739  	.LLN_E
                              9740  	.debug_aranges		SECTION
                              9741  	;; Aranges Information
00000000  00000000          + 9742  		DD	.LAR_E-.LAR_B	;; length
00000004                      9743  	.LAR_B
00000004  0200                9744  		DW	0x2	;; version
00000006  00000000          + 9745  		DD	.LI_TOP	;; debug_info section
0000000a  04                  9746  		DC	0x4	;; address size
0000000b  00                  9747  		DC	0x0	;; segment size
0000000c  00000000            9748  		DD	0x0	;; padding
                              9749  		;; Address Range Table
00000010  0000000004000000  + 9750  		DD	_flg_SCI0,0x4	;; address, size
00000018  0000000014000000  + 9751  		DD	_guc_SCI0_tx_buffer,0x14	;; address, size
00000020  0000000014000000  + 9752  		DD	_guc_SCI0_rx_buffer,0x14	;; address, size
00000028  0000000002000000  + 9753  		DD	_gus_SCI0_check_delaytimer,0x2	;; address, size
00000030  0000000002000000  + 9754  		DD	_gss_SCI0_init_delaytimer,0x2	;; address, size
00000038  0000000001000000  + 9755  		DD	_guc_SCI0_tx_len,0x1	;; address, size
00000040  0000000001000000  + 9756  		DD	_guc_SCI0_rx_len,0x1	;; address, size
00000048  0000000001000000  + 9757  		DD	_guc_SCI0_tx_point,0x1	;; address, size
00000050  0000000001000000  + 9758  		DD	_guc_SCI0_rx_point,0x1	;; address, size
00000058  0000000002000000  + 9759  		DD	_gss_SCI0_tx_delaytimer,0x2	;; address, size
00000060  0000000002000000  + 9760  		DD	_gss_SCI0_rx_delaytimer,0x2	;; address, size
00000068  0000000002000000  + 9761  		DD	_gss_SCI0_rx_end_delaytimer,0x2	;; address, size
00000070  0000000002000000  + 9762  		DD	_gss_SCI0_fault_delaytimer,0x2	;; address, size
00000078  0000000002000000  + 9763  		DD	_gss_trip_clear_cnt,0x2	;; address, size
00000080  0000000002000000  + 9764  		DD	_gus_host_speed_set,0x2	;; address, size
00000088  0000000002000000  + 9765  		DD	_gus_host_setfreq,0x2	;; address, size
00000090  0000000001000000  + 9766  		DD	_guc_comm_address,0x1	;; address, size
00000098  0000000001000000  + 9767  		DD	_guc_motor_ID_error_cnt,0x1	;; address, size
000000a0  0000000001000000  + 9768  		DD	_guc_SCI0_type_cnt,0x1	;; address, size
000000a8  0000000001000000  + 9769  		DD	_guc_SCI0_trip_code,0x1	;; address, size
000000b0  0000000001000000  + 9770  		DD	_guc_LED_trip_code,0x1	;; address, size
000000b8  0000000002000000  + 9771  		DD	_gus_host_test,0x2	;; address, size
000000c0  0000000000000000  + 9772  		DD	_SCI0_configure,.LDW26-_SCI0_configure	;; address, size
000000c8  0000000000000000  + 9773  		DD	_SCI0comm_reset,.LDW27-_SCI0comm_reset	;; address, size
000000d0  0000000000000000  + 9774  		DD	_SCI0_check_delaytime,.LDW28-_SCI0_check_delaytime	;; address, size
000000d8  0000000000000000  + 9775  		DD	_SCI0_send_init,.LDW29-_SCI0_send_init	;; address, size
000000e0  0000000000000000  + 9776  		DD	_sci0_Renesas_tx_data_load,.LDW30-_sci0_Renesas_tx_data_load	;; address, size
000000e8  0000000000000000  + 9777  		DD	_SCI0_receive_int,.LDW31-_SCI0_receive_int	;; address, size
000000f0  0000000000000000  + 9778  		DD	_SCI0_rx_data_deal,.LDW32-_SCI0_rx_data_deal	;; address, size
000000f8  0000000000000000  + 9779  		DD	_Renesas_rx_data_deal,.LDW33-_Renesas_rx_data_deal	;; address, size
00000100  0000000000000000  + 9780  		DD	_SCI0_tx_delaytime,.LDW34-_SCI0_tx_delaytime	;; address, size
00000108  0000000000000000  + 9781  		DD	_SCI0_rx_delaytime,.LDW35-_SCI0_rx_delaytime	;; address, size
00000110  0000000000000000  + 9782  		DD	_SCI0_rx_end_delaytime,.LDW36-_SCI0_rx_end_delaytime	;; address, size
00000118  0000000000000000  + 9783  		DD	_SCI0_fault_delaytime,.LDW37-_SCI0_fault_delaytime	;; address, size
00000120  0000000000000000  + 9784  		DD	_SCI0_tx_int,.LDW38-_SCI0_tx_int	;; address, size
00000128  0000000000000000  + 9785  		DD	_SCI0_rx_int,.LDW39-_SCI0_rx_int	;; address, size
00000130  0000000000000000  + 9786  		DD	_CRC16,.LDW40-_CRC16	;; address, size
00000138  0000000000000000  + 9787  		DD	_Ascii_to_data,.LDW42-_Ascii_to_data	;; address, size
00000140  0000000000000000  + 9788  		DD	_data_to_Ascii,.LDW43-_data_to_Ascii	;; address, size
                              9789  		;; end
00000148  00000000            9790  		DD	0x0
0000014c  00000000            9791  		DD	0x0
00000150                      9792  	.LAR_E
                              9793  	;; End of Aranges Information
                              9794  		END
                              9795  	;;ENDFILE 
                                                OP0c.lst	Page 2
*** Symbol Table ***
Address/Value	Class	Section			  Symbol

00000000	L	.debug_frame              .LFR_TOP
00000024	L	.debug_frame              .LFR_C_E
00000004	L	.debug_frame              .LFR_C_B
00000000	L	.text                     .LPC_TOP
00000000	G				  _0disable_irq
00000000	G				  _flg_ctrl
00000000	G				  _flg_theta
00000000	G				  _EEPROM_InitData
00000000	G				  _ram_para
00000000	G				  _App_index
00000000	G				  _App_para
00000000	G				  _0writeword_to_eeprom
00000000	G				  _gus_Iout_peak
00000000	G				  _gus_Iout_for_disp
00000000	G				  _gus_Udc_for_disp
00000000	G				  _gss_Tm
00000000	G				  _gus_speed_real
00000000	G				  _gus_MAX_setfreq
00000000	G				  _0trip_stop_deal
00000000	G				  _flg_fault
00000000	G				  _guc_trip_code
00000000	G				  _guc_state_code
00000000	G				  _guc_motor_block_cnt
00000000	G				  _guc_Iout_fault_cnt
00000000	G				  _guc_ALM_fault_cnt
00000000	G				  _0motor_var_init
00000000	G				  _flg_Hall
00000000	G				  _gus_Hall_freq
00000000	G				  _gus_phase_adv_degree
00000000	G				  _guc_motor_ID
00000000	G	.text                     _SCI0_configure
00000000	G	.text                     _0SCI0_configure
00000000	L	.text                     .DWLopt1
00000006	L	.text                     .DWLopt2
0000000b	L	.text                     .DWLopt3
00000010	L	.text                     .DWLopt4
00000015	L	.text                     .DWLopt5
0000001a	L	.text                     .DWLopt6
0000001f	L	.text                     .DWLopt7
00000025	L	.text                     .DWLopt8
0000002f	L	.text                     .DWLopt9
0000003a	L	.text                     .DWLopt10
00000040	L	.text                     .DWLopt11
00000044	L	.text                     .DWLopt12
00000048	L	.text                     .DWLopt13
0000004d	L	.text                     .DWLopt14
00000055	L	.text                     .DWLopt15
0000005d	L	.text                     .DWLopt16
00000065	L	.text                     .DWLopt17
00000000	G	.bss                      _flg_SCI0
00000075	L	.text                     .DWLopt18
0000003a	G	.bss                      _gss_SCI0_tx_delaytimer
0000007c	L	.text                     .DWLopt19
0000008b	L	.text                     .DWLopt20
0000003c	G	.bss                      _gss_SCI0_rx_delaytimer
00000093	L	.text                     .DWLopt21
00000099	L	.text                     .DWLopt22
000000a3	L	.text                     .DWLopt23
00000037	G	.bss                      _guc_SCI0_rx_len
000000ab	L	.text                     .DWLopt24
000000ae	L	.text                     .LDW26
00000038	L	.debug_frame              .LDW69
00000028	L	.debug_frame              .LDW68
000000ae	G	.text                     _SCI0comm_reset
000000b0	G	.text                     _0SCI0comm_reset
000000b0	L	.text                     .DWLopt31
000000b7	L	.text                     .DWLopt32
000000c0	L	.text                     .DWLopt33
000000c4	L	.text                     .DWLopt34
000000cd	L	.text                     .DWLopt35
00000119	L	.text                     L00006
000000de	L	.text                     .DWLopt36
00000103	L	.text                     L00008
000000ea	L	.text                     .DWLopt37
000000f8	L	.text                     .DWLopt38
00000103	L	.text                     .DWLopt39
00000113	L	.text                     .DWLopt40
00000119	L	.text                     .DWLopt41
0000011f	L	.text                     .DWLopt42
00000120	L	.text                     .DWLopt43
0000012a	L	.text                     .DWLopt44
0000012b	L	.text                     .DWLopt27
0000012b	L	.text                     .DWLopt45
0000001d	G	.bss                      _guc_SCI0_rx_buffer
00000131	L	.text                     .DWLopt46
00000132	L	.text                     .DWLopt47
00000136	L	.text                     .DWLopt28
00000136	L	.text                     .DWLopt48
00000138	L	.text                     .DWLopt49
0000013c	L	.text                     .DWLopt50
0000013d	L	.text                     .DWLopt29
0000013d	L	.text                     .DWLopt51
0000013e	L	.text                     .DWLopt52
00000009	G	.bss                      _guc_SCI0_tx_buffer
00000144	L	.text                     .DWLopt53
00000145	L	.text                     .DWLopt54
00000148	L	.text                     .DWLopt30
00000148	L	.text                     .DWLopt55
0000014a	L	.text                     .DWLopt56
0000014e	L	.text                     .DWLopt57
0000015e	L	.text                     .DWLopt58
0000016d	L	.text                     .DWLopt59
00000174	L	.text                     .DWLopt60
0000017c	L	.text                     .DWLopt61
0000017f	L	.text                     .LDW27
00000000	L	.debug_MN_rsc             .LDW70
0000004e	L	.debug_frame              .LDW105
0000003c	L	.debug_frame              .LDW104
0000017f	G	.text                     _SCI0_check_delaytime
00000182	G	.text                     _0SCI0_check_delaytime
00000182	L	.text                     .DWLopt62
000001c6	L	.text                     L00020
000001a3	L	.text                     .DWLopt63
00000032	G	.bss                      _gus_SCI0_check_delaytimer
000001b0	L	.text                     .DWLopt64
000001ba	L	.text                     .DWLopt65
000001c1	L	.text                     .DWLopt66
000001c6	L	.text                     .DWLopt67
000001c9	L	.text                     .LDW28
00000062	L	.debug_frame              .LDW113
00000052	L	.debug_frame              .LDW112
000001c9	G	.text                     _SCI0_send_init
000001ce	G	.text                     _0SCI0_send_init
000001ce	L	.text                     .DWLopt86
000001e2	L	.text                     Lcb0006
000003c9	L	.text                     L00030
000001f6	L	.text                     Lcb0007
000001f6	L	.text                     .DWLopt87
000001fc	L	.text                     .DWLopt88
00000208	L	.text                     .DWLopt89
00000214	L	.text                     .DWLopt90
0000021c	L	.text                     .DWLopt91
00000221	L	.text                     .DWLopt92
00000224	L	.text                     .DWLopt93
0000022a	L	.text                     .DWLopt94
00000230	L	.text                     .DWLopt95
00000244	L	.text                     Lcb0008
00000379	L	.text                     S00062
00000252	L	.text                     Lcb0009
00000000	L	.rodata                   S00740
0000028f	L	.text                     L00746
0000026d	L	.text                     Lcb000a
0000026d	L	.text                     L00828
0000026d	L	.text                     .DWLopt96
0000026e	L	.text                     L00748
0000026e	L	.text                     .DWLopt97
0000027c	L	.text                     Lcb000b
0000028c	L	.text                     L00751
0000028b	L	.text                     Lcb000c
00000294	L	.text                     S00038
00000294	L	.text                     .DWLopt98
00000299	L	.text                     S00041
00000299	L	.text                     .DWLopt99
000002a1	L	.text                     .DWLopt100
00000008	G	.bss                      _guc_LED_trip_code
000002a9	L	.text                     .DWLopt101
000002b5	L	.text                     Lcb000d
00000386	L	.text                     L00035
000002b5	L	.text                     .DWLopt102
000002b7	L	.text                     .DWLopt103
00000380	L	.text                     Lopt000005
000002bc	L	.text                     S00044
000002bc	L	.text                     .DWLopt104
000002be	L	.text                     .DWLopt105
0000037a	L	.text                     Lopt000003
000002c3	L	.text                     S00045
000002c3	L	.text                     .DWLopt106
000002cb	L	.text                     .DWLopt107
000002d3	L	.text                     .DWLopt108
000002fb	L	.text                     Lcb000f
000002df	L	.text                     Lcb000e
000002df	L	.text                     .DWLopt109
000002e4	L	.text                     S00048
000002e4	L	.text                     .DWLopt110
000002ec	L	.text                     .DWLopt111
000002f4	L	.text                     .DWLopt112
000002fb	L	.text                     .DWLopt113
000002fb	L	.text                     .DWLopt114
000002fd	L	.text                     .DWLopt115
00000302	L	.text                     S00050
00000302	L	.text                     .DWLopt116
0000030a	L	.text                     .DWLopt117
0000030c	L	.text                     .DWLopt118
00000311	L	.text                     S00051
00000311	L	.text                     .DWLopt119
00000319	L	.text                     .DWLopt120
0000031b	L	.text                     .DWLopt121
00000320	L	.text                     S00052
00000320	L	.text                     S00053
00000320	L	.text                     .DWLopt122
00000320	L	.text                     .DWLopt123
00000328	L	.text                     .DWLopt124
00000328	L	.text                     .DWLopt125
0000032a	L	.text                     .DWLopt126
0000032f	L	.text                     S00054
0000032f	L	.text                     .DWLopt127
00000337	L	.text                     .DWLopt128
0000033f	L	.text                     .DWLopt129
00000346	L	.text                     Lcb0010
00000346	L	.text                     .DWLopt130
00000353	L	.text                     Lopt000004
0000034b	L	.text                     S00057
0000034b	L	.text                     S00058
0000034b	L	.text                     .DWLopt131
0000034b	L	.text                     .DWLopt132
00000353	L	.text                     .DWLopt133
00000353	L	.text                     .DWLopt134
00000353	L	.text                     .DWLopt135
00000355	L	.text                     .DWLopt136
0000035a	L	.text                     S00059
0000035a	L	.text                     S00060
0000035a	L	.text                     .DWLopt137
0000035a	L	.text                     .DWLopt138
00000362	L	.text                     .DWLopt139
00000362	L	.text                     .DWLopt140
00000364	L	.text                     .DWLopt141
00000369	L	.text                     S00061
00000369	L	.text                     .DWLopt142
00000371	L	.text                     .DWLopt143
00000374	L	.text                     .DWLopt144
00000379	L	.text                     .DWLopt145
00000379	L	.text                     .DWLopt146
0000037a	L	.text                     .DWLopt147
0000037a	L	.text                     .DWLopt148
0000037a	L	.text                     .DWLopt149
00000380	L	.text                     .DWLopt150
00000380	L	.text                     .DWLopt151
00000380	L	.text                     .DWLopt152
00000380	L	.text                     .DWLopt153
00000380	L	.text                     .DWLopt154
00000380	L	.text                     .DWLopt155
00000380	L	.text                     .DWLopt156
00000380	L	.text                     .DWLopt157
00000380	L	.text                     .DWLopt158
00000380	L	.text                     .DWLopt159
00000380	L	.text                     .DWLopt160
00000380	L	.text                     .DWLopt161
00000380	L	.text                     .DWLopt162
00000380	L	.text                     .DWLopt163
00000380	L	.text                     .DWLopt164
00000380	L	.text                     .DWLopt165
00000007	G	.bss                      _guc_SCI0_trip_code
00000386	L	.text                     .DWLopt166
0000038c	L	.text                     .DWLopt167
00000392	L	.text                     .DWLopt71
00000392	L	.text                     .DWLopt168
00000398	L	.text                     .DWLopt169
0000039e	L	.text                     .DWLopt170
000003a5	L	.text                     .DWLopt171
000003ac	L	.text                     .DWLopt172
000003b3	L	.text                     .DWLopt173
000003b4	L	.text                     .DWLopt174
0000076e	L	.text                     L00063
000003c9	L	.text                     .DWLopt175
000003dd	L	.text                     Lcb0011
00000570	L	.text                     L00064
000003f1	L	.text                     Lcb0012
000003f1	L	.text                     .DWLopt176
000003f7	L	.text                     .DWLopt177
000003fd	L	.text                     .DWLopt178
00000408	L	.text                     .DWLopt179
00000411	L	.text                     .DWLopt180
0000041a	L	.text                     .DWLopt181
00000423	L	.text                     .DWLopt182
00000436	L	.text                     L00065
0000042a	L	.text                     Lcb0013
0000042a	L	.text                     .DWLopt183
0000043d	L	.text                     L00067
00000436	L	.text                     .DWLopt184
0000043d	L	.text                     .DWLopt185
00000443	L	.text                     .DWLopt186
00000449	L	.text                     .DWLopt187
0000044f	L	.text                     .DWLopt188
00000455	L	.text                     .DWLopt189
00000458	L	.text                     .DWLopt190
0000045e	L	.text                     .DWLopt191
00000464	L	.text                     .DWLopt79
00000464	L	.text                     .DWLopt192
00000470	L	.text                     Lcb0014
0000053c	L	.text                     L00072
00000470	L	.text                     .DWLopt193
00000476	L	.text                     .DWLopt194
00000477	L	.text                     .DWLopt80
00000477	L	.text                     .DWLopt195
00000480	L	.text                     Lcb0015
00000480	L	.text                     .DWLopt196
00000492	L	.text                     L00479
00000489	L	.text                     Lcb0016
000004bc	L	.text                     L00074
00000492	L	.text                     Lcb0017
00000492	L	.text                     .DWLopt197
000004a1	L	.text                     Lcb0018
000004a1	L	.text                     .DWLopt198
000004a7	L	.text                     .DWLopt199
000004ad	L	.text                     .DWLopt81
000004ad	L	.text                     .DWLopt200
000004b7	L	.text                     Lcb0019
000004b7	L	.text                     .DWLopt201
00000538	L	.text                     Lcb0020
000004bc	L	.text                     .DWLopt202
000004ef	L	.text                     L00078
000004c5	L	.text                     Lcb001a
000004c5	L	.text                     .DWLopt203
000004d4	L	.text                     Lcb001b
000004d4	L	.text                     .DWLopt204
000004da	L	.text                     .DWLopt205
000004e0	L	.text                     .DWLopt82
000004e0	L	.text                     .DWLopt206
000004ea	L	.text                     Lcb001c
000004ea	L	.text                     .DWLopt207
000004ef	L	.text                     .DWLopt208
00000522	L	.text                     L00082
000004f8	L	.text                     Lcb001d
000004f8	L	.text                     .DWLopt209
00000507	L	.text                     Lcb001e
00000507	L	.text                     .DWLopt210
0000050d	L	.text                     .DWLopt211
00000513	L	.text                     .DWLopt83
00000513	L	.text                     .DWLopt212
0000051d	L	.text                     Lcb001f
0000051d	L	.text                     .DWLopt213
00000522	L	.text                     .DWLopt214
00000528	L	.text                     .DWLopt215
0000052e	L	.text                     .DWLopt84
0000052e	L	.text                     .DWLopt216
00000538	L	.text                     .DWLopt217
00000538	L	.text                     .DWLopt218
00000538	L	.text                     .DWLopt219
00000538	L	.text                     .DWLopt220
0000053c	L	.text                     .DWLopt221
00000542	L	.text                     .DWLopt85
00000542	L	.text                     .DWLopt222
00000036	G	.bss                      _guc_SCI0_tx_len
00001aa9	G	.text                     _0CRC16
00000556	L	.text                     .DWLopt223
00000564	L	.text                     .DWLopt224
00000570	L	.text                     .DWLopt225
0000059a	L	.text                     L00094
0000057f	L	.text                     Lcb0021
0000058e	L	.text                     Lcb0022
0000058e	L	.text                     .DWLopt226
000007b1	G	.text                     _0sci0_Renesas_tx_data_load
0000059a	L	.text                     .DWLopt227
000005a0	L	.text                     .DWLopt228
000005a6	L	.text                     .DWLopt229
000005a7	L	.text                     .DWLopt230
000005b0	L	.text                     .DWLopt231
00000006	G	.bss                      _guc_comm_address
000005b6	L	.text                     .DWLopt232
000005b9	L	.text                     .DWLopt233
000005c3	L	.text                     .DWLopt234
000005c9	L	.text                     .DWLopt235
000005cb	L	.text                     .DWLopt236
000005d1	L	.text                     .DWLopt237
000005d7	L	.text                     .DWLopt238
000005dd	L	.text                     .DWLopt239
000005f3	L	.text                     L00099
000005e7	L	.text                     Lcb0023
000005e7	L	.text                     .DWLopt240
000005fa	L	.text                     L00100
000005f3	L	.text                     .DWLopt241
000005fa	L	.text                     .DWLopt242
00000600	L	.text                     .DWLopt243
0000060e	L	.text                     .DWLopt244
00000617	L	.text                     .DWLopt245
00000620	L	.text                     .DWLopt246
00000627	L	.text                     .DWLopt247
0000062d	L	.text                     .DWLopt248
00000633	L	.text                     .DWLopt249
00000639	L	.text                     .DWLopt72
00000639	L	.text                     .DWLopt250
00000648	L	.text                     Lcb0024
00000714	L	.text                     L00104
00000648	L	.text                     .DWLopt251
0000064e	L	.text                     .DWLopt252
0000064f	L	.text                     .DWLopt73
0000064f	L	.text                     .DWLopt253
00000658	L	.text                     Lcb0025
00000658	L	.text                     .DWLopt254
0000066a	L	.text                     L00484
00000661	L	.text                     Lcb0026
00000694	L	.text                     L00106
0000066a	L	.text                     Lcb0027
0000066a	L	.text                     .DWLopt255
00000679	L	.text                     Lcb0028
00000679	L	.text                     .DWLopt256
0000067f	L	.text                     .DWLopt257
00000685	L	.text                     .DWLopt74
00000685	L	.text                     .DWLopt258
0000068f	L	.text                     Lcb0029
0000068f	L	.text                     .DWLopt259
00000710	L	.text                     Lcb0030
00000694	L	.text                     .DWLopt260
000006c7	L	.text                     L00110
0000069d	L	.text                     Lcb002a
0000069d	L	.text                     .DWLopt261
000006ac	L	.text                     Lcb002b
000006ac	L	.text                     .DWLopt262
000006b2	L	.text                     .DWLopt263
000006b8	L	.text                     .DWLopt75
000006b8	L	.text                     .DWLopt264
000006c2	L	.text                     Lcb002c
000006c2	L	.text                     .DWLopt265
000006c7	L	.text                     .DWLopt266
000006fa	L	.text                     L00114
000006d0	L	.text                     Lcb002d
000006d0	L	.text                     .DWLopt267
000006df	L	.text                     Lcb002e
000006df	L	.text                     .DWLopt268
000006e5	L	.text                     .DWLopt269
000006eb	L	.text                     .DWLopt76
000006eb	L	.text                     .DWLopt270
000006f5	L	.text                     Lcb002f
000006f5	L	.text                     .DWLopt271
000006fa	L	.text                     .DWLopt272
00000700	L	.text                     .DWLopt273
00000706	L	.text                     .DWLopt77
00000706	L	.text                     .DWLopt274
00000710	L	.text                     .DWLopt275
00000710	L	.text                     .DWLopt276
00000710	L	.text                     .DWLopt277
00000710	L	.text                     .DWLopt278
00000714	L	.text                     .DWLopt279
0000071a	L	.text                     .DWLopt78
0000071a	L	.text                     .DWLopt280
00000720	L	.text                     .DWLopt281
00000721	L	.text                     .DWLopt282
00000731	L	.text                     .DWLopt283
00000739	L	.text                     .DWLopt284
00000740	L	.text                     .DWLopt285
00000746	L	.text                     .DWLopt286
00000759	L	.text                     .DWLopt287
00000767	L	.text                     .DWLopt288
0000076e	L	.text                     .DWLopt289
0000077d	L	.text                     .DWLopt290
00000038	G	.bss                      _guc_SCI0_tx_point
00000785	L	.text                     .DWLopt291
0000078a	L	.text                     .DWLopt292
00000793	L	.text                     .DWLopt293
0000079c	L	.text                     .DWLopt294
000007a0	L	.text                     .DWLopt295
000007a9	L	.text                     .DWLopt296
000007ac	L	.text                     .LDW29
0000001d	L	.debug_MN_rsc             .LDW114
0000007a	L	.debug_frame              .LDW312
00000066	L	.debug_frame              .LDW311
000007ac	G	.text                     _sci0_Renesas_tx_data_load
000007b1	L	.text                     .DWLopt314
000007b9	L	.text                     .DWLopt315
000007c1	L	.text                     .DWLopt316
000007c7	L	.text                     .DWLopt317
000007c9	L	.text                     .DWLopt318
000007cc	L	.text                     .DWLopt306
000007cc	L	.text                     .DWLopt319
00001b33	G	.text                     _0data_to_Ascii
000007e2	L	.text                     .DWLopt320
000007f8	L	.text                     .DWLopt321
000007f9	L	.text                     .DWLopt307
0000080e	L	.text                     .DWLopt322
00000812	L	.text                     .DWLopt308
00000820	L	.text                     .DWLopt323
0000082c	L	.text                     .DWLopt309
0000082c	L	.text                     .DWLopt324
00000842	L	.text                     .DWLopt325
00000858	L	.text                     .DWLopt326
00000859	L	.text                     .DWLopt310
0000086e	L	.text                     .DWLopt327
00000872	L	.text                     .DWLopt311
00000880	L	.text                     .DWLopt328
00000886	L	.text                     .DWLopt329
00000888	L	.text                     .DWLopt330
0000088b	L	.text                     .DWLopt331
0000089f	L	.text                     .DWLopt332
000008b1	L	.text                     .DWLopt333
000008b7	L	.text                     .DWLopt334
000008b8	L	.text                     .DWLopt312
000008b8	L	.text                     .DWLopt335
000008c7	L	.text                     L00151
000008c1	L	.text                     Lcb0031
000008c1	L	.text                     .DWLopt336
000008c7	L	.text                     .DWLopt313
000008c7	L	.text                     .DWLopt337
000008dd	L	.text                     .DWLopt338
000008f0	L	.text                     .DWLopt339
00000904	L	.text                     Lcb0032
00000a4d	L	.text                     S00182
00000912	L	.text                     Lcb0033
00000080	L	.rodata                   S01086
0000094f	L	.text                     L01092
0000092d	L	.text                     Lcb0034
0000092d	L	.text                     L01235
0000092d	L	.text                     .DWLopt340
0000092e	L	.text                     L01094
0000092e	L	.text                     .DWLopt341
0000093c	L	.text                     Lcb0035
0000094c	L	.text                     L01097
0000094b	L	.text                     Lcb0036
00000954	L	.text                     S00157
00000954	L	.text                     .DWLopt342
00000959	L	.text                     S00160
00000959	L	.text                     .DWLopt343
00000961	L	.text                     .DWLopt344
00000969	L	.text                     .DWLopt345
00000975	L	.text                     Lcb0037
00000a5a	L	.text                     L00154
00000975	L	.text                     .DWLopt346
00000a37	L	.text                     Lopt000006
0000097a	L	.text                     S00163
0000097a	L	.text                     .DWLopt347
00000982	L	.text                     .DWLopt348
00000984	L	.text                     .DWLopt349
00000a24	L	.text                     Lopt000008
00000989	L	.text                     S00164
00000989	L	.text                     .DWLopt350
000009a0	L	.text                     L00165
00000998	L	.text                     Lcb0038
00000998	L	.text                     .DWLopt351
000009a0	L	.text                     .DWLopt352
000009a2	L	.text                     .DWLopt353
000009a7	L	.text                     S00167
000009a7	L	.text                     .DWLopt354
000009be	L	.text                     L00168
000009b6	L	.text                     Lcb0039
000009b6	L	.text                     .DWLopt355
000009be	L	.text                     .DWLopt356
000009c0	L	.text                     .DWLopt357
000009c5	L	.text                     S00169
000009c5	L	.text                     .DWLopt358
000009cd	L	.text                     .DWLopt359
000009cf	L	.text                     .DWLopt360
000009d4	L	.text                     S00170
000009d4	L	.text                     .DWLopt361
000009dc	L	.text                     .DWLopt362
000009de	L	.text                     .DWLopt363
000009e3	L	.text                     S00171
000009e3	L	.text                     .DWLopt364
00000a2f	L	.text                     S00179
000009e8	L	.text                     S00172
000009e8	L	.text                     .DWLopt365
000009ed	L	.text                     S00173
000009ed	L	.text                     .DWLopt366
000009fc	L	.text                     Lcb003a
000009fc	L	.text                     .DWLopt367
00000a04	L	.text                     .DWLopt368
00000a06	L	.text                     .DWLopt369
00000a0b	L	.text                     S00176
00000a0b	L	.text                     .DWLopt370
00000a13	L	.text                     .DWLopt371
00000a15	L	.text                     .DWLopt372
00000a1a	L	.text                     S00177
00000a1a	L	.text                     .DWLopt373
00000a22	L	.text                     .DWLopt374
00000a24	L	.text                     .DWLopt375
00000a24	L	.text                     .DWLopt376
00000a24	L	.text                     .DWLopt377
00000a24	L	.text                     .DWLopt378
00000a24	L	.text                     .DWLopt379
00000a24	L	.text                     .DWLopt380
00000a24	L	.text                     .DWLopt381
00000a24	L	.text                     .DWLopt382
00000a2a	L	.text                     .DWLopt383
00000a2f	L	.text                     S00178
00000a2f	L	.text                     .DWLopt384
00000a2f	L	.text                     .DWLopt385
00000a2f	L	.text                     .DWLopt386
00000a2f	L	.text                     .DWLopt387
00000a37	L	.text                     .DWLopt388
00000a37	L	.text                     .DWLopt389
00000a37	L	.text                     .DWLopt390
00000a37	L	.text                     .DWLopt391
00000a37	L	.text                     .DWLopt392
00000a39	L	.text                     .DWLopt393
00000a54	L	.text                     Lopt000007
00000a3e	L	.text                     S00180
00000a3e	L	.text                     S00181
00000a3e	L	.text                     .DWLopt394
00000a3e	L	.text                     .DWLopt395
00000a46	L	.text                     .DWLopt396
00000a46	L	.text                     .DWLopt397
00000a48	L	.text                     .DWLopt398
00000a4d	L	.text                     .DWLopt399
00000a4d	L	.text                     .DWLopt400
00000a54	L	.text                     .DWLopt401
00000a54	L	.text                     .DWLopt402
00000a54	L	.text                     .DWLopt403
00000a54	L	.text                     .DWLopt404
00000a54	L	.text                     .DWLopt405
00000a54	L	.text                     .DWLopt406
00000a54	L	.text                     .DWLopt407
00000a54	L	.text                     .DWLopt408
00000a54	L	.text                     .DWLopt409
00000a5a	L	.text                     .DWLopt410
00000a60	L	.text                     .DWLopt411
00000a66	L	.text                     .DWLopt412
00000a69	L	.text                     .DWLopt304
00000a69	L	.text                     .DWLopt413
00000a7e	L	.text                     .DWLopt414
00000a7f	L	.text                     .DWLopt305
00000a7f	L	.text                     .DWLopt415
00000a80	L	.text                     .DWLopt416
00000a8d	L	.text                     .DWLopt417
00000a9b	L	.text                     .DWLopt418
00000aa9	L	.text                     .DWLopt419
00000aac	L	.text                     .DWLopt302
00000aac	L	.text                     .DWLopt420
00000aae	L	.text                     .DWLopt300
00000aae	L	.text                     .DWLopt421
00000aaf	L	.text                     .DWLopt422
00000ab0	L	.text                     L00190
00000ab0	L	.text                     .DWLopt423
00000ab9	L	.text                     .DWLopt301
00000abc	L	.text                     .DWLopt424
00000abe	L	.text                     .DWLopt425
00000ac2	L	.text                     .DWLopt426
00000ad8	L	.text                     .DWLopt427
00000adc	L	.text                     .DWLopt303
00000aea	L	.text                     .DWLopt428
00000af2	L	.text                     .DWLopt429
00000af5	L	.text                     .LDW30
0000007c	L	.debug_MN_rsc             .LDW313
0000008d	L	.debug_MN_rsc             .LDW316
000000c2	L	.debug_MN_rsc             .LDW321
000000d3	L	.debug_MN_rsc             .LDW324
00000096	L	.debug_frame              .LDW430
0000007e	L	.debug_frame              .LDW429
00000af5	G	.text                     _SCI0_receive_int
00000af7	G	.text                     _0SCI0_receive_int
00000af7	L	.text                     .DWLopt433
00000af8	L	.text                     .DWLopt431
00000af8	L	.text                     .DWLopt434
00000af9	L	.text                     .DWLopt435
00000aff	L	.text                     .DWLopt436
00000b00	L	.text                     .DWLopt437
00000b04	L	.text                     .DWLopt432
00000b04	L	.text                     .DWLopt438
00000b06	L	.text                     .DWLopt439
00000b0a	L	.text                     .DWLopt440
00000b11	L	.text                     .DWLopt441
00000b1a	L	.text                     .DWLopt442
00000b1e	L	.text                     .DWLopt443
00000b27	L	.text                     .DWLopt444
00000b2a	L	.text                     .LDW31
000000e4	L	.debug_MN_rsc             .LDW431
000000ac	L	.debug_frame              .LDW446
0000009a	L	.debug_frame              .LDW445
00000b2a	G	.text                     _SCI0_rx_data_deal
00000b2f	G	.text                     _0SCI0_rx_data_deal
00000b2f	L	.text                     .DWLopt478
00000b49	L	.text                     Lcb003b
0000101e	L	.text                     L00202
00000b49	L	.text                     .DWLopt479
00000b5d	L	.text                     Lcb003c
00000e77	L	.text                     L00204
00000b5d	L	.text                     .DWLopt480
00000b6b	L	.text                     .DWLopt481
00000b86	L	.text                     Lcb003d
00000e2c	L	.text                     L00210
00000b9a	L	.text                     Lcb003e
00000b9a	L	.text                     .DWLopt482
00000baa	L	.text                     .DWLopt483
00000bb9	L	.text                     .DWLopt484
00000bc9	L	.text                     .DWLopt485
00000bd9	L	.text                     .DWLopt486
00000047	G	.bss                      _guc_SCI0_type_cnt
00000be0	L	.text                     .DWLopt487
00000be7	L	.text                     .DWLopt488
00000034	G	.bss                      _gss_SCI0_init_delaytimer
00000bed	L	.text                     .DWLopt489
00000bf5	L	.text                     .DWLopt490
00000bfc	L	.text                     .DWLopt491
00000040	G	.bss                      _gss_SCI0_fault_delaytimer
00000c03	L	.text                     .DWLopt492
00000c0c	L	.text                     .DWLopt493
00000c14	L	.text                     .DWLopt494
00000c1e	L	.text                     Lcb003f
00000c1b	L	.text                     .DWLopt495
00000c1e	L	.text                     .DWLopt496
00000c24	L	.text                     .DWLopt467
00000c24	L	.text                     .DWLopt497
00000c32	L	.text                     Lcb0040
00000ddc	L	.text                     L00221
00000c40	L	.text                     Lcb0041
00000c40	L	.text                     .DWLopt498
00000c46	L	.text                     .DWLopt499
00000c4c	L	.text                     .DWLopt500
00000c52	L	.text                     .DWLopt501
00000c5c	L	.text                     .DWLopt502
00000c5d	L	.text                     .DWLopt503
00000046	G	.bss                      _guc_motor_ID_error_cnt
00000c64	L	.text                     .DWLopt504
00000c6b	L	.text                     .DWLopt505
00000c71	L	.text                     .DWLopt451
00000c71	L	.text                     .DWLopt506
00000c79	L	.text                     .DWLopt507
00000c89	L	.text                     L00225
00000c83	L	.text                     .DWLopt508
00000c89	L	.text                     .DWLopt452
00000c89	L	.text                     .DWLopt509
00000044	G	.bss                      _gus_host_speed_set
00000c8f	L	.text                     .DWLopt453
00000c8f	L	.text                     .DWLopt510
00000d15	L	.text                     L00228
00000c99	L	.text                     .DWLopt511
00000ca9	L	.text                     .DWLopt512
00000cb0	L	.text                     .DWLopt513
00000004	G	.bss                      _gus_host_setfreq
00000cb7	L	.text                     .DWLopt514
00000cbd	L	.text                     .DWLopt515
00000cc3	L	.text                     .DWLopt516
00000cc9	L	.text                     .DWLopt517
00000d5a	L	.text                     L00237
00000ce3	L	.text                     .DWLopt518
00000042	G	.bss                      _gss_trip_clear_cnt
00000cf0	L	.text                     .DWLopt519
00000cfa	L	.text                     .DWLopt520
00000d09	L	.text                     .DWLopt521
00000d10	L	.text                     .DWLopt522
00000d15	L	.text                     .DWLopt523
00000d1b	L	.text                     .DWLopt524
00000d21	L	.text                     .DWLopt525
00000d22	L	.text                     .DWLopt526
00000d24	L	.text                     .DWLopt527
00000d31	L	.text                     .DWLopt528
00000d37	L	.text                     .DWLopt529
00000d3d	L	.text                     .DWLopt530
00000d46	L	.text                     .DWLopt531
00000d54	L	.text                     .DWLopt532
00000d5a	L	.text                     .DWLopt533
00000d60	L	.text                     .DWLopt468
00000d60	L	.text                     .DWLopt534
00000d66	L	.text                     .DWLopt535
00000d69	L	.text                     .DWLopt536
00000d87	L	.text                     L00240
00000d73	L	.text                     .DWLopt537
00000d76	L	.text                     .DWLopt469
00000d82	L	.text                     L00241
0000157e	L	.text                     Lopt000010
0000158d	L	.text                     L00325
00000d87	L	.text                     .DWLopt538
00000d99	L	.text                     Lcb004a
00000d96	L	.text                     .DWLopt539
00000d99	L	.text                     .DWLopt540
00000d9a	L	.text                     .DWLopt470
00000db8	L	.text                     L00245
000015e4	L	.text                     Lopt000012
00000db8	L	.text                     .DWLopt541
00000dc4	L	.text                     Lcb004d
00000dc1	L	.text                     .DWLopt542
00000dc4	L	.text                     .DWLopt543
00000dd7	L	.text                     Lcb004e
00000dd4	L	.text                     .DWLopt544
00000ddc	L	.text                     .DWLopt545
00000de9	L	.text                     .DWLopt546
00000df6	L	.text                     Lcb004f
00000df3	L	.text                     .DWLopt547
00000df6	L	.text                     .DWLopt548
00000dfd	L	.text                     .DWLopt549
00000e12	L	.text                     Lcb0050
00000e0f	L	.text                     .DWLopt550
00000e12	L	.text                     .DWLopt551
00000e20	L	.text                     .DWLopt552
00000e29	L	.text                     .DWLopt553
00000e2c	L	.text                     .DWLopt554
00000e41	L	.text                     Lcb0051
00000e3e	L	.text                     .DWLopt555
00000e41	L	.text                     .DWLopt556
00000e4e	L	.text                     .DWLopt557
00000e5b	L	.text                     Lcb0052
00000e58	L	.text                     .DWLopt558
00000e5b	L	.text                     .DWLopt559
00000e69	L	.text                     .DWLopt560
00000e70	L	.text                     .DWLopt561
00001646	L	.text                     Lopt000014
00000e77	L	.text                     .DWLopt562
00000e83	L	.text                     Lcb0053
00000e80	L	.text                     .DWLopt563
00000e83	L	.text                     .DWLopt564
00000e89	L	.text                     .DWLopt471
00000e89	L	.text                     .DWLopt565
00000e8f	L	.text                     .DWLopt566
00000e96	L	.text                     .DWLopt567
00000eac	L	.text                     Lcb0054
00000ea9	L	.text                     .DWLopt568
00000eac	L	.text                     .DWLopt569
00000eb2	L	.text                     .DWLopt570
00000eb8	L	.text                     .DWLopt571
00000ec2	L	.text                     .DWLopt572
00000ec8	L	.text                     .DWLopt573
00000ece	L	.text                     .DWLopt574
00000ed7	L	.text                     .DWLopt575
00000edd	L	.text                     .DWLopt576
00000ede	L	.text                     .DWLopt577
00000ee8	L	.text                     .DWLopt578
00000ef8	L	.text                     .DWLopt579
00000eff	L	.text                     .DWLopt580
00000f06	L	.text                     .DWLopt581
00000f0c	L	.text                     .DWLopt582
00000f14	L	.text                     .DWLopt583
00000f1b	L	.text                     .DWLopt584
00000f22	L	.text                     .DWLopt585
00000f28	L	.text                     .DWLopt586
00000f30	L	.text                     .DWLopt587
00000f36	L	.text                     .DWLopt454
00000f36	L	.text                     .DWLopt588
00000f3b	L	.text                     .DWLopt589
00000f4b	L	.text                     L00259
00000f45	L	.text                     .DWLopt590
00000f4b	L	.text                     .DWLopt455
00000f4b	L	.text                     .DWLopt591
00000f51	L	.text                     .DWLopt456
00000f51	L	.text                     .DWLopt592
00000fd7	L	.text                     L00260
00000f5b	L	.text                     .DWLopt593
00000f6b	L	.text                     .DWLopt594
00000f72	L	.text                     .DWLopt595
00000f78	L	.text                     .DWLopt596
00000f7e	L	.text                     .DWLopt597
00000f84	L	.text                     .DWLopt598
00000f97	L	.text                     Lcb0057
00000f94	L	.text                     .DWLopt599
00000f97	L	.text                     .DWLopt600
00000fa4	L	.text                     Lcb0058
00000fa1	L	.text                     .DWLopt601
00000fa4	L	.text                     .DWLopt602
00000fb1	L	.text                     .DWLopt603
00000fbe	L	.text                     Lcb0059
00000fbb	L	.text                     .DWLopt604
00000fbe	L	.text                     .DWLopt605
00000fcd	L	.text                     .DWLopt606
00000fd4	L	.text                     .DWLopt607
00000fd7	L	.text                     .DWLopt608
00000fdd	L	.text                     .DWLopt609
00000fe3	L	.text                     .DWLopt610
00000fe4	L	.text                     .DWLopt611
00000fe7	L	.text                     .DWLopt612
00000ff3	L	.text                     .DWLopt613
00000ff9	L	.text                     .DWLopt614
00000fff	L	.text                     .DWLopt615
00001008	L	.text                     .DWLopt616
00001019	L	.text                     Lcb005a
00001016	L	.text                     .DWLopt617
000015fb	L	.text                     Lopt000013
0000101e	L	.text                     .DWLopt618
0000102c	L	.text                     Lcb005b
0000115b	L	.text                     L00266
0000102c	L	.text                     .DWLopt619
0000102f	L	.text                     .DWLopt476
0000102f	L	.text                     .DWLopt620
00001031	L	.text                     .DWLopt461
00001031	L	.text                     .DWLopt621
00001032	L	.text                     .DWLopt622
00001033	L	.text                     .DWLopt623
00001036	L	.text                     .DWLopt462
00001039	L	.text                     .DWLopt624
0000103b	L	.text                     .DWLopt625
0000103f	L	.text                     .DWLopt626
00001b01	G	.text                     _0Ascii_to_data
0000104d	L	.text                     .DWLopt465
0000104d	L	.text                     .DWLopt627
0000105a	L	.text                     .DWLopt628
00001061	L	.text                     .DWLopt477
00001061	L	.text                     .DWLopt466
0000106d	L	.text                     Lcb005c
00001106	L	.text                     L00275
0000106d	L	.text                     .DWLopt629
000010aa	L	.text                     L00276
0000107f	L	.text                     .DWLopt630
0000108d	L	.text                     .DWLopt631
00001094	L	.text                     .DWLopt632
000010a4	L	.text                     .DWLopt633
000010aa	L	.text                     .DWLopt634
000010b1	L	.text                     .DWLopt635
000010b7	L	.text                     .DWLopt636
000010c6	L	.text                     .DWLopt637
000010ce	L	.text                     .DWLopt638
000010de	L	.text                     .DWLopt639
000010e5	L	.text                     .DWLopt640
000010f5	L	.text                     .DWLopt641
000010fc	L	.text                     .DWLopt642
00001654	G	.text                     _0Renesas_rx_data_deal
00001103	L	.text                     .DWLopt643
00001106	L	.text                     .DWLopt644
0000111b	L	.text                     Lcb005e
00001118	L	.text                     .DWLopt645
0000111b	L	.text                     .DWLopt646
00001128	L	.text                     .DWLopt647
00001135	L	.text                     Lcb005f
00001132	L	.text                     .DWLopt648
00001135	L	.text                     .DWLopt649
0000113c	L	.text                     .DWLopt650
00001142	L	.text                     .DWLopt651
0000114e	L	.text                     .DWLopt652
00001154	L	.text                     .DWLopt653
0000115b	L	.text                     .DWLopt654
0000116e	L	.text                     Lcb0060
0000116b	L	.text                     .DWLopt655
0000116e	L	.text                     .DWLopt656
00001182	L	.text                     .DWLopt657
0000119d	L	.text                     Lcb0061
00001606	L	.text                     L00286
000011b1	L	.text                     Lcb0062
000011b1	L	.text                     .DWLopt658
000011c1	L	.text                     .DWLopt659
000011d0	L	.text                     .DWLopt660
000011e0	L	.text                     .DWLopt661
000011f0	L	.text                     .DWLopt662
000011f7	L	.text                     .DWLopt663
000011fe	L	.text                     .DWLopt664
00001204	L	.text                     .DWLopt665
0000120c	L	.text                     .DWLopt666
00001213	L	.text                     .DWLopt667
0000121a	L	.text                     .DWLopt668
00001222	L	.text                     .DWLopt669
00001235	L	.text                     Lcb0063
00001232	L	.text                     .DWLopt670
00001235	L	.text                     .DWLopt671
00001244	L	.text                     Lcb0064
0000142b	L	.text                     L00288
00001244	L	.text                     .DWLopt672
00001250	L	.text                     .DWLopt673
00001264	L	.text                     Lcb0065
00001345	L	.text                     L00289
00001272	L	.text                     Lcb0066
00001272	L	.text                     .DWLopt674
00001282	L	.text                     .DWLopt675
00001289	L	.text                     .DWLopt676
0000129d	L	.text                     Lcb0067
0000138c	L	.text                     L00303
0000129d	L	.text                     .DWLopt677
000012a4	L	.text                     .DWLopt678
000012b0	L	.text                     .DWLopt679
000012c1	L	.text                     .DWLopt680
000012c9	L	.text                     .DWLopt681
000012d4	L	.text                     .DWLopt682
000012d9	L	.text                     .DWLopt683
000012da	L	.text                     .DWLopt463
000012da	L	.text                     .DWLopt684
000012db	L	.text                     L00297
000012db	L	.text                     .DWLopt685
000012e3	L	.text                     .DWLopt464
0000130a	L	.text                     .DWLopt686
00001315	L	.text                     .DWLopt687
00001316	L	.text                     .DWLopt688
0000131d	L	.text                     .DWLopt689
00001322	L	.text                     .DWLopt690
0000132a	L	.text                     .DWLopt691
0000132f	L	.text                     .DWLopt692
00001331	L	.text                     .DWLopt693
00001336	L	.text                     .DWLopt694
0000133c	L	.text                     .DWLopt695
00001340	L	.text                     .DWLopt696
00001345	L	.text                     .DWLopt697
00001352	L	.text                     .DWLopt698
0000135c	L	.text                     .DWLopt699
00001363	L	.text                     .DWLopt700
00001375	L	.text                     .DWLopt701
00001383	L	.text                     .DWLopt702
0000138c	L	.text                     .DWLopt703
00001392	L	.text                     .DWLopt704
00001398	L	.text                     .DWLopt705
0000139b	L	.text                     .DWLopt457
0000139b	L	.text                     .DWLopt706
000013b5	L	.text                     .DWLopt707
000013c4	L	.text                     .DWLopt708
000013ca	L	.text                     .DWLopt458
000013ca	L	.text                     .DWLopt709
000013d0	L	.text                     .DWLopt710
000013d1	L	.text                     .DWLopt711
000013d2	L	.text                     .DWLopt712
000013d8	L	.text                     .DWLopt713
0000140a	L	.text                     L00314
000013e6	L	.text                     .DWLopt714
000013f5	L	.text                     .DWLopt715
000013fc	L	.text                     .DWLopt716
00001404	L	.text                     .DWLopt717
0000140a	L	.text                     .DWLopt718
0000141f	L	.text                     .DWLopt719
0000142b	L	.text                     .DWLopt720
00001431	L	.text                     .DWLopt459
00001431	L	.text                     .DWLopt721
00001437	L	.text                     .DWLopt722
0000143d	L	.text                     .DWLopt723
00001445	L	.text                     .DWLopt724
00001456	L	.text                     L00316
00001450	L	.text                     .DWLopt725
00001456	L	.text                     .DWLopt460
00001456	L	.text                     .DWLopt726
0000145c	L	.text                     .DWLopt727
00001478	L	.text                     L00317
0000146a	L	.text                     .DWLopt728
00001482	L	.text                     Lopt000015
00001478	L	.text                     .DWLopt729
00001482	L	.text                     .DWLopt730
00001482	L	.text                     .DWLopt731
00001488	L	.text                     .DWLopt732
000014fa	L	.text                     L00320
000014b5	L	.text                     .DWLopt733
000014bb	L	.text                     .DWLopt734
000014bc	L	.text                     .DWLopt735
000014bd	L	.text                     .DWLopt736
000014bf	L	.text                     .DWLopt737
000014cc	L	.text                     .DWLopt738
000014d2	L	.text                     .DWLopt739
000014d8	L	.text                     .DWLopt740
000014e1	L	.text                     .DWLopt741
0000152a	L	.text                     L00322
000014ef	L	.text                     .DWLopt742
000014f5	L	.text                     .DWLopt743
000014fa	L	.text                     .DWLopt744
0000150a	L	.text                     .DWLopt745
00001511	L	.text                     .DWLopt746
00001518	L	.text                     .DWLopt747
0000151e	L	.text                     .DWLopt748
00001524	L	.text                     .DWLopt749
0000152a	L	.text                     .DWLopt750
0000155b	L	.text                     L00323
00001552	L	.text                     .DWLopt751
0000155b	L	.text                     .DWLopt752
00001561	L	.text                     .DWLopt472
00001561	L	.text                     .DWLopt753
00001567	L	.text                     .DWLopt754
0000156a	L	.text                     .DWLopt755
0000159f	L	.text                     L00324
00001574	L	.text                     .DWLopt756
00001577	L	.text                     .DWLopt473
0000157e	L	.text                     .DWLopt757
0000157e	L	.text                     .DWLopt758
00001596	L	.text                     Lopt000011
0000158d	L	.text                     .DWLopt759
0000158d	L	.text                     .DWLopt760
00001596	L	.text                     .DWLopt474
00001596	L	.text                     .DWLopt761
00001596	L	.text                     .DWLopt762
00001596	L	.text                     .DWLopt763
00001596	L	.text                     .DWLopt764
0000159c	L	.text                     .DWLopt765
0000159f	L	.text                     .DWLopt766
000015b1	L	.text                     Lcb007b
000015ae	L	.text                     .DWLopt767
000015b1	L	.text                     .DWLopt768
000015b2	L	.text                     .DWLopt475
000015cb	L	.text                     L00329
000015cb	L	.text                     .DWLopt769
0000164c	L	.text                     L00265
000015e4	L	.text                     .DWLopt770
000015e4	L	.text                     .DWLopt771
000015e4	L	.text                     .DWLopt772
000015e4	L	.text                     .DWLopt773
000015f4	L	.text                     .DWLopt774
000015f4	L	.text                     .DWLopt775
000015f4	L	.text                     .DWLopt776
000015f4	L	.text                     .DWLopt777
000015fb	L	.text                     .DWLopt778
000015fb	L	.text                     .DWLopt779
000015fb	L	.text                     .DWLopt780
000015fb	L	.text                     .DWLopt781
000015fb	L	.text                     .DWLopt782
00001601	L	.text                     .DWLopt783
00001606	L	.text                     .DWLopt784
00001618	L	.text                     .DWLopt785
00001625	L	.text                     .DWLopt786
0000162f	L	.text                     .DWLopt787
0000163d	L	.text                     .DWLopt788
00001644	L	.text                     .DWLopt789
00001646	L	.text                     .DWLopt790
00001646	L	.text                     .DWLopt791
00001646	L	.text                     .DWLopt792
0000164c	L	.text                     .DWLopt793
0000164f	L	.text                     .LDW32
000000f5	L	.debug_MN_rsc             .LDW447
00000112	L	.debug_MN_rsc             .LDW450
00000159	L	.debug_MN_rsc             .LDW459
0000019a	L	.debug_MN_rsc             .LDW486
000000c8	L	.debug_frame              .LDW755
000000b0	L	.debug_frame              .LDW754
0000164f	G	.text                     _Renesas_rx_data_deal
00001654	L	.text                     .DWLopt802
0000165c	L	.text                     .DWLopt803
0000166c	L	.text                     .DWLopt804
00001674	L	.text                     .DWLopt805
00001681	L	.text                     .DWLopt806
00001682	L	.text                     .DWLopt807
0000168f	L	.text                     .DWLopt808
00001694	L	.text                     .DWLopt801
00001694	L	.text                     .DWLopt809
00001695	L	.text                     .DWLopt810
000016a2	L	.text                     .DWLopt811
000016a5	L	.text                     .DWLopt799
000016a5	L	.text                     .DWLopt812
000016a6	L	.text                     .DWLopt813
000016b3	L	.text                     .DWLopt814
000016b9	L	.text                     .DWLopt815
000016bd	L	.text                     .DWLopt797
000016bd	L	.text                     .DWLopt816
000016c0	L	.text                     .DWLopt798
000016c6	L	.text                     .DWLopt800
000016c6	L	.text                     .DWLopt794
000016c6	L	.text                     .DWLopt817
000016d7	L	.text                     L00350
000016d1	L	.text                     .DWLopt818
000016d7	L	.text                     .DWLopt795
000016d7	L	.text                     .DWLopt819
000016dd	L	.text                     .DWLopt796
000016dd	L	.text                     .DWLopt820
0000176e	L	.text                     L00353
000016ec	L	.text                     .DWLopt821
000016fc	L	.text                     .DWLopt822
00001703	L	.text                     .DWLopt823
0000170a	L	.text                     .DWLopt824
00001710	L	.text                     .DWLopt825
00001716	L	.text                     .DWLopt826
0000171c	L	.text                     .DWLopt827
0000172f	L	.text                     Lcb0084
0000172c	L	.text                     .DWLopt828
0000172f	L	.text                     .DWLopt829
0000173c	L	.text                     Lcb0085
00001739	L	.text                     .DWLopt830
0000173c	L	.text                     .DWLopt831
00001749	L	.text                     .DWLopt832
000017b3	L	.text                     L00363
00001753	L	.text                     .DWLopt833
00001762	L	.text                     .DWLopt834
00001769	L	.text                     .DWLopt835
0000176e	L	.text                     .DWLopt836
00001774	L	.text                     .DWLopt837
0000177a	L	.text                     .DWLopt838
0000177b	L	.text                     .DWLopt839
0000177d	L	.text                     .DWLopt840
0000178a	L	.text                     .DWLopt841
00001790	L	.text                     .DWLopt842
00001796	L	.text                     .DWLopt843
0000179f	L	.text                     .DWLopt844
000017ad	L	.text                     .DWLopt845
000017b3	L	.text                     .DWLopt846
000017b6	L	.text                     .LDW33
000001ab	L	.debug_MN_rsc             .LDW756
000001b6	L	.debug_MN_rsc             .LDW759
000001cd	L	.debug_MN_rsc             .LDW764
000001de	L	.debug_MN_rsc             .LDW767
000000e2	L	.debug_frame              .LDW805
000000cc	L	.debug_frame              .LDW804
000017b6	G	.text                     _SCI0_tx_delaytime
000017b6	G	.text                     _0SCI0_tx_delaytime
000017b6	L	.text                     .DWLopt847
000017f8	L	.text                     L00367
000017c6	L	.text                     .DWLopt848
000017d4	L	.text                     .DWLopt849
000017de	L	.text                     .DWLopt850
000017e4	L	.text                     .DWLopt851
000017f1	L	.text                     .DWLopt852
000017f8	L	.text                     .DWLopt853
000017fb	L	.text                     .LDW34
000000f6	L	.debug_frame              .LDW814
000000e6	L	.debug_frame              .LDW813
000017fb	G	.text                     _SCI0_rx_delaytime
000017fb	G	.text                     _0SCI0_rx_delaytime
000017fb	L	.text                     .DWLopt854
0000183d	L	.text                     L00372
0000180b	L	.text                     .DWLopt855
00001819	L	.text                     .DWLopt856
00001823	L	.text                     .DWLopt857
00001829	L	.text                     .DWLopt858
00001836	L	.text                     .DWLopt859
0000183d	L	.text                     .DWLopt860
00001840	L	.text                     .LDW35
0000010a	L	.debug_frame              .LDW823
000000fa	L	.debug_frame              .LDW822
00001840	G	.text                     _SCI0_rx_end_delaytime
00001840	G	.text                     _0SCI0_rx_end_delaytime
00001840	L	.text                     .DWLopt861
00001853	L	.text                     Lcb008c
00001850	L	.text                     .DWLopt862
00001853	L	.text                     .DWLopt863
0000003e	G	.bss                      _gss_SCI0_rx_end_delaytimer
00001860	L	.text                     .DWLopt864
0000186d	L	.text                     Lcb008d
0000186a	L	.text                     .DWLopt865
0000186d	L	.text                     .DWLopt866
00001874	L	.text                     .DWLopt867
00001884	L	.text                     .DWLopt868
0000188e	L	.text                     .DWLopt869
0000189d	L	.text                     .DWLopt870
000018a5	L	.text                     .DWLopt871
000018eb	L	.text                     L00377
000018b7	L	.text                     .DWLopt872
000018c4	L	.text                     .DWLopt873
000018ce	L	.text                     .DWLopt874
000018dc	L	.text                     .DWLopt875
000018e3	L	.text                     .DWLopt876
000018eb	L	.text                     .DWLopt877
000018ee	L	.text                     .LDW36
0000011e	L	.debug_frame              .LDW840
0000010e	L	.debug_frame              .LDW839
000018ee	G	.text                     _SCI0_fault_delaytime
000018f1	G	.text                     _0SCI0_fault_delaytime
000018f1	L	.text                     .DWLopt878
00001947	L	.text                     L00387
00001911	L	.text                     .DWLopt879
0000191e	L	.text                     .DWLopt880
00001928	L	.text                     .DWLopt881
0000192f	L	.text                     .DWLopt882
0000193e	L	.text                     .DWLopt883
00001947	L	.text                     .DWLopt884
0000194a	L	.text                     .LDW37
00000132	L	.debug_frame              .LDW849
00000122	L	.debug_frame              .LDW848
0000194a	G	.text                     _SCI0_tx_int
0000194a	G	.text                     _0SCI0_tx_int
0000194a	L	.text                     .DWLopt885
000019c9	L	.text                     L00395
0000195a	L	.text                     .DWLopt886
00001991	L	.text                     L00397
0000196e	L	.text                     .DWLopt887
00001991	L	.text                     .DWLopt888
00001998	L	.text                     .DWLopt889
000019a8	L	.text                     .DWLopt890
000019b2	L	.text                     .DWLopt891
000019c1	L	.text                     .DWLopt892
000019c9	L	.text                     .DWLopt893
000019cc	L	.text                     .LDW38
00000146	L	.debug_frame              .LDW860
00000136	L	.debug_frame              .LDW859
000019cc	G	.text                     _SCI0_rx_int
000019cc	G	.text                     _0SCI0_rx_int
000019cc	L	.text                     .DWLopt897
000019d3	L	.text                     .DWLopt898
000019d6	L	.text                     .DWLopt894
000019d6	L	.text                     .DWLopt899
00001a0c	L	.text                     L00549
000019fa	L	.text                     L00551
00001a17	L	.text                     L00548
00001a39	L	.text                     L00406
00001a17	L	.text                     .DWLopt900
00001a1d	L	.text                     .DWLopt901
00001a23	L	.text                     .DWLopt895
00001a23	L	.text                     .DWLopt902
00001a2c	L	.text                     .DWLopt903
00000039	G	.bss                      _guc_SCI0_rx_point
00001aa4	L	.text                     L00410
00001a39	L	.text                     .DWLopt904
00001a49	L	.text                     .DWLopt905
00001a57	L	.text                     .DWLopt896
00001a64	L	.text                     .DWLopt906
00001a78	L	.text                     .DWLopt907
00001a82	L	.text                     .DWLopt908
00001a89	L	.text                     .DWLopt909
00001a8f	L	.text                     .DWLopt910
00001a9c	L	.text                     .DWLopt911
00001aa4	L	.text                     .DWLopt912
00001aa7	L	.text                     .LDW39
000001ef	L	.debug_MN_rsc             .LDW861
0000015a	L	.debug_frame              .LDW882
0000014a	L	.debug_frame              .LDW881
00001aa7	G	.text                     _CRC16
00001aa9	L	.text                     .DWLopt913
00001aa9	L	.text                     .DWLopt916
00001aa9	L	.text                     .DWLopt926
00001aaa	L	.text                     .DWLopt924
00001aaa	L	.text                     .DWLopt917
00001aaa	L	.text                     .DWLopt927
00001ab0	L	.text                     .DWLopt919
00001ab0	L	.text                     .DWLopt928
00001ab1	L	.text                     .DWLopt925
00001afc	L	.text                     L00419
00001aba	L	.text                     .DWLopt929
00001afd	L	.text                     L00428
00001acc	L	.text                     L00422
00001acc	L	.text                     .DWLopt930
00001ace	L	.text                     .DWLopt918
00001ace	L	.text                     .DWLopt914
00001ad1	L	.text                     .DWLopt931
00001ad2	L	.text                     .DWLopt915
00001ad2	L	.text                     .DWLopt932
00001ad3	L	.text                     .DWLopt933
00001ad4	L	.text                     .DWLopt934
00001ad5	L	.text                     .DWLopt920
00001ad6	L	.text                     .DWLopt935
00001ade	L	.text                     .DWLopt936
00001aec	L	.text                     L00427
00001ae8	L	.text                     .DWLopt937
00001aec	L	.text                     .DWLopt921
00001aec	L	.text                     .DWLopt938
00001af1	L	.text                     .DWLopt939
00001af7	L	.text                     .DWLopt940
00001afc	L	.text                     .DWLopt941
00001afd	L	.text                     .DWLopt922
00001afd	L	.text                     .DWLopt942
00001afe	L	.text                     .DWLopt923
00001afe	L	.text                     .DWLopt943
00001b01	L	.text                     .LDW40
00000206	L	.debug_MN_rsc             .LDW883
00000229	L	.debug_MN_rsc             .LDW890
00000246	L	.debug_MN_rsc             .LDW893
00000172	L	.debug_frame              .LDW919
0000015e	L	.debug_frame              .LDW918
00001b01	G	.text                     _Ascii_to_data
00001b01	L	.text                     .DWLopt944
00001b01	L	.text                     .DWLopt949
00001b02	L	.text                     .DWLopt945
00001b1b	L	.text                     L00433
00001b14	L	.text                     .DWLopt950
00001b16	L	.text                     .DWLopt946
00001b2f	L	.text                     L00435
00001b1b	L	.text                     .DWLopt951
00001b2d	L	.text                     .DWLopt952
00001b2f	L	.text                     .DWLopt947
00001b2f	L	.text                     .DWLopt953
00001b30	L	.text                     .DWLopt948
00001b30	L	.text                     .DWLopt954
00001b33	L	.text                     .LDW42
00000263	L	.debug_MN_rsc             .LDW920
0000027a	L	.debug_MN_rsc             .LDW925
00000186	L	.debug_frame              .LDW937
00000176	L	.debug_frame              .LDW936
00001b33	G	.text                     _data_to_Ascii
00001b33	L	.text                     .DWLopt955
00001b33	L	.text                     .DWLopt960
00001b34	L	.text                     .DWLopt956
00001b4d	L	.text                     L00441
00001b46	L	.text                     .DWLopt961
00001b48	L	.text                     .DWLopt957
00001b61	L	.text                     L00443
00001b4d	L	.text                     .DWLopt962
00001b5f	L	.text                     .DWLopt963
00001b61	L	.text                     .DWLopt958
00001b61	L	.text                     .DWLopt964
00001b62	L	.text                     .DWLopt959
00001b62	L	.text                     .DWLopt965
00001b65	L	.text                     .LDW43
0000028b	L	.debug_MN_rsc             .LDW938
000002a2	L	.debug_MN_rsc             .LDW943
0000019a	L	.debug_frame              .LDW955
0000018a	L	.debug_frame              .LDW954
00000048	G	.bss                      _gus_host_test
00001b65	L	.text                     .LPC_END
00000000	L	.debug_abbrev             .LAB_TOP
00000000	L	.debug_info               .LI_TOP
00000cd1	L	.debug_info               .LI_E
00000004	L	.debug_info               .LI_B
00000000	L	.debug_line               .LLN_TOP
0000009c	L	.debug_info               .LDW10
000000a7	L	.debug_info               .LDW9
000000b1	L	.debug_info               .LDW8
000000bf	L	.debug_info               .LDW7
000000c8	L	.debug_info               .LDW6
000000d2	L	.debug_info               .LDW5
000000db	L	.debug_info               .LDW41
000000e0	L	.debug_info               .LDW25
000000ea	L	.debug_info               .LDW4
000000f8	L	.debug_info               .LDW3
00000101	L	.debug_info               .LDW2
0000010b	L	.debug_info               .LDW1
000001a8	L	.debug_info               .LDW11
000001c4	L	.debug_info               .LDW12
000001e0	L	.debug_info               .LDW13
00000230	L	.debug_info               .LDW14
0000024c	L	.debug_info               .LDW15
0000027b	L	.debug_info               .LDW16
00000297	L	.debug_info               .LDW17
000002c6	L	.debug_info               .LDW18
0000032c	L	.debug_info               .LDW19
00000348	L	.debug_info               .LDW20
00000364	L	.debug_info               .LDW21
000003ac	L	.debug_info               .LDW22
000004b5	L	.debug_info               .LDW23
000004e2	L	.debug_info               .LDW24
00001dd9	L	.debug_line               .LLN_E
00000004	L	.debug_line               .LLN_B
0000002e	L	.debug_line               .LLN_P_E
0000000a	L	.debug_line               .LLN_P_B
00000150	L	.debug_aranges            .LAR_E
00000004	L	.debug_aranges            .LAR_B
