                                                OP00.lst	Page 1
***   PanaX Series MN103S/MN103L Cross Assembler   ***
Loc       Object            Line        Source

                              1  		NOTATION	CLANG
                              2  		FILE	"panel_comm.c"
                              3  		IDENT	"cc: MN103S Windows V5.4R1 panel_comm.c"
                              4  		IDENT	"-O -fenable-asm -fchar-bfield -flong-bfield -fc9x-comment -mmulq -mdivs -fenable-longlong -ffile-sjis -ffile-ascii"
                              5  	;;BGNFILE code\panel_comm.c
                              6  	.text			SECTION	"ax",PROGBITS,PUBLIC
                              7  	.rodata			SECTION	"a",PROGBITS,PUBLIC
                              8  		ALIGN	4
                              9  	.MN.data		SECTION	"aw",NOBITS,PUBLIC
                              10  		ALIGN	4
                              11  	.MN.romdata		SECTION	"a",PROGBITS,PUBLIC
                              12  		ALIGN	4
                              13  	.MN.romdataend		SECTION	"a",NOBITS,PUBLIC
                              14  		ALIGN	4
                              15  	.bss			SECTION	"aw",NOBITS,PUBLIC
                              16  		ALIGN	4
                              17  	.MN.bssend		SECTION	"aw",NOBITS,PUBLIC
                              18  		ALIGN	4
                              19  	.debug_info		SECTION	"n",PROGBITS,PUBLIC
                              20  	.debug_abbrev		SECTION	"n",PROGBITS,PUBLIC
                              21  	.debug_MN_rsc		SECTION	"n",PROGBITS,PUBLIC
                              22  	.debug_line		SECTION	"n",PROGBITS,PUBLIC
                              23  	.debug_frame		SECTION	"n",PROGBITS,PUBLIC
                              24  	.debug_aranges		SECTION	"n",PROGBITS,PUBLIC
                              25  	.debug_frame		SECTION
                              26  	;; Common Information Entry(CIE)
00000000                      27  	.LFR_TOP
00000000  00000000          + 28  		DD	.LFR_C_E-.LFR_C_B	;; length
00000004                      29  	.LFR_C_B
00000004  FFFFFFFF            30  		DD	0xffffffff	;; CIE_id
00000008  01                  31  		DC	0x1	;; version
00000009  00                  32  		DC	0x0	;; augmentation
0000000a  01                  33  		DC	0x1	;; code_alignment_factor
0000000b  7C                  34  		DC	0x7c	;; data_alignment_factor
0000000c  0A                  35  		DC	0xa	;; return_address_register
                              36  		;; initial_instructions
0000000d  0C0900              37  		DC	0xc,0x9,0x0	;; DW_CFA_def_cfa(SP,0)
00000010  8A00                38  		DC	0x8a,0x0	;; DW_CFA_offset(RET,0)
00000012  0700                39  		DC	0x7,0x0	;; DW_CFA_undefined(D0)
00000014  0701                40  		DC	0x7,0x1	;; DW_CFA_undefined(D1)
00000016  0802                41  		DC	0x8,0x2	;; DW_CFA_same_value(D2)
00000018  0803                42  		DC	0x8,0x3	;; DW_CFA_same_value(D3)
0000001a  0704                43  		DC	0x7,0x4	;; DW_CFA_undefined(A0)
0000001c  0705                44  		DC	0x7,0x5	;; DW_CFA_undefined(A1)
0000001e  0806                45  		DC	0x8,0x6	;; DW_CFA_same_value(A2)
00000020  0807                46  		DC	0x8,0x7	;; DW_CFA_same_value(A3)
00000022  0809                47  		DC	0x8,0x9	;; DW_CFA_same_value(SP)
00000024                      48  	.LFR_C_E
                              49  	;; End of Common Information Entry
                              50  	.text		SECTION
00000000                      51  	.LPC_TOP
                              52  		GLOBAL	_flg_ctrl
                              53  		GLOBAL	_flg_theta
                              54  		GLOBAL	_flg_SCI1
                              55  		GLOBAL	_EEPROM_InitData
                              56  		GLOBAL	_ram_para
                              57  		GLOBAL	_get_eeppara_limit
                              58  		GLOBAL	_0get_eeppara_limit
                              59  		GLOBAL	_init_all_para
                              60  		GLOBAL	_0init_all_para
                              61  		GLOBAL	_clear_trip_cause
                              62  		GLOBAL	_0clear_trip_cause
                              63  		GLOBAL	_writeword_to_eeprom
                              64  		GLOBAL	_0writeword_to_eeprom
                              65  		GLOBAL	_gus_Iout_for_disp
                              66  		GLOBAL	_gus_Udc_for_disp
                              67  		GLOBAL	_gss_Tm
                              68  		GLOBAL	_gus_freq_real
                              69  		GLOBAL	_gus_MAX_setfreq
                              70  		GLOBAL	_gus_Uout_real
                              71  		GLOBAL	_flg_fault
                              72  		GLOBAL	_guc_trip_code
                              73  		GLOBAL	_guc_lamp_trip_code
                              74  		GLOBAL	_guc_state_code
                              75  		GLOBAL	_gus_trip_release_cnt
                              76  		GLOBAL	_gss_stop_space_delaytimer
                              77  		GLOBAL	_gus_phase_adv_degree
                              78  	;;FUNC S _SCI1_configure
                              79  	.text		SECTION
                              80  		GLOBAL	_SCI1_configure
                              81  		GLOBAL	_0SCI1_configure
00000000                      82  	_SCI1_configure
                              83  	;;PROLOG 0x4
00000000  F8FEFC              84  		add	-4,SP
                              85  	_0SCI1_configure		FUNCINFO _SCI1_configure,4,[]
                              86  	;;LINE 136, 1, 1
00000003                      87  	.DWLopt1
00000003  2C0050              88  		mov	20480,D0
00000006  036889              89  		movhu	D0,(35176)
                              90  	;;LINE 150, 1, 1
00000009                      91  	.DWLopt2
00000009  2460A1              92  		mov	41312,A0
0000000c  3460A1              93  		movbu	(41312),D0
0000000f  F8E0F3              94  		and	243,D0
00000012  F050                95  		movbu	D0,(A0)
                              96  	;;LINE 151, 1, 1
00000014                      97  	.DWLopt3
00000014  3460A1              98  		movbu	(41312),D0
00000017  F8E404              99  		or	4,D0
0000001a  F050                100  		movbu	D0,(A0)
                              101  	;;LINE 168, 1, 1
0000001c                      102  	.DWLopt4
0000001c  8008                103  		mov	8,D0
0000001e  0225A1              104  		movbu	D0,(41253)
                              105  	;;LINE 182, 1, 1
00000021                      106  	.DWLopt5
00000021  8018                107  		mov	24,D0
00000023  0220A1              108  		movbu	D0,(41248)
                              109  	;;LINE 198, 1, 1
00000026                      110  	.DWLopt6
00000026  803D                111  		mov	61,D0
00000028  0221A1              112  		movbu	D0,(41249)
                              113  	;;LINE 214, 1, 1
0000002b                      114  	.DWLopt7
0000002b  2CB000              115  		mov	176,D0
0000002e  0224A1              116  		movbu	D0,(41252)
                              117  	;;LINE 242, 1, 1
00000031                      118  	.DWLopt8
00000031  380C89              119  		movhu	(35084),D0
00000034  FAE0FFFD            120  		and	65023,D0
00000038  030C89              121  		movhu	D0,(35084)
                              122  	;;LINE 244, 1, 1
0000003b                      123  	.DWLopt9
0000003b  2401A2              124  		mov	41473,A0
0000003e  3401A2              125  		movbu	(41473),D0
00000041  F8E07F              126  		and	127,D0
00000044  F050                127  		movbu	D0,(A0)
                              128  	;;LINE 254, 1, 1
00000046                      129  	.DWLopt10
00000046  2C8000              130  		mov	128,D0
00000049  0218A2              131  		movbu	D0,(41496)
                              132  	;;LINE 268, 1, 1
0000004c                      133  	.DWLopt11
0000004c  00                  134  		clr	D0
0000004d  021CA2              135  		movbu	D0,(41500)
                              136  	;;LINE 281, 1, 1
00000050                      137  	.DWLopt12
00000050  8001                138  		mov	1,D0
00000052  F050                139  		movbu	D0,(A0)
                              140  	;;LINE 291, 1, 1
00000054                      141  	.DWLopt13
00000054  800F                142  		mov	15,D0
00000056  0209A2              143  		movbu	D0,(41481)
                              144  	;;LINE 293, 1, 1
00000059                      145  	.DWLopt14
00000059  3401A2              146  		movbu	(41473),D0
0000005c  F8E440              147  		or	64,D0
0000005f  F050                148  		movbu	D0,(A0)
                              149  	;;LINE 295, 1, 1
00000061                      150  	.DWLopt15
00000061  3401A2              151  		movbu	(41473),D0
00000064  F8E0BF              152  		and	191,D0
00000067  F050                153  		movbu	D0,(A0)
                              154  	;;LINE 297, 1, 1
00000069                      155  	.DWLopt16
00000069  3401A2              156  		movbu	(41473),D0
0000006c  F8E480              157  		or	128,D0
0000006f  F050                158  		movbu	D0,(A0)
                              159  	;;LINE 300, 1, 1
00000071                      160  	.DWLopt17
00000071  DD000000000000    @ 161  		call	_0SCI1comm_reset
                              162  	;;LINE 301, 1, 1
00000078                      163  	.DWLopt18
00000078  DF0004              164  		ret
0000007b                      165  	.LDW27
                              166  		FUNCTION	_0SCI1_configure,.LDW27-_0SCI1_configure
                              167  		FUNCTION	_SCI1_configure,.LDW27-_SCI1_configure
                              168  	;; Resource Information
                              169  		;; No Information
                              170  	.debug_frame		SECTION
                              171  	;; Frame Description Entry(FDE)
00000024  00000000          + 172  		DD	.LDW64-.LDW63	;; length
00000028                      173  	.LDW63
00000028  00000000          + 174  		DD	.LFR_TOP	;; CIE_pointer
0000002c  00000000          + 175  		DD	_SCI1_configure	;; initial location
00000030  00000000          + 176  		DD	.LDW27-_SCI1_configure	;; address_range
                              177  		;; Prologue
00000034  02                  178  		DC	0x2	;; DW_CFA_advance_loc1(_0SCI1_configure-_SCI1_configure)
00000035  00                + 179  		DC	_0SCI1_configure-_SCI1_configure
00000036  0E04                180  		DC	0xe,0x4	;; DW_CFA_def_cfa_offset(4)
                              181  		;; Epilogue
00000038                      182  	.LDW64
                              183  	;; End of Frame Description Entry
                              184  	;;FUNC E _SCI1_configure
                              185  	;;FUNC S _SCI1comm_reset
                              186  	.text		SECTION
                              187  		GLOBAL	_SCI1comm_reset
                              188  		GLOBAL	_0SCI1comm_reset
0000007b                      189  	_SCI1comm_reset
                              190  	;;PROLOG 0x4
0000007b  CF80                191  		movm	[D2],(SP)
                              192  	_0SCI1comm_reset		FUNCINFO _SCI1comm_reset,4,[D2]
                              193  	;;LINE 307, 1, 1
0000007d                      194  	.DWLopt25
0000007d  FCAC00000000      @ 195  		movhu	(_flg_SCI1),D0
                              196  	;;LINE 315, 1, 1
00000083                      197  	.DWLopt26
00000083  04                  198  		clr	D1
                              199  	;;LINE 310, 1, 1
00000084                      200  	.DWLopt27
00000084  FAE0FFC3            201  		and	50175,D0
00000088  FC8300000000      @ 202  		movhu	D0,(_flg_SCI1)
                              203  	;;LINE 312, 1, 1
0000008e                      204  	.DWLopt28
0000008e  00                  205  		clr	D0
0000008f                      206  	.DWLopt21
0000008f  FC8300000000      @ 207  		movhu	D0,(_gus_SCI1tx_delay_timer)
                              208  	;;LINE 313, 1, 1
00000095                      209  	.DWLopt29
00000095  FC8300000000      @ 210  		movhu	D0,(_gus_SCI1tx_cnt)
                              211  	;;LINE 314, 1, 1
0000009b                      212  	.DWLopt30
0000009b  FC8300000000      @ 213  		movhu	D0,(_gus_SCI1rx_cnt)
                              214  	;;LINE 317, 1, 1
000000a1                      215  	.DWLopt31
000000a1  FCDC00000000      @ 216  		mov	_guc_SCI1rx_buffer,A0
                              217  	;;LINE 0, 0, 1
000000a7                      218  	.DWLopt32
000000a7  DB                  219  		setlb
                              220  	;;LINE 317, 0, 1
000000a8                      221  	.DWLopt33
000000a8  1C                  222  		exthu	D0
000000a9  08                  223  		clr	D2
000000aa  F460                224  		movbu	D2,(D0,A0)
000000ac                      225  	.DWLopt22
                              226  	;;LINE 315, 1, 1
000000ac                      227  	.DWLopt34
000000ac  44                  228  		inc	D1
000000ad  84                  229  		mov	D1,D0
                              230  	;;LINE 315, 1, 1
000000ae                      231  	.DWLopt35
000000ae  1D                  232  		exthu	D1
000000af  A508                233  		cmp	8,D1
000000b1  D0                  234  		llt
                              235  	;;LINE 320, 1, 1
000000b2                      236  	.DWLopt36
000000b2  00                  237  		clr	D0
000000b3                      238  	.DWLopt23
                              239  	;;LINE 320, 1, 1
000000b3                      240  	.DWLopt37
000000b3  04                  241  		clr	D1
                              242  	;;LINE 322, 1, 1
000000b4                      243  	.DWLopt38
000000b4  FCDC00000000      @ 244  		mov	_guc_SCI1tx_buffer,A0
                              245  	;;LINE 0, 0, 1
000000ba                      246  	.DWLopt39
000000ba  DB                  247  		setlb
                              248  	;;LINE 322, 0, 1
000000bb                      249  	.DWLopt40
000000bb  1C                  250  		exthu	D0
000000bc  F460                251  		movbu	D2,(D0,A0)
000000be                      252  	.DWLopt24
                              253  	;;LINE 320, 1, 1
000000be                      254  	.DWLopt41
000000be  44                  255  		inc	D1
000000bf  84                  256  		mov	D1,D0
                              257  	;;LINE 320, 1, 1
000000c0                      258  	.DWLopt42
000000c0  1D                  259  		exthu	D1
000000c1  A511                260  		cmp	17,D1
000000c3  D0                  261  		llt
                              262  	;;LINE 327, 1, 1
000000c4                      263  	.DWLopt43
000000c4  FCAC00000000      @ 264  		movhu	(_flg_SCI1),D0
000000ca  FAE40002            265  		or	512,D0
000000ce  FC8300000000      @ 266  		movhu	D0,(_flg_SCI1)
                              267  	;;LINE 325, 1, 1
000000d4                      268  	.DWLopt44
000000d4  00                  269  		clr	D0
000000d5  FC8300000000      @ 270  		movhu	D0,(_gus_lcd_setfreq)
                              271  	;;LINE 328, 1, 1
000000db                      272  	.DWLopt45
000000db  8002                273  		mov	2,D0
000000dd  FC8300000000      @ 274  		movhu	D0,(_gus_SCI1rx_delay_timer)
                              275  	;;LINE 329, 1, 1
000000e3                      276  	.DWLopt46
000000e3  DE8004              277  		retf
000000e6                      278  	.LDW28
                              279  		FUNCTION	_0SCI1comm_reset,.LDW28-_0SCI1comm_reset
                              280  		FUNCTION	_SCI1comm_reset,.LDW28-_SCI1comm_reset
                              281  	.debug_MN_rsc		SECTION
                              282  	;; Resource Information
                              283  	;; resource_list  1
00000000                      284  	.LDW65
                              285  		;; loc_data  1
00000000  00000000          + 286  		DD	.DWLopt21	;; address
00000004  01                  287  		DC	0x1	;;   size of loc_exp
00000005  50                  288  		DC	0x50	;;   DW_OP_reg0
                              289  		;; loc_data  2
00000006  00000000          + 290  		DD	.DWLopt22	;; address
0000000a  01                  291  		DC	0x1	;;   size of loc_exp
0000000b  E1                  292  		DC	0xe1	;;   DW_OP_MN_void
                              293  		;; loc_data  3
0000000c  00000000          + 294  		DD	.DWLopt23	;; address
00000010  01                  295  		DC	0x1	;;   size of loc_exp
00000011  50                  296  		DC	0x50	;;   DW_OP_reg0
                              297  		;; loc_data  4
00000012  00000000          + 298  		DD	.DWLopt24	;; address
00000016  01                  299  		DC	0x1	;;   size of loc_exp
00000017  E1                  300  		DC	0xe1	;;   DW_OP_MN_void
                              301  		;; end
00000018  00000000            302  		DD	0x0
0000001c  00                  303  		DC	0x0
                              304  	;; End of Resource Information
                              305  	.debug_frame		SECTION
                              306  	;; Frame Description Entry(FDE)
00000038  00000000          + 307  		DD	.LDW91-.LDW90	;; length
0000003c                      308  	.LDW90
0000003c  00000000          + 309  		DD	.LFR_TOP	;; CIE_pointer
00000040  00000000          + 310  		DD	_SCI1comm_reset	;; initial location
00000044  00000000          + 311  		DD	.LDW28-_SCI1comm_reset	;; address_range
                              312  		;; Prologue
00000048  02                  313  		DC	0x2	;; DW_CFA_advance_loc1(_0SCI1comm_reset-_SCI1comm_reset)
00000049  00                + 314  		DC	_0SCI1comm_reset-_SCI1comm_reset
0000004a  0E04                315  		DC	0xe,0x4	;; DW_CFA_def_cfa_offset(4)
0000004c  8201                316  		DC	0x82,0x1	;; DW_CFA_offset(D2,1)
                              317  		;; Epilogue
0000004e                      318  	.LDW91
                              319  	;; End of Frame Description Entry
                              320  	;;FUNC E _SCI1comm_reset
                              321  	;;FUNC S _SCI1rx_on_dealtime
                              322  	.text		SECTION
                              323  		GLOBAL	_SCI1rx_on_dealtime
                              324  		GLOBAL	_0SCI1rx_on_dealtime
000000e6                      325  	_SCI1rx_on_dealtime
                              326  	;;PROLOG 0x0
                              327  	_0SCI1rx_on_dealtime		FUNCINFO _SCI1rx_on_dealtime,0,[]
                              328  	;;LINE 333, 1, 1
000000e6                      329  	.DWLopt47
000000e6  FCAC00000000      @ 330  		movhu	(_flg_SCI1),D0
000000ec  FAEC0002            331  		btst	512,D0
000000f0  C907DC00000000    @ 332  		beq	L00017
                              333  	;;LINE 335, 1, 1
000000f7                      334  	.DWLopt48
000000f7  FCAC00000000      @ 335  		movhu	(_gus_SCI1rx_delay_timer),D0
000000fd  28FF                336  		add	-1,D0
000000ff  FC8300000000      @ 337  		movhu	D0,(_gus_SCI1rx_delay_timer)
                              338  	;;LINE 336, 1, 1
00000105                      339  	.DWLopt49
00000105  1C                  340  		exthu	D0
00000106  A000                341  		cmp	0,D0
00000108  C307DC00000000    @ 342  		bgt	L00017
                              343  	;;LINE 338, 1, 1
0000010f                      344  	.DWLopt50
0000010f  FCAC00000000      @ 345  		movhu	(_flg_SCI1),D0
00000115  FAE0FFFD            346  		and	65023,D0
00000119  FC8300000000      @ 347  		movhu	D0,(_flg_SCI1)
                              348  	;;LINE 339, 1, 1
0000011f                      349  	.DWLopt51
0000011f  00                  350  		clr	D0
00000120  FC8300000000      @ 351  		movhu	D0,(_gus_SCI1rx_delay_timer)
                              352  	;;LINE 341, 1, 1
00000126                      353  	.DWLopt52
00000126  246889              354  		mov	35176,A0
00000129  8002                355  		mov	2,D0
0000012b  F050                356  		movbu	D0,(A0)
                              357  	;;LINE 342, 1, 1
0000012d                      358  	.DWLopt53
0000012d  386889              359  		movhu	(35176),D0
00000130  FAE0FFFD            360  		and	65023,D0
00000134  F070                361  		movhu	D0,(A0)
                              362  	;;LINE 345, 1, 1
00000136                      363  	.DWLopt54
00000136  8001                364  		mov	1,D0
00000138  F050                365  		movbu	D0,(A0)
                              366  	;;LINE 346, 1, 1
0000013a                      367  	.DWLopt55
0000013a  386889              368  		movhu	(35176),D0
0000013d  FAE40001            369  		or	256,D0
00000141  F070                370  		movhu	D0,(A0)
00000143                      371  	L00017
                              372  	;;LINE 349, 1, 1
00000143                      373  	.DWLopt56
00000143  DE0000              374  		retf
00000146                      375  	.LDW29
                              376  		FUNCTION	_0SCI1rx_on_dealtime,.LDW29-_0SCI1rx_on_dealtime
                              377  		FUNCTION	_SCI1rx_on_dealtime,.LDW29-_SCI1rx_on_dealtime
                              378  	;; Resource Information
                              379  		;; No Information
                              380  	.debug_frame		SECTION
                              381  	;; Frame Description Entry(FDE)
0000004e  00000000          + 382  		DD	.LDW103-.LDW102	;; length
00000052                      383  	.LDW102
00000052  00000000          + 384  		DD	.LFR_TOP	;; CIE_pointer
00000056  00000000          + 385  		DD	_SCI1rx_on_dealtime	;; initial location
0000005a  00000000          + 386  		DD	.LDW29-_SCI1rx_on_dealtime	;; address_range
                              387  		;; Prologue
0000005e  02                  388  		DC	0x2	;; DW_CFA_advance_loc1(_0SCI1rx_on_dealtime-_SCI1rx_on_dealtime)
0000005f  00                + 389  		DC	_0SCI1rx_on_dealtime-_SCI1rx_on_dealtime
00000060  0E00                390  		DC	0xe,0x0	;; DW_CFA_def_cfa_offset(0)
                              391  		;; Epilogue
00000062                      392  	.LDW103
                              393  	;; End of Frame Description Entry
                              394  	;;FUNC E _SCI1rx_on_dealtime
                              395  	;;FUNC S _SCI1_rx_int
                              396  	.text		SECTION
                              397  		GLOBAL	_SCI1_rx_int
                              398  		GLOBAL	_0SCI1_rx_int
00000146                      399  	_SCI1_rx_int
                              400  	;;PROLOG 0x4
00000146  CF80                401  		movm	[D2],(SP)
                              402  	_0SCI1_rx_int		FUNCINFO _SCI1_rx_int,4,[D2]
                              403  	;;LINE 353, 1, 1
00000148                      404  	.DWLopt58
00000148  342CA1              405  		movbu	(41260),D0
0000014b  FC8200000000      @ 406  		movbu	D0,(_guc_SCI1rx_byte)
                              407  	;;LINE 355, 1, 1
00000151                      408  	.DWLopt59
00000151  00                  409  		clr	D0
00000152  FC8300000000      @ 410  		movhu	D0,(_gus_SCI1rx_end_timer)
                              411  	;;LINE 357, 1, 1
00000158                      412  	.DWLopt60
00000158  FCAC00000000      @ 413  		movhu	(_flg_SCI1),D0
0000015e  2D0004              414  		mov	1024,D1
00000161  F204                415  		and	D1,D0
00000163  C807DC00000000    @ 416  		bne	L00024
0000016a  FCA800000000      @ 417  		movbu	(_guc_SCI1rx_byte),D0
00000170  A055                418  		cmp	85,D0
00000172  C807DC00000000    @ 419  		bne	L00024
                              420  	;;LINE 360, 1, 1
00000179                      421  	.DWLopt61
00000179  FCAC00000000      @ 422  		movhu	(_flg_SCI1),D0
0000017f  F214                423  		or	D1,D0
00000181  FC8300000000      @ 424  		movhu	D0,(_flg_SCI1)
                              425  	;;LINE 361, 1, 1
00000187                      426  	.DWLopt62
00000187  FCA800000000      @ 427  		movbu	(_guc_SCI1rx_byte),D0
0000018d  FC8200000000      @ 428  		movbu	D0,(_guc_SCI1rx_buffer)
                              429  	;;LINE 362, 1, 1
00000193                      430  	.DWLopt63
00000193  8001                431  		mov	1,D0
00000195  FC8300000000      @ 432  		movhu	D0,(_gus_SCI1rx_cnt)
                              433  	;;LINE 384, 1, 1
0000019b                      434  	.DWLopt64
0000019b  DE8004              435  		retf
0000019e                      436  	L00024
                              437  	;;LINE 364, 1, 1
0000019e                      438  	.DWLopt65
0000019e  FCAC00000000      @ 439  		movhu	(_flg_SCI1),D0
000001a4  F204                440  		and	D1,D0
000001a6  C807DC00000000    @ 441  		bne	Lcb0005
                              442  	;;LINE 384, 0, 1
000001ad                      443  	.DWLopt66
000001ad  DE8004              444  		retf
000001b0                      445  	Lcb0005
                              446  	;;LINE 366, 1, 1
000001b0                      447  	.DWLopt67
000001b0  FCAD00000000      @ 448  		movhu	(_gus_SCI1rx_cnt),D1
000001b6  A503                449  		cmp	3,D1
000001b8  C007DC00000000    @ 450  		bge	L00030
                              451  	;;LINE 368, 1, 1
000001bf                      452  	.DWLopt68
000001bf  FCAC00000000      @ 453  		movhu	(_gus_SCI1rx_cnt),D0
000001c5  FCAA00000000      @ 454  		movbu	(_guc_SCI1rx_byte),D2
000001cb  FCDC00000000      @ 455  		mov	_guc_SCI1rx_buffer,A0
                              456  	;;LINE 369, 1, 1
000001d1                      457  	.DWLopt69
000001d1  DC00000000        @ 458  		bra	Lopt000003
000001d6                      459  	L00030
                              460  	;;LINE 371, 1, 1
000001d6                      461  	.DWLopt70
000001d6  FCA800000000      @ 462  		movbu	(_guc_SCI1rx_buffer+2),D0
000001dc  FCDC00000000      @ 463  		mov	_guc_SCI1rx_buffer,A0
000001e2  2803                464  		add	3,D0
000001e4  A1                  465  		cmp	D0,D1
000001e5  C007DC00000000    @ 466  		bge	L00032
000001ec  A507                467  		cmp	7,D1
000001ee  C007DC00000000    @ 468  		bge	L00032
                              469  	;;LINE 373, 1, 1
000001f5                      470  	.DWLopt71
000001f5  FCAC00000000      @ 471  		movhu	(_gus_SCI1rx_cnt),D0
000001fb  FCAA00000000      @ 472  		movbu	(_guc_SCI1rx_byte),D2
00000201                      473  	Lopt000003
                              474  	;;LINE 373, 0, 1
00000201                      475  	.DWLopt72
                              476  	;;LINE 368, 0, 1
00000201                      477  	.DWLopt73
00000201  F460                478  		movbu	D2,(D0,A0)
                              479  	;;LINE 374, 1, 1
00000203                      480  	.DWLopt74
                              481  	;;LINE 369, 0, 1
00000203                      482  	.DWLopt75
00000203  44                  483  		inc	D1
00000204  FC8700000000      @ 484  		movhu	D1,(_gus_SCI1rx_cnt)
                              485  	;;LINE 374, 0, 1
0000020a                      486  	.DWLopt76
0000020a  DC00000000        @ 487  		bra	L00028
0000020f                      488  	L00032
                              489  	;;LINE 378, 1, 1
0000020f                      490  	.DWLopt77
0000020f  FCAC00000000      @ 491  		movhu	(_gus_SCI1rx_cnt),D0
00000215  FCA900000000      @ 492  		movbu	(_guc_SCI1rx_byte),D1
0000021b  F450                493  		movbu	D1,(D0,A0)
                              494  	;;LINE 379, 1, 1
0000021d                      495  	.DWLopt78
0000021d  00                  496  		clr	D0
0000021e  FC8300000000      @ 497  		movhu	D0,(_gus_SCI1rx_cnt)
                              498  	;;LINE 380, 1, 1
00000224                      499  	.DWLopt79
00000224  FCAC00000000      @ 500  		movhu	(_flg_SCI1),D0
                              501  	;;LINE 381, 1, 1
0000022a                      502  	.DWLopt80
0000022a  FAE0FFFB            503  		and	64511,D0
0000022e  FAE40008            504  		or	2048,D0
00000232  FC8300000000      @ 505  		movhu	D0,(_flg_SCI1)
00000238                      506  	L00028
                              507  	;;LINE 384, 0, 1
00000238                      508  	.DWLopt81
00000238  DE8004              509  		retf
0000023b                      510  	.LDW30
                              511  		FUNCTION	_0SCI1_rx_int,.LDW30-_0SCI1_rx_int
                              512  		FUNCTION	_SCI1_rx_int,.LDW30-_SCI1_rx_int
                              513  	;; Resource Information
                              514  		;; No Information
                              515  	.debug_frame		SECTION
                              516  	;; Frame Description Entry(FDE)
00000062  00000000          + 517  		DD	.LDW123-.LDW122	;; length
00000066                      518  	.LDW122
00000066  00000000          + 519  		DD	.LFR_TOP	;; CIE_pointer
0000006a  00000000          + 520  		DD	_SCI1_rx_int	;; initial location
0000006e  00000000          + 521  		DD	.LDW30-_SCI1_rx_int	;; address_range
                              522  		;; Prologue
00000072  02                  523  		DC	0x2	;; DW_CFA_advance_loc1(_0SCI1_rx_int-_SCI1_rx_int)
00000073  00                + 524  		DC	_0SCI1_rx_int-_SCI1_rx_int
00000074  0E04                525  		DC	0xe,0x4	;; DW_CFA_def_cfa_offset(4)
00000076  8201                526  		DC	0x82,0x1	;; DW_CFA_offset(D2,1)
                              527  		;; Epilogue
00000078                      528  	.LDW123
                              529  	;; End of Frame Description Entry
                              530  	;;FUNC E _SCI1_rx_int
                              531  	;;FUNC S _SCI1rx_end_delaytimer
                              532  	.text		SECTION
                              533  		GLOBAL	_SCI1rx_end_delaytimer
                              534  		GLOBAL	_0SCI1rx_end_delaytimer
0000023b                      535  	_SCI1rx_end_delaytimer
                              536  	;;PROLOG 0x0
                              537  	_0SCI1rx_end_delaytimer		FUNCINFO _SCI1rx_end_delaytimer,0,[]
                              538  	;;LINE 388, 1, 1
0000023b                      539  	.DWLopt82
0000023b  FCAC00000000      @ 540  		movhu	(_flg_SCI1),D0
00000241  FAEC0004            541  		btst	1024,D0
00000245  C907DC00000000    @ 542  		beq	L00035
                              543  	;;LINE 390, 1, 1
0000024c                      544  	.DWLopt83
0000024c  FCAC00000000      @ 545  		movhu	(_gus_SCI1rx_end_timer),D0
00000252  40                  546  		inc	D0
00000253  FC8300000000      @ 547  		movhu	D0,(_gus_SCI1rx_end_timer)
                              548  	;;LINE 391, 1, 1
00000259                      549  	.DWLopt84
00000259  1C                  550  		exthu	D0
0000025a  A005                551  		cmp	5,D0
0000025c  C207DC00000000    @ 552  		blt	L00035
                              553  	;;LINE 393, 1, 1
00000263                      554  	.DWLopt85
00000263  00                  555  		clr	D0
00000264  FC8300000000      @ 556  		movhu	D0,(_gus_SCI1rx_cnt)
                              557  	;;LINE 394, 1, 1
0000026a                      558  	.DWLopt86
0000026a  FCAC00000000      @ 559  		movhu	(_flg_SCI1),D0
                              560  	;;LINE 395, 1, 1
00000270                      561  	.DWLopt87
00000270  FAE0FFF3            562  		and	62463,D0
00000274  FC8300000000      @ 563  		movhu	D0,(_flg_SCI1)
                              564  	;;LINE 398, 1, 1
0000027a                      565  	.DWLopt88
0000027a  246889              566  		mov	35176,A0
0000027d  8002                567  		mov	2,D0
0000027f  F050                568  		movbu	D0,(A0)
                              569  	;;LINE 400, 1, 1
00000281                      570  	.DWLopt89
00000281  8001                571  		mov	1,D0
00000283  F050                572  		movbu	D0,(A0)
                              573  	;;LINE 401, 1, 1
00000285                      574  	.DWLopt90
00000285  386889              575  		movhu	(35176),D0
00000288  FAE40001            576  		or	256,D0
0000028c  F070                577  		movhu	D0,(A0)
0000028e                      578  	L00035
                              579  	;;LINE 404, 1, 1
0000028e                      580  	.DWLopt91
0000028e  DE0000              581  		retf
00000291                      582  	.LDW31
                              583  		FUNCTION	_0SCI1rx_end_delaytimer,.LDW31-_0SCI1rx_end_delaytimer
                              584  		FUNCTION	_SCI1rx_end_delaytimer,.LDW31-_SCI1rx_end_delaytimer
                              585  	;; Resource Information
                              586  		;; No Information
                              587  	.debug_frame		SECTION
                              588  	;; Frame Description Entry(FDE)
00000078  00000000          + 589  		DD	.LDW135-.LDW134	;; length
0000007c                      590  	.LDW134
0000007c  00000000          + 591  		DD	.LFR_TOP	;; CIE_pointer
00000080  00000000          + 592  		DD	_SCI1rx_end_delaytimer	;; initial location
00000084  00000000          + 593  		DD	.LDW31-_SCI1rx_end_delaytimer	;; address_range
                              594  		;; Prologue
00000088  02                  595  		DC	0x2	;; DW_CFA_advance_loc1(_0SCI1rx_end_delaytimer-_SCI1rx_end_delaytimer)
00000089  00                + 596  		DC	_0SCI1rx_end_delaytimer-_SCI1rx_end_delaytimer
0000008a  0E00                597  		DC	0xe,0x0	;; DW_CFA_def_cfa_offset(0)
                              598  		;; Epilogue
0000008c                      599  	.LDW135
                              600  	;; End of Frame Description Entry
                              601  	;;FUNC E _SCI1rx_end_delaytimer
                              602  	;;FUNC S _SCI1comm_abend_dealtime
                              603  	.text		SECTION
                              604  		GLOBAL	_SCI1comm_abend_dealtime
                              605  		GLOBAL	_0SCI1comm_abend_dealtime
00000291                      606  	_SCI1comm_abend_dealtime
                              607  	;;PROLOG 0x4
00000291  F8FEFC              608  		add	-4,SP
                              609  	_0SCI1comm_abend_dealtime		FUNCINFO _SCI1comm_abend_dealtime,4,[]
                              610  	;;LINE 408, 1, 1
00000294                      611  	.DWLopt92
00000294  FCAC00000000      @ 612  		movhu	(_gus_SCI1comm_abend_timer),D0
0000029a  40                  613  		inc	D0
0000029b  FC8300000000      @ 614  		movhu	D0,(_gus_SCI1comm_abend_timer)
                              615  	;;LINE 409, 1, 1
000002a1                      616  	.DWLopt93
000002a1  1C                  617  		exthu	D0
000002a2  A01E                618  		cmp	30,D0
000002a4  C107DC00000000    @ 619  		ble	L00042
                              620  	;;LINE 411, 1, 1
000002ab                      621  	.DWLopt94
000002ab  00                  622  		clr	D0
000002ac  FC8300000000      @ 623  		movhu	D0,(_gus_SCI1comm_abend_timer)
                              624  	;;LINE 412, 1, 1
000002b2                      625  	.DWLopt95
000002b2  CD00000000        + 626  		call	_0SCI1comm_reset
000002b7                      627  	L00042
                              628  	;;LINE 416, 1, 1
000002b7                      629  	.DWLopt96
000002b7  DF0004              630  		ret
000002ba                      631  	.LDW32
                              632  		FUNCTION	_0SCI1comm_abend_dealtime,.LDW32-_0SCI1comm_abend_dealtime
                              633  		FUNCTION	_SCI1comm_abend_dealtime,.LDW32-_SCI1comm_abend_dealtime
                              634  	;; Resource Information
                              635  		;; No Information
                              636  	.debug_frame		SECTION
                              637  	;; Frame Description Entry(FDE)
0000008c  00000000          + 638  		DD	.LDW142-.LDW141	;; length
00000090                      639  	.LDW141
00000090  00000000          + 640  		DD	.LFR_TOP	;; CIE_pointer
00000094  00000000          + 641  		DD	_SCI1comm_abend_dealtime	;; initial location
00000098  00000000          + 642  		DD	.LDW32-_SCI1comm_abend_dealtime	;; address_range
                              643  		;; Prologue
0000009c  02                  644  		DC	0x2	;; DW_CFA_advance_loc1(_0SCI1comm_abend_dealtime-_SCI1comm_abend_dealtime)
0000009d  00                + 645  		DC	_0SCI1comm_abend_dealtime-_SCI1comm_abend_dealtime
0000009e  0E04                646  		DC	0xe,0x4	;; DW_CFA_def_cfa_offset(4)
                              647  		;; Epilogue
000000a0                      648  	.LDW142
                              649  	;; End of Frame Description Entry
                              650  	;;FUNC E _SCI1comm_abend_dealtime
                              651  	;;FUNC S _SCI1rx_ctrl_abend_dealtime
                              652  	.text		SECTION
                              653  		GLOBAL	_SCI1rx_ctrl_abend_dealtime
                              654  		GLOBAL	_0SCI1rx_ctrl_abend_dealtime
000002ba                      655  	_SCI1rx_ctrl_abend_dealtime
                              656  	;;PROLOG 0x4
000002ba  F8FEFC              657  		add	-4,SP
                              658  	_0SCI1rx_ctrl_abend_dealtime		FUNCINFO _SCI1rx_ctrl_abend_dealtime,4,[]
                              659  	;;LINE 420, 1, 1
000002bd                      660  	.DWLopt97
000002bd  FCAC00000000      @ 661  		movhu	(_gus_SCI1rx_ctrl_abend_timer),D0
000002c3  40                  662  		inc	D0
000002c4  FC8300000000      @ 663  		movhu	D0,(_gus_SCI1rx_ctrl_abend_timer)
                              664  	;;LINE 421, 1, 1
000002ca                      665  	.DWLopt98
000002ca  1C                  666  		exthu	D0
000002cb  A01E                667  		cmp	30,D0
000002cd  C107DC00000000    @ 668  		ble	L00046
                              669  	;;LINE 423, 1, 1
000002d4                      670  	.DWLopt99
000002d4  00                  671  		clr	D0
000002d5  FC8300000000      @ 672  		movhu	D0,(_gus_SCI1rx_ctrl_abend_timer)
                              673  	;;LINE 424, 1, 1
000002db                      674  	.DWLopt100
000002db  CD00000000        + 675  		call	_0SCI1comm_reset
000002e0                      676  	L00046
                              677  	;;LINE 428, 1, 1
000002e0                      678  	.DWLopt101
000002e0  DF0004              679  		ret
000002e3                      680  	.LDW33
                              681  		FUNCTION	_0SCI1rx_ctrl_abend_dealtime,.LDW33-_0SCI1rx_ctrl_abend_dealtime
                              682  		FUNCTION	_SCI1rx_ctrl_abend_dealtime,.LDW33-_SCI1rx_ctrl_abend_dealtime
                              683  	;; Resource Information
                              684  		;; No Information
                              685  	.debug_frame		SECTION
                              686  	;; Frame Description Entry(FDE)
000000a0  00000000          + 687  		DD	.LDW149-.LDW148	;; length
000000a4                      688  	.LDW148
000000a4  00000000          + 689  		DD	.LFR_TOP	;; CIE_pointer
000000a8  00000000          + 690  		DD	_SCI1rx_ctrl_abend_dealtime	;; initial location
000000ac  00000000          + 691  		DD	.LDW33-_SCI1rx_ctrl_abend_dealtime	;; address_range
                              692  		;; Prologue
000000b0  02                  693  		DC	0x2	;; DW_CFA_advance_loc1(_0SCI1rx_ctrl_abend_dealtime-_SCI1rx_ctrl_abend_dealtime)
000000b1  00                + 694  		DC	_0SCI1rx_ctrl_abend_dealtime-_SCI1rx_ctrl_abend_dealtime
000000b2  0E04                695  		DC	0xe,0x4	;; DW_CFA_def_cfa_offset(4)
                              696  		;; Epilogue
000000b4                      697  	.LDW149
                              698  	;; End of Frame Description Entry
                              699  	;;FUNC E _SCI1rx_ctrl_abend_dealtime
                              700  	;;FUNC S _SCI1rx_data_deal
                              701  	.text		SECTION
                              702  		GLOBAL	_SCI1rx_data_deal
                              703  		GLOBAL	_0SCI1rx_data_deal
000002e3                      704  	_SCI1rx_data_deal
                              705  	;;PROLOG 0xc
000002e3  CFC0                706  		movm	[D2,D3],(SP)
000002e5  F8FEFC              707  		add	-4,SP
                              708  	_0SCI1rx_data_deal		FUNCINFO _SCI1rx_data_deal,12,[D2,D3]
                              709  	;;LINE 448, 1, 1
000002e8                      710  	.DWLopt110
000002e8  FCAC00000000      @ 711  		movhu	(_flg_SCI1),D0
000002ee  FAEC0008            712  		btst	2048,D0
000002f2  C807DC00000000    @ 713  		bne	Lcb000d
                              714  	;;LINE 495, 1, 1
000002f9                      715  	.DWLopt111
000002f9  DFC00C              716  		ret
000002fc                      717  	Lcb000d
000002fc                      718  	.LDW35
                              719  	;;LINE 450, 1, 1
000002fc                      720  	.DWLopt112
000002fc  FAE0FFF7            721  		and	63487,D0
00000300  FC8300000000      @ 722  		movhu	D0,(_flg_SCI1)
                              723  	;;LINE 452, 1, 1
00000306                      724  	.DWLopt113
00000306  FCA800000000      @ 725  		movbu	(_guc_SCI1rx_buffer),D0
0000030c  FCDD00000000      @ 726  		mov	_guc_SCI1rx_buffer,A1
00000312  A055                727  		cmp	85,D0
00000314  C907DC00000000    @ 728  		beq	Lcb000e
                              729  	;;LINE 495, 0, 1
0000031b                      730  	.DWLopt114
0000031b  DFC00C              731  		ret
0000031e                      732  	Lcb000e
0000031e                      733  	.LDW37
                              734  	;;LINE 459, 1, 1
0000031e                      735  	.DWLopt115
0000031e  FCAA00000000      @ 736  		movbu	(_guc_SCI1rx_buffer+2),D2
                              737  	;;LINE 454, 1, 1
00000324                      738  	.DWLopt116
00000324  00                  739  		clr	D0
00000325                      740  	.DWLopt108
                              741  	;;LINE 459, 0, 1
00000325                      742  	.DWLopt117
00000325  2A03                743  		add	3,D2
00000327                      744  	.DWLopt106
                              745  	;;LINE 461, 1, 1
00000327                      746  	.DWLopt118
00000327  81                  747  		mov	D0,D1
00000328                      748  	.DWLopt104
                              749  	;;LINE 461, 1, 1
00000328                      750  	.DWLopt119
00000328  16                  751  		extbu	D2
00000329  0C                  752  		clr	D3
0000032a  AA00                753  		cmp	0,D2
0000032c  C107DC00000000    @ 754  		ble	L00057
                              755  	;;LINE 0, 0, 1
00000333                      756  	.DWLopt120
00000333  DB                  757  		setlb
                              758  	;;LINE 463, 1, 1
00000334                      759  	.DWLopt121
00000334  15                  760  		extbu	D1
00000335  F415                761  		movbu	(D1,A1),D1
00000337                      762  	.DWLopt105
00000337  14                  763  		extbu	D0
00000338  E4                  764  		add	D1,D0
                              765  	;;LINE 461, 1, 1
00000339                      766  	.DWLopt122
00000339  4C                  767  		inc	D3
0000033a  8D                  768  		mov	D3,D1
                              769  	;;LINE 461, 1, 1
0000033b                      770  	.DWLopt123
0000033b  17                  771  		extbu	D3
0000033c  AB                  772  		cmp	D2,D3
0000033d  D0                  773  		llt
0000033e                      774  	L00057
                              775  	;;LINE 467, 1, 1
0000033e                      776  	.DWLopt124
0000033e  F419                777  		movbu	(D2,A1),D1
00000340                      778  	.DWLopt107
00000340                      779  	.DWLopt102
                              780  	;;LINE 469, 1, 1
00000340                      781  	.DWLopt125
00000340  F230                782  		not	D0
00000342  14                  783  		extbu	D0
00000343  A4                  784  		cmp	D1,D0
00000344                      785  	.DWLopt109
00000344                      786  	.DWLopt103
00000344  C907DC00000000    @ 787  		beq	Lcb0010
                              788  	;;LINE 495, 0, 1
0000034b                      789  	.DWLopt126
0000034b  DFC00C              790  		ret
0000034e                      791  	Lcb0010
                              792  	;;LINE 471, 1, 1
0000034e                      793  	.DWLopt127
0000034e  00                  794  		clr	D0
0000034f  FC8300000000      @ 795  		movhu	D0,(_gus_SCI1comm_abend_timer)
                              796  	;;LINE 473, 1, 1
00000355                      797  	.DWLopt128
00000355  FCA800000000      @ 798  		movbu	(_guc_SCI1rx_buffer+1),D0
0000035b  FAC8A100            799  		cmp	161,D0
0000035f  C907DC00000000    @ 800  		beq	L00063
00000366  FAC8B100            801  		cmp	177,D0
0000036a  C907DC00000000    @ 802  		beq	L00065
00000371  FAC8B200            803  		cmp	178,D0
00000375  C907DC00000000    @ 804  		beq	L00067
0000037c  FAC8C100            805  		cmp	193,D0
00000380  C907DC00000000    @ 806  		beq	L00069
00000387  DC00000000        @ 807  		bra	L00061
0000038c                      808  	L00063
                              809  	;;LINE 476, 1, 1
0000038c                      810  	.DWLopt129
0000038c  DD000000000000    @ 811  		call	_0SCI1_handshake_info_deal
                              812  	;;LINE 477, 1, 1
00000393                      813  	.DWLopt130
00000393  DC00000000        @ 814  		bra	L00061
00000398                      815  	L00065
                              816  	;;LINE 479, 1, 1
00000398                      817  	.DWLopt131
00000398  DD000000000000    @ 818  		call	_0SCI1_wrcmd_info_deal
                              819  	;;LINE 480, 1, 1
0000039f                      820  	.DWLopt132
0000039f  DC00000000        @ 821  		bra	L00061
000003a4                      822  	L00067
                              823  	;;LINE 482, 1, 1
000003a4                      824  	.DWLopt133
000003a4  DD000000000000    @ 825  		call	_0SCI1_rdcmd_info_deal
                              826  	;;LINE 483, 1, 1
000003ab                      827  	.DWLopt134
000003ab  DC00000000        @ 828  		bra	L00061
000003b0                      829  	L00069
                              830  	;;LINE 485, 1, 1
000003b0                      831  	.DWLopt135
000003b0  DD000000000000    @ 832  		call	_0SCI1_ctrl_info_deal
000003b7                      833  	L00061
                              834  	;;LINE 489, 1, 1
000003b7                      835  	.DWLopt136
000003b7  FCAC00000000      @ 836  		movhu	(_flg_SCI1),D0
000003bd  FAE40010            837  		or	4096,D0
000003c1  FC8300000000      @ 838  		movhu	D0,(_flg_SCI1)
                              839  	;;LINE 490, 1, 1
000003c7                      840  	.DWLopt137
000003c7  8014                841  		mov	20,D0
000003c9  FC8300000000      @ 842  		movhu	D0,(_gus_SCI1tx_delay_timer)
000003cf                      843  	.LDW38
000003cf                      844  	.LDW36
                              845  	;;LINE 495, 0, 1
000003cf                      846  	.DWLopt138
000003cf  DFC00C              847  		ret
000003d2                      848  	.LDW34
                              849  		FUNCTION	_0SCI1rx_data_deal,.LDW34-_0SCI1rx_data_deal
                              850  		FUNCTION	_SCI1rx_data_deal,.LDW34-_SCI1rx_data_deal
                              851  	.debug_MN_rsc		SECTION
                              852  	;; Resource Information
                              853  	;; resource_list  1
0000001d                      854  	.LDW150
                              855  		;; loc_data  1
0000001d  00000000          + 856  		DD	.DWLopt104	;; address
00000021  01                  857  		DC	0x1	;;   size of loc_exp
00000022  51                  858  		DC	0x51	;;   DW_OP_reg1
                              859  		;; loc_data  2
00000023  00000000          + 860  		DD	.DWLopt105	;; address
00000027  01                  861  		DC	0x1	;;   size of loc_exp
00000028  E1                  862  		DC	0xe1	;;   DW_OP_MN_void
                              863  		;; end
00000029  00000000            864  		DD	0x0
0000002d  00                  865  		DC	0x0
                              866  	;; resource_list  2
0000002e                      867  	.LDW153
                              868  		;; loc_data  1
0000002e  00000000          + 869  		DD	.DWLopt108	;; address
00000032  01                  870  		DC	0x1	;;   size of loc_exp
00000033  50                  871  		DC	0x50	;;   DW_OP_reg0
                              872  		;; loc_data  2
00000034  00000000          + 873  		DD	.DWLopt109	;; address
00000038  01                  874  		DC	0x1	;;   size of loc_exp
00000039  E1                  875  		DC	0xe1	;;   DW_OP_MN_void
                              876  		;; end
0000003a  00000000            877  		DD	0x0
0000003e  00                  878  		DC	0x0
                              879  	;; resource_list  3
0000003f                      880  	.LDW156
                              881  		;; loc_data  1
0000003f  00000000          + 882  		DD	.DWLopt102	;; address
00000043  01                  883  		DC	0x1	;;   size of loc_exp
00000044  51                  884  		DC	0x51	;;   DW_OP_reg1
                              885  		;; loc_data  2
00000045  00000000          + 886  		DD	.DWLopt103	;; address
00000049  01                  887  		DC	0x1	;;   size of loc_exp
0000004a  E1                  888  		DC	0xe1	;;   DW_OP_MN_void
                              889  		;; end
0000004b  00000000            890  		DD	0x0
0000004f  00                  891  		DC	0x0
                              892  	;; resource_list  4
00000050                      893  	.LDW159
                              894  		;; loc_data  1
00000050  00000000          + 895  		DD	.DWLopt106	;; address
00000054  01                  896  		DC	0x1	;;   size of loc_exp
00000055  52                  897  		DC	0x52	;;   DW_OP_reg2
                              898  		;; loc_data  2
00000056  00000000          + 899  		DD	.DWLopt107	;; address
0000005a  01                  900  		DC	0x1	;;   size of loc_exp
0000005b  E1                  901  		DC	0xe1	;;   DW_OP_MN_void
                              902  		;; end
0000005c  00000000            903  		DD	0x0
00000060  00                  904  		DC	0x0
                              905  	;; End of Resource Information
                              906  	.debug_frame		SECTION
                              907  	;; Frame Description Entry(FDE)
000000b4  00000000          + 908  		DD	.LDW188-.LDW187	;; length
000000b8                      909  	.LDW187
000000b8  00000000          + 910  		DD	.LFR_TOP	;; CIE_pointer
000000bc  00000000          + 911  		DD	_SCI1rx_data_deal	;; initial location
000000c0  00000000          + 912  		DD	.LDW34-_SCI1rx_data_deal	;; address_range
                              913  		;; Prologue
000000c4  02                  914  		DC	0x2	;; DW_CFA_advance_loc1(_0SCI1rx_data_deal-_SCI1rx_data_deal)
000000c5  00                + 915  		DC	_0SCI1rx_data_deal-_SCI1rx_data_deal
000000c6  0E0C                916  		DC	0xe,0xc	;; DW_CFA_def_cfa_offset(12)
000000c8  8201                917  		DC	0x82,0x1	;; DW_CFA_offset(D2,1)
000000ca  8302                918  		DC	0x83,0x2	;; DW_CFA_offset(D3,2)
                              919  		;; Epilogue
000000cc                      920  	.LDW188
                              921  	;; End of Frame Description Entry
                              922  	;;FUNC E _SCI1rx_data_deal
                              923  	;;FUNC S _SCI1_handshake_info_deal
                              924  	.text		SECTION
                              925  		GLOBAL	_SCI1_handshake_info_deal
                              926  		GLOBAL	_0SCI1_handshake_info_deal
000003d2                      927  	_SCI1_handshake_info_deal
                              928  	;;PROLOG 0x4
000003d2  CF80                929  		movm	[D2],(SP)
                              930  	_0SCI1_handshake_info_deal		FUNCINFO _SCI1_handshake_info_deal,4,[D2]
                              931  	;;LINE 499, 1, 1
000003d4                      932  	.DWLopt143
000003d4  04                  933  		clr	D1
000003d5                      934  	.DWLopt141
                              935  	;;LINE 502, 1, 1
000003d5                      936  	.DWLopt144
000003d5  FCDC00000000      @ 937  		mov	_guc_SCI1tx_buffer,A0
000003db  2CAA00              938  		mov	170,D0
000003de  FC8200000000      @ 939  		movbu	D0,(_guc_SCI1tx_buffer)
                              940  	;;LINE 503, 1, 1
000003e4                      941  	.DWLopt145
000003e4  2CA100              942  		mov	161,D0
000003e7  FC8200000000      @ 943  		movbu	D0,(_guc_SCI1tx_buffer+1)
                              944  	;;LINE 504, 1, 1
000003ed                      945  	.DWLopt146
000003ed  8002                946  		mov	2,D0
000003ef  FC8200000000      @ 947  		movbu	D0,(_guc_SCI1tx_buffer+2)
                              948  	;;LINE 505, 1, 1
000003f5                      949  	.DWLopt147
000003f5  806E                950  		mov	110,D0
000003f7  FC8200000000      @ 951  		movbu	D0,(_guc_SCI1tx_buffer+3)
                              952  	;;LINE 506, 1, 1
000003fd                      953  	.DWLopt148
000003fd  84                  954  		mov	D1,D0
000003fe                      955  	.DWLopt139
000003fe  FC8200000000      @ 956  		movbu	D0,(_guc_SCI1tx_buffer+4)
                              957  	;;LINE 508, 1, 1
00000404                      958  	.DWLopt149
00000404  08                  959  		clr	D2
                              960  	;;LINE 0, 0, 1
00000405                      961  	.DWLopt150
00000405  DB                  962  		setlb
                              963  	;;LINE 510, 1, 1
00000406                      964  	.DWLopt151
00000406  14                  965  		extbu	D0
00000407  F400                966  		movbu	(D0,A0),D0
00000409                      967  	.DWLopt140
00000409  15                  968  		extbu	D1
0000040a  E1                  969  		add	D0,D1
                              970  	;;LINE 508, 1, 1
0000040b                      971  	.DWLopt152
0000040b  48                  972  		inc	D2
0000040c  88                  973  		mov	D2,D0
                              974  	;;LINE 508, 1, 1
0000040d                      975  	.DWLopt153
0000040d  16                  976  		extbu	D2
0000040e  AA05                977  		cmp	5,D2
00000410  D0                  978  		llt
                              979  	;;LINE 512, 1, 1
00000411                      980  	.DWLopt154
00000411  F231                981  		not	D1
00000413  FC8600000000      @ 982  		movbu	D1,(_guc_SCI1tx_buffer+5)
00000419                      983  	.DWLopt142
                              984  	;;LINE 513, 1, 1
00000419                      985  	.DWLopt155
00000419  DE8004              986  		retf
0000041c                      987  	.LDW39
                              988  		FUNCTION	_0SCI1_handshake_info_deal,.LDW39-_0SCI1_handshake_info_deal
                              989  		FUNCTION	_SCI1_handshake_info_deal,.LDW39-_SCI1_handshake_info_deal
                              990  	.debug_MN_rsc		SECTION
                              991  	;; Resource Information
                              992  	;; resource_list  1
00000061                      993  	.LDW189
                              994  		;; loc_data  1
00000061  00000000          + 995  		DD	.DWLopt139	;; address
00000065  01                  996  		DC	0x1	;;   size of loc_exp
00000066  50                  997  		DC	0x50	;;   DW_OP_reg0
                              998  		;; loc_data  2
00000067  00000000          + 999  		DD	.DWLopt140	;; address
0000006b  01                  1000  		DC	0x1	;;   size of loc_exp
0000006c  E1                  1001  		DC	0xe1	;;   DW_OP_MN_void
                              1002  		;; end
0000006d  00000000            1003  		DD	0x0
00000071  00                  1004  		DC	0x0
                              1005  	;; resource_list  2
00000072                      1006  	.LDW192
                              1007  		;; loc_data  1
00000072  00000000          + 1008  		DD	.DWLopt141	;; address
00000076  01                  1009  		DC	0x1	;;   size of loc_exp
00000077  51                  1010  		DC	0x51	;;   DW_OP_reg1
                              1011  		;; loc_data  2
00000078  00000000          + 1012  		DD	.DWLopt142	;; address
0000007c  01                  1013  		DC	0x1	;;   size of loc_exp
0000007d  E1                  1014  		DC	0xe1	;;   DW_OP_MN_void
                              1015  		;; end
0000007e  00000000            1016  		DD	0x0
00000082  00                  1017  		DC	0x0
                              1018  	;; End of Resource Information
                              1019  	.debug_frame		SECTION
                              1020  	;; Frame Description Entry(FDE)
000000cc  00000000          + 1021  		DD	.LDW209-.LDW208	;; length
000000d0                      1022  	.LDW208
000000d0  00000000          + 1023  		DD	.LFR_TOP	;; CIE_pointer
000000d4  00000000          + 1024  		DD	_SCI1_handshake_info_deal	;; initial location
000000d8  00000000          + 1025  		DD	.LDW39-_SCI1_handshake_info_deal	;; address_range
                              1026  		;; Prologue
000000dc  02                  1027  		DC	0x2	;; DW_CFA_advance_loc1(_0SCI1_handshake_info_deal-_SCI1_handshake_info_deal)
000000dd  00                + 1028  		DC	_0SCI1_handshake_info_deal-_SCI1_handshake_info_deal
000000de  0E04                1029  		DC	0xe,0x4	;; DW_CFA_def_cfa_offset(4)
000000e0  8201                1030  		DC	0x82,0x1	;; DW_CFA_offset(D2,1)
                              1031  		;; Epilogue
000000e2                      1032  	.LDW209
                              1033  	;; End of Frame Description Entry
                              1034  	;;FUNC E _SCI1_handshake_info_deal
                              1035  	;;FUNC S _SCI1_wrcmd_info_deal
                              1036  	.text		SECTION
                              1037  		GLOBAL	_SCI1_wrcmd_info_deal
                              1038  		GLOBAL	_0SCI1_wrcmd_info_deal
0000041c                      1039  	_SCI1_wrcmd_info_deal
                              1040  	;;PROLOG 0x18
0000041c  CFC0                1041  		movm	[D2,D3],(SP)
0000041e  F8FEF0              1042  		add	-16,SP
                              1043  	_0SCI1_wrcmd_info_deal		FUNCINFO _SCI1_wrcmd_info_deal,24,[D2,D3]
                              1044  	;;LINE 524, 1, 1
00000421                      1045  	.DWLopt163
00000421  FCA800000000      @ 1046  		movbu	(_guc_SCI1rx_buffer+3),D0
                              1047  	;;LINE 517, 1, 1
00000427                      1048  	.DWLopt164
00000427  08                  1049  		clr	D2
00000428                      1050  	.DWLopt161
                              1051  	;;LINE 524, 0, 1
00000428                      1052  	.DWLopt165
00000428  F89204              1053  		movbu	D0,(4,SP)
                              1054  	;;LINE 525, 1, 1
0000042b                      1055  	.DWLopt166
0000042b  FCA800000000      @ 1056  		movbu	(_guc_SCI1rx_buffer+4),D0
                              1057  	;;LINE 529, 1, 1
00000431                      1058  	.DWLopt167
00000431  FCCDFFFF0000        1059  		mov	65535,D1
                              1060  	;;LINE 525, 0, 1
00000437                      1061  	.DWLopt168
00000437  F89205              1062  		movbu	D0,(5,SP)
                              1063  	;;LINE 526, 1, 1
0000043a                      1064  	.DWLopt169
0000043a  FCA800000000      @ 1065  		movbu	(_guc_SCI1rx_buffer+5),D0
00000440  F89208              1066  		movbu	D0,(8,SP)
                              1067  	;;LINE 527, 1, 1
00000443                      1068  	.DWLopt170
00000443  FCA800000000      @ 1069  		movbu	(_guc_SCI1rx_buffer+6),D0
00000449  F89209              1070  		movbu	D0,(9,SP)
                              1071  	;;LINE 529, 0, 1
0000044c                      1072  	.DWLopt171
0000044c  F8BC04              1073  		movhu	(4,SP),D0
0000044f  A4                  1074  		cmp	D1,D0
00000450  C807DC00000000    @ 1075  		bne	L00083
00000457  F8BC08              1076  		movhu	(8,SP),D0
0000045a  A4                  1077  		cmp	D1,D0
0000045b  C807DC00000000    @ 1078  		bne	L00083
                              1079  	;;LINE 531, 1, 1
00000462                      1080  	.DWLopt172
00000462  FCAC00000000      @ 1081  		movhu	(_flg_ctrl),D0
00000468  F8EC04              1082  		btst	4,D0
0000046b  C907DC00000000    @ 1083  		beq	Lcb0017
00000472  DC00000000        @ 1084  		jmp	L00088
00000477                      1085  	Lcb0017
00000477  FCAC00000000      @ 1086  		movhu	(_flg_theta),D0
0000047d  F8EC40              1087  		btst	64,D0
00000480  C807DC00000000    @ 1088  		bne	L00222
00000487  FCAC00000000      @ 1089  		movhu	(_flg_fault),D0
0000048d  F8EC10              1090  		btst	16,D0
00000490  C807DC00000000    @ 1091  		bne	Lcb0019
00000497  DC00000000        @ 1092  		jmp	L00088
0000049c                      1093  	Lcb0019
0000049c                      1094  	L00222
                              1095  	;;LINE 533, 1, 1
0000049c                      1096  	.DWLopt173
0000049c  240482              1097  		mov	33284,A0
0000049f  88                  1098  		mov	D2,D0
000004a0  F050                1099  		movbu	D0,(A0)
                              1100  	;;LINE 533, 1, 1
000004a2                      1101  	.DWLopt174
000004a2  8001                1102  		mov	1,D0
000004a4  F050                1103  		movbu	D0,(A0)
                              1104  	;;LINE 0, 0, 1
000004a6                      1105  	.DWLopt175
000004a6  DC00000000        @ 1106  		jmp	L00088
000004ab                      1107  	L00083
                              1108  	;;LINE 538, 1, 1
000004ab                      1109  	.DWLopt176
000004ab  F8BC04              1110  		movhu	(4,SP),D0
000004ae  A06E                1111  		cmp	110,D0
000004b0  C207DC00000000    @ 1112  		blt	Lcb001a
000004b7  DC00000000        @ 1113  		jmp	L00088
000004bc                      1114  	Lcb001a
                              1115  	;;LINE 541, 1, 1
000004bc                      1116  	.DWLopt177
000004bc  F8BC04              1117  		movhu	(4,SP),D0
000004bf  DD000000000000    @ 1118  		call	_0get_eeppara_limit
000004c6  420C                1119  		mov	D0,(12,SP)
                              1120  	;;LINE 542, 1, 1
000004c8                      1121  	.DWLopt178
000004c8  F8BD08              1122  		movhu	(8,SP),D1
000004cb  F8BC0C              1123  		movhu	(12,SP),D0
000004ce  19                  1124  		exth	D1
000004cf  18                  1125  		exth	D0
000004d0  A1                  1126  		cmp	D0,D1
000004d1  C007DC00000000    @ 1127  		bge	L00093
                              1128  	;;LINE 544, 1, 1
000004d8                      1129  	.DWLopt179
000004d8  F8BC0C              1130  		movhu	(12,SP),D0
000004db  DC00000000        @ 1131  		bra	Lopt000006
000004e0                      1132  	L00093
                              1133  	;;LINE 546, 1, 1
000004e0                      1134  	.DWLopt180
000004e0  F8BD08              1135  		movhu	(8,SP),D1
000004e3  F8BC0E              1136  		movhu	(14,SP),D0
000004e6  19                  1137  		exth	D1
000004e7  18                  1138  		exth	D0
000004e8  A1                  1139  		cmp	D0,D1
000004e9  C107DC00000000    @ 1140  		ble	L00094
                              1141  	;;LINE 548, 1, 1
000004f0                      1142  	.DWLopt181
000004f0  F8BC0E              1143  		movhu	(14,SP),D0
000004f3                      1144  	Lopt000006
                              1145  	;;LINE 548, 0, 1
000004f3                      1146  	.DWLopt182
                              1147  	;;LINE 544, 0, 1
000004f3                      1148  	.DWLopt183
000004f3  F89308              1149  		movhu	D0,(8,SP)
000004f6                      1150  	L00094
                              1151  	;;LINE 551, 1, 1
000004f6                      1152  	.DWLopt184
000004f6  FCAC00000000      @ 1153  		movhu	(_flg_ctrl),D0
000004fc  F8EC04              1154  		btst	4,D0
000004ff  C907DC00000000    @ 1155  		beq	Lcb001d
00000506  DC00000000        @ 1156  		jmp	L00096
0000050b                      1157  	Lcb001d
0000050b  F8EC01              1158  		btst	1,D0
0000050e  C907DC00000000    @ 1159  		beq	Lcb001e
00000515  DC00000000        @ 1160  		jmp	L00096
0000051a                      1161  	Lcb001e
                              1162  	;;LINE 553, 1, 1
0000051a                      1163  	.DWLopt185
0000051a  F8BC04              1164  		movhu	(4,SP),D0
0000051d  A8                  1165  		cmp	D2,D0
0000051e  C807DC00000000    @ 1166  		bne	L00097
00000525  F8BC08              1167  		movhu	(8,SP),D0
00000528  A002                1168  		cmp	2,D0
0000052a  C807DC00000000    @ 1169  		bne	L00097
                              1170  	;;LINE 555, 1, 1
00000531                      1171  	.DWLopt186
00000531  DD000000000000    @ 1172  		call	_0init_all_para
00000538  F8930C              1173  		movhu	D0,(12,SP)
                              1174  	;;LINE 557, 1, 1
0000053b                      1175  	.DWLopt187
0000053b  FCAC00000000      @ 1176  		movhu	(_flg_fault),D0
00000541  F8E404              1177  		or	4,D0
00000544  FC8300000000      @ 1178  		movhu	D0,(_flg_fault)
                              1179  	;;LINE 558, 1, 1
0000054a                      1180  	.DWLopt188
0000054a  FCAC00000000      @ 1181  		movhu	(_flg_theta),D0
00000550  F8E440              1182  		or	64,D0
00000553  FC8300000000      @ 1183  		movhu	D0,(_flg_theta)
                              1184  	;;LINE 559, 1, 1
00000559                      1185  	.DWLopt189
00000559  F8BC0C              1186  		movhu	(12,SP),D0
0000055c  A8                  1187  		cmp	D2,D0
0000055d  C907DC00000000    @ 1188  		beq	L00099
                              1189  	;;LINE 563, 1, 1
00000564                      1190  	.DWLopt190
00000564  DC00000000        @ 1191  		jmp	L00231
00000569                      1192  	L00099
                              1193  	;;LINE 0, 0, 1
00000569                      1194  	.DWLopt191
00000569  DC00000000        @ 1195  		jmp	L00113
0000056e                      1196  	L00097
                              1197  	;;LINE 572, 1, 1
0000056e                      1198  	.DWLopt192
0000056e  F8BC04              1199  		movhu	(4,SP),D0
00000571  A04B                1200  		cmp	75,D0
00000573  C807DC00000000    @ 1201  		bne	L00104
0000057a  F8BC08              1202  		movhu	(8,SP),D0
0000057d  A001                1203  		cmp	1,D0
0000057f  C807DC00000000    @ 1204  		bne	L00104
                              1205  	;;LINE 574, 1, 1
00000586                      1206  	.DWLopt193
00000586  DD000000000000    @ 1207  		call	_0clear_trip_cause
                              1208  	;;LINE 576, 1, 1
0000058d                      1209  	.DWLopt194
0000058d  FCAC00000000      @ 1210  		movhu	(_flg_fault),D0
00000593  F8E404              1211  		or	4,D0
00000596  FC8300000000      @ 1212  		movhu	D0,(_flg_fault)
                              1213  	;;LINE 577, 1, 1
0000059c                      1214  	.DWLopt195
0000059c  FCAC00000000      @ 1215  		movhu	(_flg_theta),D0
000005a2  F8E440              1216  		or	64,D0
                              1217  	;;LINE 579, 1, 1
000005a5                      1218  	.DWLopt196
000005a5  DC00000000        @ 1219  		jmp	Lopt000004
000005aa                      1220  	L00104
                              1221  	;;LINE 581, 1, 1
000005aa                      1222  	.DWLopt197
000005aa  F8BC04              1223  		movhu	(4,SP),D0
000005ad  FCDC00000000      @ 1224  		mov	_ram_para,A0
000005b3  18                  1225  		exth	D0
000005b4  E0                  1226  		add	D0,D0
000005b5  F490                1227  		movhu	(D0,A0),D1
000005b7  F8BC08              1228  		movhu	(8,SP),D0
000005ba  A1                  1229  		cmp	D0,D1
000005bb  C807DC00000000    @ 1230  		bne	Lcb0024
000005c2  DC00000000        @ 1231  		jmp	L00096
000005c7                      1232  	Lcb0024
                              1233  	;;LINE 588, 1, 1
000005c7                      1234  	.DWLopt198
000005c7  F8BD08              1235  		movhu	(8,SP),D1
000005ca  F8BC04              1236  		movhu	(4,SP),D0
000005cd  18                  1237  		exth	D0
000005ce  E0                  1238  		add	D0,D0
000005cf  F4D0                1239  		movhu	D1,(D0,A0)
                              1240  	;;LINE 590, 1, 1
000005d1                      1241  	.DWLopt199
000005d1  19                  1242  		exth	D1
000005d2  460C                1243  		mov	D1,(12,SP)
                              1244  	;;LINE 592, 1, 1
000005d4                      1245  	.DWLopt200
000005d4  F8BC04              1246  		movhu	(4,SP),D0
000005d7  18                  1247  		exth	D0
000005d8  E0                  1248  		add	D0,D0
000005d9  F4D0                1249  		movhu	D1,(D0,A0)
                              1250  	;;LINE 595, 1, 1
000005db                      1251  	.DWLopt201
000005db  F8BC04              1252  		movhu	(4,SP),D0
000005de  F8BF04              1253  		movhu	(4,SP),D3
000005e1  18                  1254  		exth	D0
000005e2  E0                  1255  		add	D0,D0
000005e3  F160                1256  		add	D0,A0
                              1257  	;;LINE 0, 0, 1
000005e5                      1258  	.DWLopt202
000005e5  8C                  1259  		mov	D3,D0
                              1260  	;;LINE 595, 0, 1
000005e6                      1261  	.DWLopt203
000005e6  8501                1262  		mov	1,D1
                              1263  	;;LINE 595, 0, 1
000005e8                      1264  	.DWLopt204
000005e8  DD000000000000    @ 1265  		call	_0writeword_to_eeprom
000005ef  14                  1266  		extbu	D0
000005f0  F8930C              1267  		movhu	D0,(12,SP)
                              1268  	;;LINE 600, 1, 1
000005f3                      1269  	.DWLopt205
000005f3  FCAC00000000      @ 1270  		movhu	(_flg_fault),D0
000005f9  F8E404              1271  		or	4,D0
000005fc  FC8300000000      @ 1272  		movhu	D0,(_flg_fault)
                              1273  	;;LINE 601, 1, 1
00000602                      1274  	.DWLopt206
00000602  FCAC00000000      @ 1275  		movhu	(_flg_theta),D0
00000608  F8E440              1276  		or	64,D0
0000060b  FC8300000000      @ 1277  		movhu	D0,(_flg_theta)
                              1278  	;;LINE 602, 1, 1
00000611                      1279  	.DWLopt207
00000611  F8BC0C              1280  		movhu	(12,SP),D0
00000614  A8                  1281  		cmp	D2,D0
00000615  C807DC00000000    @ 1282  		bne	L00231
0000061c  F8BC0E              1283  		movhu	(14,SP),D0
0000061f  A8                  1284  		cmp	D2,D0
00000620  C907DC00000000    @ 1285  		beq	L00113
00000627                      1286  	L00231
                              1287  	;;LINE 604, 1, 1
00000627                      1288  	.DWLopt208
                              1289  	;;LINE 561, 1, 1
00000627                      1290  	.DWLopt209
00000627  FCAC00000000      @ 1291  		movhu	(_flg_theta),D0
0000062d  F8E410              1292  		or	16,D0
00000630  FC8300000000      @ 1293  		movhu	D0,(_flg_theta)
                              1294  	;;LINE 605, 1, 1
00000636                      1295  	.DWLopt210
                              1296  	;;LINE 562, 1, 1
00000636                      1297  	.DWLopt211
00000636  8052                1298  		mov	82,D0
00000638  FC8200000000      @ 1299  		movbu	D0,(_guc_trip_code)
                              1300  	;;LINE 606, 1, 1
0000063e                      1301  	.DWLopt212
                              1302  	;;LINE 563, 0, 1
0000063e                      1303  	.DWLopt213
0000063e  801C                1304  		mov	28,D0
                              1305  	;;LINE 606, 0, 1
00000640                      1306  	.DWLopt214
00000640  DC00000000        @ 1307  		bra	Lopt000005
00000645                      1308  	L00113
                              1309  	;;LINE 610, 1, 1
00000645                      1310  	.DWLopt215
                              1311  	;;LINE 567, 1, 1
00000645                      1312  	.DWLopt216
00000645  FCAC00000000      @ 1313  		movhu	(_flg_theta),D0
0000064b  FAE0EFFF            1314  		and	65519,D0
0000064f                      1315  	Lopt000004
                              1316  	;;LINE 610, 0, 1
0000064f                      1317  	.DWLopt217
                              1318  	;;LINE 567, 0, 1
0000064f                      1319  	.DWLopt218
                              1320  	;;LINE 577, 0, 1
0000064f                      1321  	.DWLopt219
0000064f  FC8300000000      @ 1322  		movhu	D0,(_flg_theta)
                              1323  	;;LINE 611, 1, 1
00000655                      1324  	.DWLopt220
                              1325  	;;LINE 568, 1, 1
00000655                      1326  	.DWLopt221
                              1327  	;;LINE 578, 1, 1
00000655                      1328  	.DWLopt222
00000655  8051                1329  		mov	81,D0
00000657  FC8200000000      @ 1330  		movbu	D0,(_guc_trip_code)
                              1331  	;;LINE 612, 1, 1
0000065d                      1332  	.DWLopt223
                              1333  	;;LINE 569, 1, 1
0000065d                      1334  	.DWLopt224
                              1335  	;;LINE 579, 0, 1
0000065d                      1336  	.DWLopt225
0000065d  88                  1337  		mov	D2,D0
0000065e                      1338  	Lopt000005
                              1339  	;;LINE 612, 0, 1
0000065e                      1340  	.DWLopt226
                              1341  	;;LINE 563, 0, 1
0000065e                      1342  	.DWLopt227
                              1343  	;;LINE 569, 0, 1
0000065e                      1344  	.DWLopt228
                              1345  	;;LINE 579, 0, 1
0000065e                      1346  	.DWLopt229
                              1347  	;;LINE 606, 0, 1
0000065e                      1348  	.DWLopt230
0000065e  FC8200000000      @ 1349  		movbu	D0,(_guc_lamp_trip_code)
00000664                      1350  	L00096
                              1351  	;;LINE 618, 1, 1
00000664                      1352  	.DWLopt231
00000664  F8BC04              1353  		movhu	(4,SP),D0
00000667  FCDC00000000      @ 1354  		mov	_ram_para,A0
0000066d  18                  1355  		exth	D0
0000066e  E0                  1356  		add	D0,D0
0000066f  F480                1357  		movhu	(D0,A0),D0
00000671  F89308              1358  		movhu	D0,(8,SP)
00000674                      1359  	L00088
                              1360  	;;LINE 626, 1, 1
00000674                      1361  	.DWLopt232
00000674  F8B804              1362  		movbu	(4,SP),D0
                              1363  	;;LINE 623, 1, 1
00000677                      1364  	.DWLopt233
00000677  FCDC00000000      @ 1365  		mov	_guc_SCI1tx_buffer,A0
                              1366  	;;LINE 626, 0, 1
0000067d                      1367  	.DWLopt234
0000067d  FC8200000000      @ 1368  		movbu	D0,(_guc_SCI1tx_buffer+3)
                              1369  	;;LINE 627, 1, 1
00000683                      1370  	.DWLopt235
00000683  F8B805              1371  		movbu	(5,SP),D0
                              1372  	;;LINE 631, 1, 1
00000686                      1373  	.DWLopt236
00000686  04                  1374  		clr	D1
                              1375  	;;LINE 627, 0, 1
00000687                      1376  	.DWLopt237
00000687  FC8200000000      @ 1377  		movbu	D0,(_guc_SCI1tx_buffer+4)
                              1378  	;;LINE 628, 1, 1
0000068d                      1379  	.DWLopt238
0000068d  F8B808              1380  		movbu	(8,SP),D0
00000690  FC8200000000      @ 1381  		movbu	D0,(_guc_SCI1tx_buffer+5)
                              1382  	;;LINE 629, 1, 1
00000696                      1383  	.DWLopt239
00000696  F8B809              1384  		movbu	(9,SP),D0
00000699  FC8200000000      @ 1385  		movbu	D0,(_guc_SCI1tx_buffer+6)
                              1386  	;;LINE 623, 0, 1
0000069f                      1387  	.DWLopt240
0000069f  2CAA00              1388  		mov	170,D0
000006a2  FC8200000000      @ 1389  		movbu	D0,(_guc_SCI1tx_buffer)
                              1390  	;;LINE 624, 1, 1
000006a8                      1391  	.DWLopt241
000006a8  2CB100              1392  		mov	177,D0
000006ab  FC8200000000      @ 1393  		movbu	D0,(_guc_SCI1tx_buffer+1)
                              1394  	;;LINE 625, 1, 1
000006b1                      1395  	.DWLopt242
000006b1  8004                1396  		mov	4,D0
000006b3  FC8200000000      @ 1397  		movbu	D0,(_guc_SCI1tx_buffer+2)
                              1398  	;;LINE 631, 1, 1
000006b9                      1399  	.DWLopt243
000006b9  88                  1400  		mov	D2,D0
000006ba                      1401  	.DWLopt159
                              1402  	;;LINE 0, 0, 1
000006ba                      1403  	.DWLopt244
000006ba  DB                  1404  		setlb
                              1405  	;;LINE 633, 1, 1
000006bb                      1406  	.DWLopt245
000006bb  14                  1407  		extbu	D0
000006bc  F400                1408  		movbu	(D0,A0),D0
000006be                      1409  	.DWLopt160
000006be  16                  1410  		extbu	D2
000006bf  E2                  1411  		add	D0,D2
                              1412  	;;LINE 631, 1, 1
000006c0                      1413  	.DWLopt246
000006c0  44                  1414  		inc	D1
000006c1  84                  1415  		mov	D1,D0
                              1416  	;;LINE 631, 1, 1
000006c2                      1417  	.DWLopt247
000006c2  15                  1418  		extbu	D1
000006c3  A507                1419  		cmp	7,D1
000006c5  D0                  1420  		llt
                              1421  	;;LINE 636, 1, 1
000006c6                      1422  	.DWLopt248
000006c6  F232                1423  		not	D2
000006c8  FC8A00000000      @ 1424  		movbu	D2,(_guc_SCI1tx_buffer+7)
000006ce                      1425  	.DWLopt162
                              1426  	;;LINE 637, 1, 1
000006ce                      1427  	.DWLopt249
000006ce  DFC018              1428  		ret
000006d1                      1429  	.LDW40
                              1430  		FUNCTION	_0SCI1_wrcmd_info_deal,.LDW40-_0SCI1_wrcmd_info_deal
                              1431  		FUNCTION	_SCI1_wrcmd_info_deal,.LDW40-_SCI1_wrcmd_info_deal
                              1432  	.debug_MN_rsc		SECTION
                              1433  	;; Resource Information
                              1434  	;; resource_list  1
00000083                      1435  	.LDW210
                              1436  		;; loc_data  1
00000083  00000000          + 1437  		DD	.DWLopt159	;; address
00000087  01                  1438  		DC	0x1	;;   size of loc_exp
00000088  50                  1439  		DC	0x50	;;   DW_OP_reg0
                              1440  		;; loc_data  2
00000089  00000000          + 1441  		DD	.DWLopt160	;; address
0000008d  01                  1442  		DC	0x1	;;   size of loc_exp
0000008e  E1                  1443  		DC	0xe1	;;   DW_OP_MN_void
                              1444  		;; end
0000008f  00000000            1445  		DD	0x0
00000093  00                  1446  		DC	0x0
                              1447  	;; resource_list  2
00000094                      1448  	.LDW213
                              1449  		;; loc_data  1
00000094  00000000          + 1450  		DD	.DWLopt161	;; address
00000098  01                  1451  		DC	0x1	;;   size of loc_exp
00000099  52                  1452  		DC	0x52	;;   DW_OP_reg2
                              1453  		;; loc_data  2
0000009a  00000000          + 1454  		DD	.DWLopt162	;; address
0000009e  01                  1455  		DC	0x1	;;   size of loc_exp
0000009f  E1                  1456  		DC	0xe1	;;   DW_OP_MN_void
                              1457  		;; end
000000a0  00000000            1458  		DD	0x0
000000a4  00                  1459  		DC	0x0
                              1460  	;; End of Resource Information
                              1461  	.debug_frame		SECTION
                              1462  	;; Frame Description Entry(FDE)
000000e2  00000000          + 1463  		DD	.LDW284-.LDW283	;; length
000000e6                      1464  	.LDW283
000000e6  00000000          + 1465  		DD	.LFR_TOP	;; CIE_pointer
000000ea  00000000          + 1466  		DD	_SCI1_wrcmd_info_deal	;; initial location
000000ee  00000000          + 1467  		DD	.LDW40-_SCI1_wrcmd_info_deal	;; address_range
                              1468  		;; Prologue
000000f2  02                  1469  		DC	0x2	;; DW_CFA_advance_loc1(_0SCI1_wrcmd_info_deal-_SCI1_wrcmd_info_deal)
000000f3  00                + 1470  		DC	_0SCI1_wrcmd_info_deal-_SCI1_wrcmd_info_deal
000000f4  0E18                1471  		DC	0xe,0x18	;; DW_CFA_def_cfa_offset(24)
000000f6  8201                1472  		DC	0x82,0x1	;; DW_CFA_offset(D2,1)
000000f8  8302                1473  		DC	0x83,0x2	;; DW_CFA_offset(D3,2)
                              1474  		;; Epilogue
000000fa                      1475  	.LDW284
                              1476  	;; End of Frame Description Entry
                              1477  	;;FUNC E _SCI1_wrcmd_info_deal
                              1478  	;;FUNC S _SCI1_rdcmd_info_deal
                              1479  	.text		SECTION
                              1480  		GLOBAL	_SCI1_rdcmd_info_deal
                              1481  		GLOBAL	_0SCI1_rdcmd_info_deal
000006d1                      1482  	_SCI1_rdcmd_info_deal
                              1483  	;;PROLOG 0x18
000006d1  CFA0                1484  		movm	[D2,A2],(SP)
000006d3  F8FEF0              1485  		add	-16,SP
                              1486  	_0SCI1_rdcmd_info_deal		FUNCINFO _SCI1_rdcmd_info_deal,24,[D2,A2]
                              1487  	;;LINE 649, 1, 1
000006d6                      1488  	.DWLopt255
000006d6  FCA800000000      @ 1489  		movbu	(_guc_SCI1rx_buffer+4),D0
                              1490  	;;LINE 641, 1, 1
000006dc                      1491  	.DWLopt256
000006dc  08                  1492  		clr	D2
000006dd                      1493  	.DWLopt253
                              1494  	;;LINE 649, 0, 1
000006dd                      1495  	.DWLopt257
000006dd  F89205              1496  		movbu	D0,(5,SP)
                              1497  	;;LINE 650, 1, 1
000006e0                      1498  	.DWLopt258
000006e0  FCA800000000      @ 1499  		movbu	(_guc_SCI1rx_buffer+3),D0
000006e6  F89204              1500  		movbu	D0,(4,SP)
                              1501  	;;LINE 652, 1, 1
000006e9                      1502  	.DWLopt259
000006e9  F8BC04              1503  		movhu	(4,SP),D0
000006ec  18                  1504  		exth	D0
000006ed  A06E                1505  		cmp	110,D0
000006ef  C207DC00000000    @ 1506  		blt	Lcb0027
000006f6  DC00000000        @ 1507  		jmp	L00123
000006fb                      1508  	Lcb0027
                              1509  	;;LINE 654, 1, 1
000006fb                      1510  	.DWLopt260
000006fb  F8BC04              1511  		movhu	(4,SP),D0
000006fe  FCDC00000000      @ 1512  		mov	_ram_para,A0
00000704  18                  1513  		exth	D0
00000705  E0                  1514  		add	D0,D0
00000706  F480                1515  		movhu	(D0,A0),D0
                              1516  	;;LINE 656, 1, 1
00000708                      1517  	.DWLopt261
00000708  FCDE00000000      @ 1518  		mov	_guc_SCI1tx_buffer,A2
                              1519  	;;LINE 654, 0, 1
0000070e                      1520  	.DWLopt262
0000070e  F89308              1521  		movhu	D0,(8,SP)
                              1522  	;;LINE 656, 0, 1
00000711                      1523  	.DWLopt263
00000711  2CAA00              1524  		mov	170,D0
00000714  FC8200000000      @ 1525  		movbu	D0,(_guc_SCI1tx_buffer)
                              1526  	;;LINE 657, 1, 1
0000071a                      1527  	.DWLopt264
0000071a  2CB200              1528  		mov	178,D0
0000071d  FC8200000000      @ 1529  		movbu	D0,(_guc_SCI1tx_buffer+1)
                              1530  	;;LINE 658, 1, 1
00000723                      1531  	.DWLopt265
00000723  800A                1532  		mov	10,D0
00000725  FC8200000000      @ 1533  		movbu	D0,(_guc_SCI1tx_buffer+2)
                              1534  	;;LINE 660, 1, 1
0000072b                      1535  	.DWLopt266
0000072b  F8B804              1536  		movbu	(4,SP),D0
0000072e  FC8200000000      @ 1537  		movbu	D0,(_guc_SCI1tx_buffer+3)
                              1538  	;;LINE 661, 1, 1
00000734                      1539  	.DWLopt267
00000734  F8B805              1540  		movbu	(5,SP),D0
00000737  FC8200000000      @ 1541  		movbu	D0,(_guc_SCI1tx_buffer+4)
                              1542  	;;LINE 663, 1, 1
0000073d                      1543  	.DWLopt268
0000073d  F8B808              1544  		movbu	(8,SP),D0
00000740  FC8200000000      @ 1545  		movbu	D0,(_guc_SCI1tx_buffer+5)
                              1546  	;;LINE 664, 1, 1
00000746                      1547  	.DWLopt269
00000746  F8B809              1548  		movbu	(9,SP),D0
00000749  FC8200000000      @ 1549  		movbu	D0,(_guc_SCI1tx_buffer+6)
                              1550  	;;LINE 666, 1, 1
0000074f                      1551  	.DWLopt270
0000074f  F8BC04              1552  		movhu	(4,SP),D0
00000752  A002                1553  		cmp	2,D0
00000754  C807DC00000000    @ 1554  		bne	L00127
                              1555  	;;LINE 668, 1, 1
0000075b                      1556  	.DWLopt271
0000075b  FCAC00000000      @ 1557  		movhu	(_ram_para+14),D0
00000761  F8930E              1558  		movhu	D0,(14,SP)
                              1559  	;;LINE 669, 1, 1
00000764                      1560  	.DWLopt272
00000764  FCAC00000000      @ 1561  		movhu	(_ram_para+12),D0
0000076a  F8930C              1562  		movhu	D0,(12,SP)
0000076d  DC00000000        @ 1563  		bra	L00129
00000772                      1564  	L00127
                              1565  	;;LINE 673, 1, 1
00000772                      1566  	.DWLopt273
00000772  F8BC04              1567  		movhu	(4,SP),D0
00000775  DD000000000000    @ 1568  		call	_0get_eeppara_limit
0000077c  420C                1569  		mov	D0,(12,SP)
0000077e                      1570  	L00129
                              1571  	;;LINE 676, 1, 1
0000077e                      1572  	.DWLopt274
0000077e  F8B80E              1573  		movbu	(14,SP),D0
                              1574  	;;LINE 682, 1, 1
00000781                      1575  	.DWLopt275
00000781  FCDD00000000      @ 1576  		mov	_EEPROM_InitData,A1
                              1577  	;;LINE 676, 0, 1
00000787                      1578  	.DWLopt276
00000787  FC8200000000      @ 1579  		movbu	D0,(_guc_SCI1tx_buffer+7)
                              1580  	;;LINE 677, 1, 1
0000078d                      1581  	.DWLopt277
0000078d  F8B80F              1582  		movbu	(15,SP),D0
00000790  FC8200000000      @ 1583  		movbu	D0,(_guc_SCI1tx_buffer+8)
                              1584  	;;LINE 679, 1, 1
00000796                      1585  	.DWLopt278
00000796  F8B80C              1586  		movbu	(12,SP),D0
00000799  FC8200000000      @ 1587  		movbu	D0,(_guc_SCI1tx_buffer+9)
                              1588  	;;LINE 680, 1, 1
0000079f                      1589  	.DWLopt279
0000079f  F8B80D              1590  		movbu	(13,SP),D0
000007a2  FC8200000000      @ 1591  		movbu	D0,(_guc_SCI1tx_buffer+10)
                              1592  	;;LINE 682, 0, 1
000007a8                      1593  	.DWLopt280
000007a8  F8BC04              1594  		movhu	(4,SP),D0
000007ab  18                  1595  		exth	D0
000007ac  F9000A              1596  		udf00	10,D0
000007af  F1E0                1597  		mov	D0,A0
000007b1  F174                1598  		add	A1,A0
000007b3  F86006              1599  		movhu	(6,A0),D0
000007b6  FC8200000000      @ 1600  		movbu	D0,(_guc_SCI1tx_buffer+11)
                              1601  	;;LINE 684, 1, 1
000007bc                      1602  	.DWLopt281
000007bc  F8BC04              1603  		movhu	(4,SP),D0
000007bf  18                  1604  		exth	D0
000007c0  F9000A              1605  		udf00	10,D0
000007c3  F161                1606  		add	D0,A1
000007c5  F86108              1607  		movhu	(8,A1),D0
000007c8  DC00000000        @ 1608  		bra	Lopt000007
000007cd                      1609  	L00123
                              1610  	;;LINE 689, 1, 1
000007cd                      1611  	.DWLopt282
000007cd  FCDE00000000      @ 1612  		mov	_guc_SCI1tx_buffer,A2
000007d3  2CAA00              1613  		mov	170,D0
000007d6  FC8200000000      @ 1614  		movbu	D0,(_guc_SCI1tx_buffer)
                              1615  	;;LINE 690, 1, 1
000007dc                      1616  	.DWLopt283
000007dc  2CB200              1617  		mov	178,D0
000007df  FC8200000000      @ 1618  		movbu	D0,(_guc_SCI1tx_buffer+1)
                              1619  	;;LINE 691, 1, 1
000007e5                      1620  	.DWLopt284
000007e5  800A                1621  		mov	10,D0
000007e7  FC8200000000      @ 1622  		movbu	D0,(_guc_SCI1tx_buffer+2)
                              1623  	;;LINE 692, 1, 1
000007ed                      1624  	.DWLopt285
000007ed  2CFF00              1625  		mov	255,D0
000007f0  FC8200000000      @ 1626  		movbu	D0,(_guc_SCI1tx_buffer+3)
                              1627  	;;LINE 693, 1, 1
000007f6                      1628  	.DWLopt286
000007f6  FC8200000000      @ 1629  		movbu	D0,(_guc_SCI1tx_buffer+4)
                              1630  	;;LINE 694, 1, 1
000007fc                      1631  	.DWLopt287
000007fc  FC8200000000      @ 1632  		movbu	D0,(_guc_SCI1tx_buffer+5)
                              1633  	;;LINE 695, 1, 1
00000802                      1634  	.DWLopt288
00000802  FC8200000000      @ 1635  		movbu	D0,(_guc_SCI1tx_buffer+6)
                              1636  	;;LINE 696, 1, 1
00000808                      1637  	.DWLopt289
00000808  FC8200000000      @ 1638  		movbu	D0,(_guc_SCI1tx_buffer+7)
                              1639  	;;LINE 697, 1, 1
0000080e                      1640  	.DWLopt290
0000080e  FC8200000000      @ 1641  		movbu	D0,(_guc_SCI1tx_buffer+8)
                              1642  	;;LINE 698, 1, 1
00000814                      1643  	.DWLopt291
00000814  FC8200000000      @ 1644  		movbu	D0,(_guc_SCI1tx_buffer+9)
                              1645  	;;LINE 699, 1, 1
0000081a                      1646  	.DWLopt292
0000081a  FC8200000000      @ 1647  		movbu	D0,(_guc_SCI1tx_buffer+10)
                              1648  	;;LINE 700, 1, 1
00000820                      1649  	.DWLopt293
00000820  FC8200000000      @ 1650  		movbu	D0,(_guc_SCI1tx_buffer+11)
00000826                      1651  	Lopt000007
                              1652  	;;LINE 701, 1, 1
00000826                      1653  	.DWLopt294
                              1654  	;;LINE 684, 0, 1
00000826                      1655  	.DWLopt295
00000826  FC8200000000      @ 1656  		movbu	D0,(_guc_SCI1tx_buffer+12)
                              1657  	;;LINE 704, 1, 1
0000082c                      1658  	.DWLopt296
0000082c  88                  1659  		mov	D2,D0
0000082d                      1660  	.DWLopt251
                              1661  	;;LINE 704, 1, 1
0000082d                      1662  	.DWLopt297
0000082d  04                  1663  		clr	D1
                              1664  	;;LINE 0, 0, 1
0000082e                      1665  	.DWLopt298
0000082e  DB                  1666  		setlb
                              1667  	;;LINE 706, 1, 1
0000082f                      1668  	.DWLopt299
0000082f  14                  1669  		extbu	D0
00000830  F402                1670  		movbu	(D0,A2),D0
00000832                      1671  	.DWLopt252
00000832  16                  1672  		extbu	D2
00000833  E2                  1673  		add	D0,D2
                              1674  	;;LINE 704, 1, 1
00000834                      1675  	.DWLopt300
00000834  44                  1676  		inc	D1
00000835  84                  1677  		mov	D1,D0
                              1678  	;;LINE 704, 1, 1
00000836                      1679  	.DWLopt301
00000836  15                  1680  		extbu	D1
00000837  A50D                1681  		cmp	13,D1
00000839  D0                  1682  		llt
                              1683  	;;LINE 708, 1, 1
0000083a                      1684  	.DWLopt302
0000083a  F232                1685  		not	D2
0000083c  FC8A00000000      @ 1686  		movbu	D2,(_guc_SCI1tx_buffer+13)
00000842                      1687  	.DWLopt254
                              1688  	;;LINE 709, 1, 1
00000842                      1689  	.DWLopt303
00000842  DFA018              1690  		ret
00000845                      1691  	.LDW41
                              1692  		FUNCTION	_0SCI1_rdcmd_info_deal,.LDW41-_0SCI1_rdcmd_info_deal
                              1693  		FUNCTION	_SCI1_rdcmd_info_deal,.LDW41-_SCI1_rdcmd_info_deal
                              1694  	.debug_MN_rsc		SECTION
                              1695  	;; Resource Information
                              1696  	;; resource_list  1
000000a5                      1697  	.LDW285
                              1698  		;; loc_data  1
000000a5  00000000          + 1699  		DD	.DWLopt251	;; address
000000a9  01                  1700  		DC	0x1	;;   size of loc_exp
000000aa  50                  1701  		DC	0x50	;;   DW_OP_reg0
                              1702  		;; loc_data  2
000000ab  00000000          + 1703  		DD	.DWLopt252	;; address
000000af  01                  1704  		DC	0x1	;;   size of loc_exp
000000b0  E1                  1705  		DC	0xe1	;;   DW_OP_MN_void
                              1706  		;; end
000000b1  00000000            1707  		DD	0x0
000000b5  00                  1708  		DC	0x0
                              1709  	;; resource_list  2
000000b6                      1710  	.LDW288
                              1711  		;; loc_data  1
000000b6  00000000          + 1712  		DD	.DWLopt253	;; address
000000ba  01                  1713  		DC	0x1	;;   size of loc_exp
000000bb  52                  1714  		DC	0x52	;;   DW_OP_reg2
                              1715  		;; loc_data  2
000000bc  00000000          + 1716  		DD	.DWLopt254	;; address
000000c0  01                  1717  		DC	0x1	;;   size of loc_exp
000000c1  E1                  1718  		DC	0xe1	;;   DW_OP_MN_void
                              1719  		;; end
000000c2  00000000            1720  		DD	0x0
000000c6  00                  1721  		DC	0x0
                              1722  	;; End of Resource Information
                              1723  	.debug_frame		SECTION
                              1724  	;; Frame Description Entry(FDE)
000000fa  00000000          + 1725  		DD	.LDW335-.LDW334	;; length
000000fe                      1726  	.LDW334
000000fe  00000000          + 1727  		DD	.LFR_TOP	;; CIE_pointer
00000102  00000000          + 1728  		DD	_SCI1_rdcmd_info_deal	;; initial location
00000106  00000000          + 1729  		DD	.LDW41-_SCI1_rdcmd_info_deal	;; address_range
                              1730  		;; Prologue
0000010a  02                  1731  		DC	0x2	;; DW_CFA_advance_loc1(_0SCI1_rdcmd_info_deal-_SCI1_rdcmd_info_deal)
0000010b  00                + 1732  		DC	_0SCI1_rdcmd_info_deal-_SCI1_rdcmd_info_deal
0000010c  0E18                1733  		DC	0xe,0x18	;; DW_CFA_def_cfa_offset(24)
0000010e  8201                1734  		DC	0x82,0x1	;; DW_CFA_offset(D2,1)
00000110  8602                1735  		DC	0x86,0x2	;; DW_CFA_offset(A2,2)
                              1736  		;; Epilogue
00000112                      1737  	.LDW335
                              1738  	;; End of Frame Description Entry
                              1739  	;;FUNC E _SCI1_rdcmd_info_deal
                              1740  	;;FUNC S _SCI1_ctrl_info_deal
                              1741  	.text		SECTION
                              1742  		GLOBAL	_SCI1_ctrl_info_deal
                              1743  		GLOBAL	_0SCI1_ctrl_info_deal
00000845                      1744  	_SCI1_ctrl_info_deal
                              1745  	;;PROLOG 0x8
00000845  CF80                1746  		movm	[D2],(SP)
00000847  F8FEFC              1747  		add	-4,SP
                              1748  	_0SCI1_ctrl_info_deal		FUNCINFO _SCI1_ctrl_info_deal,8,[D2]
                              1749  	;;LINE 717, 1, 1
0000084a                      1750  	.DWLopt308
0000084a  04                  1751  		clr	D1
0000084b  FC8700000000      @ 1752  		movhu	D1,(_gus_SCI1rx_ctrl_abend_timer)
                              1753  	;;LINE 719, 1, 1
00000851                      1754  	.DWLopt309
00000851  FCA900000000      @ 1755  		movbu	(_guc_SCI1rx_buffer+4),D1
                              1756  	;;LINE 713, 1, 1
00000857                      1757  	.DWLopt310
00000857  00                  1758  		clr	D0
00000858                      1759  	.DWLopt306
                              1760  	;;LINE 719, 0, 1
00000858                      1761  	.DWLopt311
00000858  F89601              1762  		movbu	D1,(1,SP)
                              1763  	;;LINE 720, 1, 1
0000085b                      1764  	.DWLopt312
0000085b  FCA900000000      @ 1765  		movbu	(_guc_SCI1rx_buffer+3),D1
00000861  F89600              1766  		movbu	D1,(SP)
                              1767  	;;LINE 722, 1, 1
00000864                      1768  	.DWLopt313
00000864  F8BD00              1769  		movhu	(SP),D1
00000867  FC8700000000      @ 1770  		movhu	D1,(_gus_lcd_setfreq)
                              1771  	;;LINE 724, 1, 1
0000086d                      1772  	.DWLopt314
0000086d  FCAE00000000      @ 1773  		movhu	(_gus_lcd_setfreq),D2
00000873  FCAD00000000      @ 1774  		movhu	(_gus_MAX_setfreq),D1
00000879  A6                  1775  		cmp	D1,D2
0000087a  C107DC00000000    @ 1776  		ble	L00143
                              1777  	;;LINE 726, 1, 1
00000881                      1778  	.DWLopt315
00000881  FC8700000000      @ 1779  		movhu	D1,(_gus_lcd_setfreq)
00000887                      1780  	L00143
                              1781  	;;LINE 729, 1, 1
00000887                      1782  	.DWLopt316
00000887  FCAD00000000      @ 1783  		movhu	(_flg_ctrl),D1
0000088d  F8ED20              1784  		btst	32,D1
00000890  C807DC00000000    @ 1785  		bne	L00145
00000897  FCAD00000000      @ 1786  		movhu	(_gus_lcd_setfreq),D1
0000089d  A1                  1787  		cmp	D0,D1
0000089e  C807DC00000000    @ 1788  		bne	L00145
                              1789  	;;LINE 731, 1, 1
000008a5                      1790  	.DWLopt317
000008a5  FCAD00000000      @ 1791  		movhu	(_flg_fault),D1
000008ab  F8ED04              1792  		btst	4,D1
000008ae  C907DC00000000    @ 1793  		beq	L00145
                              1794  	;;LINE 733, 1, 1
000008b5                      1795  	.DWLopt318
000008b5  FCAD00000000      @ 1796  		movhu	(_gus_trip_release_cnt),D1
000008bb  44                  1797  		inc	D1
000008bc  FC8700000000      @ 1798  		movhu	D1,(_gus_trip_release_cnt)
                              1799  	;;LINE 734, 1, 1
000008c2                      1800  	.DWLopt319
000008c2  1D                  1801  		exthu	D1
000008c3  A50A                1802  		cmp	10,D1
000008c5  C207DC00000000    @ 1803  		blt	L00145
                              1804  	;;LINE 738, 1, 1
000008cc                      1805  	.DWLopt320
000008cc  FCAD00000000      @ 1806  		movhu	(_flg_fault),D1
000008d2  F8E508              1807  		or	8,D1
000008d5  FC8700000000      @ 1808  		movhu	D1,(_flg_fault)
                              1809  	;;LINE 736, 1, 1
000008db                      1810  	.DWLopt321
000008db  04                  1811  		clr	D1
000008dc  FC8700000000      @ 1812  		movhu	D1,(_gus_trip_release_cnt)
000008e2                      1813  	L00145
                              1814  	;;LINE 743, 1, 1
000008e2                      1815  	.DWLopt322
000008e2  2DAA00              1816  		mov	170,D1
000008e5  FC8600000000      @ 1817  		movbu	D1,(_guc_SCI1tx_buffer)
                              1818  	;;LINE 744, 1, 1
000008eb                      1819  	.DWLopt323
000008eb  2DC100              1820  		mov	193,D1
000008ee  FC8600000000      @ 1821  		movbu	D1,(_guc_SCI1tx_buffer+1)
                              1822  	;;LINE 745, 1, 1
000008f4                      1823  	.DWLopt324
000008f4  850D                1824  		mov	13,D1
000008f6  FC8600000000      @ 1825  		movbu	D1,(_guc_SCI1tx_buffer+2)
                              1826  	;;LINE 747, 1, 1
000008fc                      1827  	.DWLopt325
000008fc  FCAD00000000      @ 1828  		movhu	(_gus_freq_real),D1
                              1829  	;;LINE 743, 0, 1
00000902                      1830  	.DWLopt326
00000902  FCDC00000000      @ 1831  		mov	_guc_SCI1tx_buffer,A0
                              1832  	;;LINE 747, 0, 1
00000908                      1833  	.DWLopt327
00000908  F89700              1834  		movhu	D1,(SP)
                              1835  	;;LINE 748, 1, 1
0000090b                      1836  	.DWLopt328
0000090b  F8B900              1837  		movbu	(SP),D1
0000090e  FC8600000000      @ 1838  		movbu	D1,(_guc_SCI1tx_buffer+3)
                              1839  	;;LINE 749, 1, 1
00000914                      1840  	.DWLopt329
00000914  F8B901              1841  		movbu	(1,SP),D1
00000917  FC8600000000      @ 1842  		movbu	D1,(_guc_SCI1tx_buffer+4)
                              1843  	;;LINE 753, 1, 1
0000091d                      1844  	.DWLopt330
0000091d  FCAD00000000      @ 1845  		movhu	(_gus_Uout_real),D1
00000923  F89700              1846  		movhu	D1,(SP)
                              1847  	;;LINE 754, 1, 1
00000926                      1848  	.DWLopt331
00000926  F8B900              1849  		movbu	(SP),D1
00000929  FC8600000000      @ 1850  		movbu	D1,(_guc_SCI1tx_buffer+5)
                              1851  	;;LINE 755, 1, 1
0000092f                      1852  	.DWLopt332
0000092f  F8B901              1853  		movbu	(1,SP),D1
00000932  FC8600000000      @ 1854  		movbu	D1,(_guc_SCI1tx_buffer+6)
                              1855  	;;LINE 757, 1, 1
00000938                      1856  	.DWLopt333
00000938  FCAD00000000      @ 1857  		movhu	(_gus_Udc_for_disp),D1
0000093e  F89700              1858  		movhu	D1,(SP)
                              1859  	;;LINE 758, 1, 1
00000941                      1860  	.DWLopt334
00000941  F8B900              1861  		movbu	(SP),D1
00000944  FC8600000000      @ 1862  		movbu	D1,(_guc_SCI1tx_buffer+7)
                              1863  	;;LINE 759, 1, 1
0000094a                      1864  	.DWLopt335
0000094a  F8B901              1865  		movbu	(1,SP),D1
0000094d  FC8600000000      @ 1866  		movbu	D1,(_guc_SCI1tx_buffer+8)
                              1867  	;;LINE 761, 1, 1
00000953                      1868  	.DWLopt336
00000953  FCAD00000000      @ 1869  		movhu	(_gus_Iout_for_disp),D1
00000959  F89700              1870  		movhu	D1,(SP)
                              1871  	;;LINE 763, 1, 1
0000095c                      1872  	.DWLopt337
0000095c  F8B900              1873  		movbu	(SP),D1
0000095f  FC8600000000      @ 1874  		movbu	D1,(_guc_SCI1tx_buffer+9)
                              1875  	;;LINE 764, 1, 1
00000965                      1876  	.DWLopt338
00000965  F8B901              1877  		movbu	(1,SP),D1
00000968  FC8600000000      @ 1878  		movbu	D1,(_guc_SCI1tx_buffer+10)
                              1879  	;;LINE 768, 1, 1
0000096e                      1880  	.DWLopt339
0000096e  FCAD00000000      @ 1881  		movhu	(_gus_phase_adv_degree),D1
00000974  F89700              1882  		movhu	D1,(SP)
                              1883  	;;LINE 769, 1, 1
00000977                      1884  	.DWLopt340
00000977  F8B900              1885  		movbu	(SP),D1
0000097a  FC8600000000      @ 1886  		movbu	D1,(_guc_SCI1tx_buffer+11)
                              1887  	;;LINE 770, 1, 1
00000980                      1888  	.DWLopt341
00000980  F8B901              1889  		movbu	(1,SP),D1
00000983  FC8600000000      @ 1890  		movbu	D1,(_guc_SCI1tx_buffer+12)
                              1891  	;;LINE 772, 1, 1
00000989                      1892  	.DWLopt342
00000989  FCAD00000000      @ 1893  		movhu	(_ram_para+80),D1
0000098f  A501                1894  		cmp	1,D1
00000991  C807DC00000000    @ 1895  		bne	L00157
                              1896  	;;LINE 774, 1, 1
00000998                      1897  	.DWLopt343
00000998  FCAD00000000      @ 1898  		movhu	(_gss_Tm),D1
0000099e  2940                1899  		add	64,D1
000009a0  F89700              1900  		movhu	D1,(SP)
000009a3                      1901  	L00157
                              1902  	;;LINE 780, 1, 1
000009a3                      1903  	.DWLopt344
000009a3  F8B900              1904  		movbu	(SP),D1
000009a6  FC8600000000      @ 1905  		movbu	D1,(_guc_SCI1tx_buffer+13)
                              1906  	;;LINE 782, 1, 1
000009ac                      1907  	.DWLopt345
000009ac  FCAD00000000      @ 1908  		movhu	(_flg_fault),D1
000009b2  F8ED04              1909  		btst	4,D1
000009b5  C907DC00000000    @ 1910  		beq	L00160
                              1911  	;;LINE 784, 1, 1
000009bc                      1912  	.DWLopt346
000009bc  FCA900000000      @ 1913  		movbu	(_guc_trip_code),D1
000009c2  FC8600000000      @ 1914  		movbu	D1,(_guc_SCI1tx_buffer+14)
                              1915  	;;LINE 785, 1, 1
000009c8                      1916  	.DWLopt347
000009c8  FCAD00000000      @ 1917  		movhu	(_flg_fault),D1
000009ce  F8ED10              1918  		btst	16,D1
000009d1  C907DC00000000    @ 1919  		beq	L00163
                              1920  	;;LINE 785, 1, 1
000009d8                      1921  	.DWLopt348
000009d8  FE000000000000    @ 1922  		bset	128,(_guc_SCI1tx_buffer+12)
                              1923  	;;LINE 0, 0, 1
000009df                      1924  	.DWLopt349
000009df  DC00000000        @ 1925  		bra	L00163
000009e4                      1926  	L00160
                              1927  	;;LINE 789, 1, 1
000009e4                      1928  	.DWLopt350
000009e4  FCA900000000      @ 1929  		movbu	(_guc_state_code),D1
000009ea  FC8600000000      @ 1930  		movbu	D1,(_guc_SCI1tx_buffer+14)
000009f0                      1931  	L00163
                              1932  	;;LINE 792, 1, 1
000009f0                      1933  	.DWLopt351
000009f0  FCAD00000000      @ 1934  		movhu	(_gss_stop_space_delaytimer),D1
                              1935  	;;LINE 794, 1, 1
000009f6                      1936  	.DWLopt352
000009f6  08                  1937  		clr	D2
                              1938  	;;LINE 792, 0, 1
000009f7                      1939  	.DWLopt353
000009f7  FC8600000000      @ 1940  		movbu	D1,(_guc_SCI1tx_buffer+15)
                              1941  	;;LINE 794, 1, 1
000009fd                      1942  	.DWLopt354
000009fd  81                  1943  		mov	D0,D1
000009fe                      1944  	.DWLopt304
                              1945  	;;LINE 0, 0, 1
000009fe                      1946  	.DWLopt355
000009fe  DB                  1947  		setlb
                              1948  	;;LINE 796, 1, 1
000009ff                      1949  	.DWLopt356
000009ff  15                  1950  		extbu	D1
00000a00  F414                1951  		movbu	(D1,A0),D1
00000a02                      1952  	.DWLopt305
00000a02  14                  1953  		extbu	D0
00000a03  E4                  1954  		add	D1,D0
                              1955  	;;LINE 794, 1, 1
00000a04                      1956  	.DWLopt357
00000a04  48                  1957  		inc	D2
00000a05  89                  1958  		mov	D2,D1
                              1959  	;;LINE 794, 1, 1
00000a06                      1960  	.DWLopt358
00000a06  16                  1961  		extbu	D2
00000a07  AA10                1962  		cmp	16,D2
00000a09  D0                  1963  		llt
                              1964  	;;LINE 798, 1, 1
00000a0a                      1965  	.DWLopt359
00000a0a  F230                1966  		not	D0
00000a0c  FC8200000000      @ 1967  		movbu	D0,(_guc_SCI1tx_buffer+16)
00000a12                      1968  	.DWLopt307
                              1969  	;;LINE 799, 1, 1
00000a12                      1970  	.DWLopt360
00000a12  DE8008              1971  		retf
00000a15                      1972  	.LDW42
                              1973  		FUNCTION	_0SCI1_ctrl_info_deal,.LDW42-_0SCI1_ctrl_info_deal
                              1974  		FUNCTION	_SCI1_ctrl_info_deal,.LDW42-_SCI1_ctrl_info_deal
                              1975  	.debug_MN_rsc		SECTION
                              1976  	;; Resource Information
                              1977  	;; resource_list  1
000000c7                      1978  	.LDW336
                              1979  		;; loc_data  1
000000c7  00000000          + 1980  		DD	.DWLopt304	;; address
000000cb  01                  1981  		DC	0x1	;;   size of loc_exp
000000cc  51                  1982  		DC	0x51	;;   DW_OP_reg1
                              1983  		;; loc_data  2
000000cd  00000000          + 1984  		DD	.DWLopt305	;; address
000000d1  01                  1985  		DC	0x1	;;   size of loc_exp
000000d2  E1                  1986  		DC	0xe1	;;   DW_OP_MN_void
                              1987  		;; end
000000d3  00000000            1988  		DD	0x0
000000d7  00                  1989  		DC	0x0
                              1990  	;; resource_list  2
000000d8                      1991  	.LDW339
                              1992  		;; loc_data  1
000000d8  00000000          + 1993  		DD	.DWLopt306	;; address
000000dc  01                  1994  		DC	0x1	;;   size of loc_exp
000000dd  50                  1995  		DC	0x50	;;   DW_OP_reg0
                              1996  		;; loc_data  2
000000de  00000000          + 1997  		DD	.DWLopt307	;; address
000000e2  01                  1998  		DC	0x1	;;   size of loc_exp
000000e3  E1                  1999  		DC	0xe1	;;   DW_OP_MN_void
                              2000  		;; end
000000e4  00000000            2001  		DD	0x0
000000e8  00                  2002  		DC	0x0
                              2003  	;; End of Resource Information
                              2004  	.debug_frame		SECTION
                              2005  	;; Frame Description Entry(FDE)
00000112  00000000          + 2006  		DD	.LDW392-.LDW391	;; length
00000116                      2007  	.LDW391
00000116  00000000          + 2008  		DD	.LFR_TOP	;; CIE_pointer
0000011a  00000000          + 2009  		DD	_SCI1_ctrl_info_deal	;; initial location
0000011e  00000000          + 2010  		DD	.LDW42-_SCI1_ctrl_info_deal	;; address_range
                              2011  		;; Prologue
00000122  02                  2012  		DC	0x2	;; DW_CFA_advance_loc1(_0SCI1_ctrl_info_deal-_SCI1_ctrl_info_deal)
00000123  00                + 2013  		DC	_0SCI1_ctrl_info_deal-_SCI1_ctrl_info_deal
00000124  0E08                2014  		DC	0xe,0x8	;; DW_CFA_def_cfa_offset(8)
00000126  8201                2015  		DC	0x82,0x1	;; DW_CFA_offset(D2,1)
                              2016  		;; Epilogue
00000128                      2017  	.LDW392
                              2018  	;; End of Frame Description Entry
                              2019  	;;FUNC E _SCI1_ctrl_info_deal
                              2020  	;;FUNC S _SCI1tx_on_dealtime
                              2021  	.text		SECTION
                              2022  		GLOBAL	_SCI1tx_on_dealtime
                              2023  		GLOBAL	_0SCI1tx_on_dealtime
00000a15                      2024  	_SCI1tx_on_dealtime
                              2025  	;;PROLOG 0x0
                              2026  	_0SCI1tx_on_dealtime		FUNCINFO _SCI1tx_on_dealtime,0,[]
                              2027  	;;LINE 803, 1, 1
00000a15                      2028  	.DWLopt361
00000a15  FCAC00000000      @ 2029  		movhu	(_flg_SCI1),D0
00000a1b  FAEC0004            2030  		btst	1024,D0
00000a1f  C907DC00000000    @ 2031  		beq	Lcb0031
                              2032  	;;LINE 826, 1, 1
00000a26                      2033  	.DWLopt362
00000a26  DE0000              2034  		retf
00000a29                      2035  	Lcb0031
                              2036  	;;LINE 805, 1, 1
00000a29                      2037  	.DWLopt363
00000a29  FAEC0010            2038  		btst	4096,D0
00000a2d  C807DC00000000    @ 2039  		bne	Lcb0032
                              2040  	;;LINE 826, 0, 1
00000a34                      2041  	.DWLopt364
00000a34  DE0000              2042  		retf
00000a37                      2043  	Lcb0032
                              2044  	;;LINE 807, 1, 1
00000a37                      2045  	.DWLopt365
00000a37  FCAC00000000      @ 2046  		movhu	(_gus_SCI1tx_delay_timer),D0
00000a3d  28FF                2047  		add	-1,D0
00000a3f  FC8300000000      @ 2048  		movhu	D0,(_gus_SCI1tx_delay_timer)
                              2049  	;;LINE 808, 1, 1
00000a45                      2050  	.DWLopt366
00000a45  1C                  2051  		exthu	D0
00000a46  A000                2052  		cmp	0,D0
00000a48  C307DC00000000    @ 2053  		bgt	L00170
                              2054  	;;LINE 810, 1, 1
00000a4f                      2055  	.DWLopt367
00000a4f  FCAC00000000      @ 2056  		movhu	(_flg_SCI1),D0
00000a55  FAE0FFEF            2057  		and	61439,D0
00000a59  FC8300000000      @ 2058  		movhu	D0,(_flg_SCI1)
                              2059  	;;LINE 811, 1, 1
00000a5f                      2060  	.DWLopt368
00000a5f  00                  2061  		clr	D0
00000a60  FC8300000000      @ 2062  		movhu	D0,(_gus_SCI1tx_delay_timer)
                              2063  	;;LINE 812, 1, 1
00000a66                      2064  	.DWLopt369
00000a66  FCAC00000000      @ 2065  		movhu	(_flg_SCI1),D0
00000a6c  FAE40020            2066  		or	8192,D0
00000a70  FC8300000000      @ 2067  		movhu	D0,(_flg_SCI1)
                              2068  	;;LINE 813, 1, 1
00000a76                      2069  	.DWLopt370
00000a76  00                  2070  		clr	D0
00000a77  FC8300000000      @ 2071  		movhu	D0,(_gus_SCI1tx_cnt)
                              2072  	;;LINE 815, 1, 1
00000a7d                      2073  	.DWLopt371
00000a7d  246889              2074  		mov	35176,A0
00000a80  8001                2075  		mov	1,D0
00000a82  F050                2076  		movbu	D0,(A0)
                              2077  	;;LINE 816, 1, 1
00000a84                      2078  	.DWLopt372
00000a84  386889              2079  		movhu	(35176),D0
00000a87  FAE0FFFE            2080  		and	65279,D0
00000a8b  F070                2081  		movhu	D0,(A0)
                              2082  	;;LINE 818, 1, 1
00000a8d                      2083  	.DWLopt373
00000a8d  8002                2084  		mov	2,D0
00000a8f  F050                2085  		movbu	D0,(A0)
                              2086  	;;LINE 819, 1, 1
00000a91                      2087  	.DWLopt374
00000a91  386889              2088  		movhu	(35176),D0
00000a94  FAE40002            2089  		or	512,D0
00000a98  F070                2090  		movhu	D0,(A0)
                              2091  	;;LINE 820, 1, 1
00000a9a                      2092  	.DWLopt375
00000a9a  FCAC00000000      @ 2093  		movhu	(_gus_SCI1tx_cnt),D0
00000aa0  40                  2094  		inc	D0
00000aa1  FC8300000000      @ 2095  		movhu	D0,(_gus_SCI1tx_cnt)
                              2096  	;;LINE 821, 1, 1
00000aa7                      2097  	.DWLopt376
00000aa7  FCA800000000      @ 2098  		movbu	(_guc_SCI1tx_buffer),D0
00000aad  0230A1              2099  		movbu	D0,(41264)
00000ab0                      2100  	L00170
                              2101  	;;LINE 826, 0, 1
00000ab0                      2102  	.DWLopt377
00000ab0  DE0000              2103  		retf
00000ab3                      2104  	.LDW43
                              2105  		FUNCTION	_0SCI1tx_on_dealtime,.LDW43-_0SCI1tx_on_dealtime
                              2106  		FUNCTION	_SCI1tx_on_dealtime,.LDW43-_SCI1tx_on_dealtime
                              2107  	;; Resource Information
                              2108  		;; No Information
                              2109  	.debug_frame		SECTION
                              2110  	;; Frame Description Entry(FDE)
00000128  00000000          + 2111  		DD	.LDW409-.LDW408	;; length
0000012c                      2112  	.LDW408
0000012c  00000000          + 2113  		DD	.LFR_TOP	;; CIE_pointer
00000130  00000000          + 2114  		DD	_SCI1tx_on_dealtime	;; initial location
00000134  00000000          + 2115  		DD	.LDW43-_SCI1tx_on_dealtime	;; address_range
                              2116  		;; Prologue
00000138  02                  2117  		DC	0x2	;; DW_CFA_advance_loc1(_0SCI1tx_on_dealtime-_SCI1tx_on_dealtime)
00000139  00                + 2118  		DC	_0SCI1tx_on_dealtime-_SCI1tx_on_dealtime
0000013a  0E00                2119  		DC	0xe,0x0	;; DW_CFA_def_cfa_offset(0)
                              2120  		;; Epilogue
0000013c                      2121  	.LDW409
                              2122  	;; End of Frame Description Entry
                              2123  	;;FUNC E _SCI1tx_on_dealtime
                              2124  	;;FUNC S _SCI1_tx_int
                              2125  	.text		SECTION
                              2126  		GLOBAL	_SCI1_tx_int
                              2127  		GLOBAL	_0SCI1_tx_int
00000ab3                      2128  	_SCI1_tx_int
                              2129  	;;PROLOG 0x0
                              2130  	_0SCI1_tx_int		FUNCINFO _SCI1_tx_int,0,[]
                              2131  	;;LINE 830, 1, 1
00000ab3                      2132  	.DWLopt378
00000ab3  00                  2133  		clr	D0
00000ab4  FC8300000000      @ 2134  		movhu	D0,(_gus_SCI1comm_abend_timer)
                              2135  	;;LINE 832, 1, 1
00000aba                      2136  	.DWLopt379
00000aba  FCAC00000000      @ 2137  		movhu	(_flg_SCI1),D0
00000ac0  FAEC0020            2138  		btst	8192,D0
00000ac4  C907DC00000000    @ 2139  		beq	L00179
                              2140  	;;LINE 834, 1, 1
00000acb                      2141  	.DWLopt380
00000acb  FCDC00000000      @ 2142  		mov	_guc_SCI1tx_buffer,A0
00000ad1  FCA800000000      @ 2143  		movbu	(_guc_SCI1tx_buffer+2),D0
00000ad7  FCAD00000000      @ 2144  		movhu	(_gus_SCI1tx_cnt),D1
00000add  2804                2145  		add	4,D0
00000adf  A1                  2146  		cmp	D0,D1
00000ae0  C007DC00000000    @ 2147  		bge	L00181
                              2148  	;;LINE 836, 1, 1
00000ae7                      2149  	.DWLopt381
00000ae7  FCAC00000000      @ 2150  		movhu	(_gus_SCI1tx_cnt),D0
00000aed  F400                2151  		movbu	(D0,A0),D0
00000aef  0230A1              2152  		movbu	D0,(41264)
                              2153  	;;LINE 837, 1, 1
00000af2                      2154  	.DWLopt382
00000af2  FCAC00000000      @ 2155  		movhu	(_gus_SCI1tx_cnt),D0
00000af8  40                  2156  		inc	D0
00000af9  FC8300000000      @ 2157  		movhu	D0,(_gus_SCI1tx_cnt)
00000aff  DC00000000        @ 2158  		bra	L00179
00000b04                      2159  	L00181
                              2160  	;;LINE 841, 1, 1
00000b04                      2161  	.DWLopt383
00000b04  FCAC00000000      @ 2162  		movhu	(_flg_SCI1),D0
00000b0a  FAE0FFDF            2163  		and	57343,D0
00000b0e  FC8300000000      @ 2164  		movhu	D0,(_flg_SCI1)
                              2165  	;;LINE 842, 1, 1
00000b14                      2166  	.DWLopt384
00000b14  00                  2167  		clr	D0
00000b15  FC8300000000      @ 2168  		movhu	D0,(_gus_SCI1tx_cnt)
                              2169  	;;LINE 845, 1, 1
00000b1b                      2170  	.DWLopt385
00000b1b  386889              2171  		movhu	(35176),D0
00000b1e  FAE0FFFD            2172  		and	65023,D0
00000b22  036889              2173  		movhu	D0,(35176)
                              2174  	;;LINE 847, 1, 1
00000b25                      2175  	.DWLopt386
00000b25  FCAC00000000      @ 2176  		movhu	(_flg_SCI1),D0
00000b2b  FAE40002            2177  		or	512,D0
00000b2f  FC8300000000      @ 2178  		movhu	D0,(_flg_SCI1)
                              2179  	;;LINE 848, 1, 1
00000b35                      2180  	.DWLopt387
00000b35  8002                2181  		mov	2,D0
00000b37  FC8300000000      @ 2182  		movhu	D0,(_gus_SCI1rx_delay_timer)
00000b3d                      2183  	L00179
                              2184  	;;LINE 852, 1, 1
00000b3d                      2185  	.DWLopt388
00000b3d  DE0000              2186  		retf
00000b40                      2187  	.LDW44
                              2188  		FUNCTION	_0SCI1_tx_int,.LDW44-_0SCI1_tx_int
                              2189  		FUNCTION	_SCI1_tx_int,.LDW44-_SCI1_tx_int
                              2190  	;; Resource Information
                              2191  		;; No Information
                              2192  	.debug_frame		SECTION
                              2193  	;; Frame Description Entry(FDE)
0000013c  00000000          + 2194  		DD	.LDW422-.LDW421	;; length
00000140                      2195  	.LDW421
00000140  00000000          + 2196  		DD	.LFR_TOP	;; CIE_pointer
00000144  00000000          + 2197  		DD	_SCI1_tx_int	;; initial location
00000148  00000000          + 2198  		DD	.LDW44-_SCI1_tx_int	;; address_range
                              2199  		;; Prologue
0000014c  02                  2200  		DC	0x2	;; DW_CFA_advance_loc1(_0SCI1_tx_int-_SCI1_tx_int)
0000014d  00                + 2201  		DC	_0SCI1_tx_int-_SCI1_tx_int
0000014e  0E00                2202  		DC	0xe,0x0	;; DW_CFA_def_cfa_offset(0)
                              2203  		;; Epilogue
00000150                      2204  	.LDW422
                              2205  	;; End of Frame Description Entry
                              2206  	;;FUNC E _SCI1_tx_int
                              2207  	.bss		SECTION
                              2208  		ALIGN	2
                              2209  		GLOBAL	_gus_SCI1rx_delay_timer
00000000  0000                2210  	_gus_SCI1rx_delay_timer	DS	2
                              2211  		OBJECT	_gus_SCI1rx_delay_timer,0x2
                              2212  		ALIGN	2
                              2213  		GLOBAL	_gus_SCI1tx_delay_timer
00000002  0000                2214  	_gus_SCI1tx_delay_timer	DS	2
                              2215  		OBJECT	_gus_SCI1tx_delay_timer,0x2
                              2216  		ALIGN	2
                              2217  		GLOBAL	_gus_SCI1comm_abend_timer
00000004  0000                2218  	_gus_SCI1comm_abend_timer	DS	2
                              2219  		OBJECT	_gus_SCI1comm_abend_timer,0x2
                              2220  		ALIGN	2
                              2221  		GLOBAL	_gus_SCI1rx_ctrl_abend_timer
00000006  0000                2222  	_gus_SCI1rx_ctrl_abend_timer	DS	2
                              2223  		OBJECT	_gus_SCI1rx_ctrl_abend_timer,0x2
                              2224  		ALIGN	2
                              2225  		GLOBAL	_gus_SCI1rx_end_timer
00000008  0000                2226  	_gus_SCI1rx_end_timer	DS	2
                              2227  		OBJECT	_gus_SCI1rx_end_timer,0x2
                              2228  		ALIGN	2
                              2229  		GLOBAL	_gus_SCI1tx_cnt
0000000a  0000                2230  	_gus_SCI1tx_cnt	DS	2
                              2231  		OBJECT	_gus_SCI1tx_cnt,0x2
                              2232  		ALIGN	2
                              2233  		GLOBAL	_gus_SCI1rx_cnt
0000000c  0000                2234  	_gus_SCI1rx_cnt	DS	2
                              2235  		OBJECT	_gus_SCI1rx_cnt,0x2
                              2236  		GLOBAL	_guc_SCI1rx_byte
0000000e  00                  2237  	_guc_SCI1rx_byte	DS	1
                              2238  		OBJECT	_guc_SCI1rx_byte,0x1
                              2239  		GLOBAL	_guc_SCI1tx_buffer
0000000f  0000000000000000    2240  	_guc_SCI1tx_buffer	DS	17
00000017  0000000000000000    2240  	
0000001f  00                  2240  	
                              2241  		OBJECT	_guc_SCI1tx_buffer,0x11
                              2242  		GLOBAL	_guc_SCI1rx_buffer
00000020  0000000000000000    2243  	_guc_SCI1rx_buffer	DS	8
                              2244  		OBJECT	_guc_SCI1rx_buffer,0x8
                              2245  		ALIGN	2
                              2246  		GLOBAL	_gus_lcd_setfreq
00000028  0000                2247  	_gus_lcd_setfreq	DS	2
                              2248  		OBJECT	_gus_lcd_setfreq,0x2
                              2249  		GLOBAL	_gus_tmppin
0000002a  00                  2250  	_gus_tmppin	DS	1
                              2251  		OBJECT	_gus_tmppin,0x1
                              2252  	.text		SECTION
00000b40                      2253  	.LPC_END
                              2254  	.debug_abbrev		SECTION
                              2255  	;; Abbreviation Tables
00000000                      2256  	.LAB_TOP
                              2257  		;; decl 1
00000000  01                  2258  		DC	0x1	;; abbrev_code
00000001  11                  2259  		DC	0x11	;; DW_TAG_compile_unit
00000002  01                  2260  		DC	0x1	;; DW_CHILDREN_yes
00000003  0308                2261  		DC	0x3,0x8	;; DW_AT_name, DW_FORM_string
00000005  1006                2262  		DC	0x10,0x6	;; DW_AT_stmt_list, DW_FORM_data4
00000007  1101                2263  		DC	0x11,0x1	;; DW_AT_low_pc, DW_FORM_addr
00000009  1201                2264  		DC	0x12,0x1	;; DW_AT_high_pc, DW_FORM_addr
0000000b  1305                2265  		DC	0x13,0x5	;; DW_AT_language, DW_FORM_data2
0000000d  1B08                2266  		DC	0x1b,0x8	;; DW_AT_comp_dir, DW_FORM_string
0000000f  2508                2267  		DC	0x25,0x8	;; DW_AT_producer, DW_FORM_string
00000011  420B                2268  		DC	0x42,0xb	;; DW_AT_identifier_case, DW_FORM_data1
00000013  00                  2269  		DC	0x0
00000014  00                  2270  		DC	0x0
                              2271  		;; decl 2
00000015  02                  2272  		DC	0x2	;; abbrev_code
00000016  24                  2273  		DC	0x24	;; DW_TAG_base_type
00000017  00                  2274  		DC	0x0	;; DW_CHILDREN_no
00000018  0308                2275  		DC	0x3,0x8	;; DW_AT_name, DW_FORM_string
0000001a  0B0F                2276  		DC	0xb,0xf	;; DW_AT_byte_size, DW_FORM_udata
0000001c  3E05                2277  		DC	0x3e,0x5	;; DW_AT_encoding, DW_FORM_data2
0000001e  00                  2278  		DC	0x0
0000001f  00                  2279  		DC	0x0
                              2280  		;; decl 3
00000020  03                  2281  		DC	0x3	;; abbrev_code
00000021  01                  2282  		DC	0x1	;; DW_TAG_array_type
00000022  01                  2283  		DC	0x1	;; DW_CHILDREN_yes
00000023  090B                2284  		DC	0x9,0xb	;; DW_AT_ordering, DW_FORM_data1
00000025  4913                2285  		DC	0x49,0x13	;; DW_AT_type, DW_FORM_ref4
00000027  00                  2286  		DC	0x0
00000028  00                  2287  		DC	0x0
                              2288  		;; decl 4
00000029  04                  2289  		DC	0x4	;; abbrev_code
0000002a  21                  2290  		DC	0x21	;; DW_TAG_subrange_type
0000002b  00                  2291  		DC	0x0	;; DW_CHILDREN_no
0000002c  0B0F                2292  		DC	0xb,0xf	;; DW_AT_byte_size, DW_FORM_udata
0000002e  2F0F                2293  		DC	0x2f,0xf	;; DW_AT_upper_bound, DW_FORM_udata
00000030  00                  2294  		DC	0x0
00000031  00                  2295  		DC	0x0
                              2296  		;; decl 5
00000032  05                  2297  		DC	0x5	;; abbrev_code
00000033  16                  2298  		DC	0x16	;; DW_TAG_typedef
00000034  00                  2299  		DC	0x0	;; DW_CHILDREN_no
00000035  0308                2300  		DC	0x3,0x8	;; DW_AT_name, DW_FORM_string
00000037  4913                2301  		DC	0x49,0x13	;; DW_AT_type, DW_FORM_ref4
00000039  00                  2302  		DC	0x0
0000003a  00                  2303  		DC	0x0
                              2304  		;; decl 6
0000003b  06                  2305  		DC	0x6	;; abbrev_code
0000003c  13                  2306  		DC	0x13	;; DW_TAG_structure_type
0000003d  01                  2307  		DC	0x1	;; DW_CHILDREN_yes
0000003e  0B0F                2308  		DC	0xb,0xf	;; DW_AT_byte_size, DW_FORM_udata
00000040  00                  2309  		DC	0x0
00000041  00                  2310  		DC	0x0
                              2311  		;; decl 7
00000042  07                  2312  		DC	0x7	;; abbrev_code
00000043  0D                  2313  		DC	0xd	;; DW_TAG_member
00000044  00                  2314  		DC	0x0	;; DW_CHILDREN_no
00000045  0308                2315  		DC	0x3,0x8	;; DW_AT_name, DW_FORM_string
00000047  3809                2316  		DC	0x38,0x9	;; DW_AT_data_member_location, DW_FORM_block
00000049  4913                2317  		DC	0x49,0x13	;; DW_AT_type, DW_FORM_ref4
0000004b  00                  2318  		DC	0x0
0000004c  00                  2319  		DC	0x0
                              2320  		;; decl 8
0000004d  08                  2321  		DC	0x8	;; abbrev_code
0000004e  17                  2322  		DC	0x17	;; DW_TAG_union_type
0000004f  01                  2323  		DC	0x1	;; DW_CHILDREN_yes
00000050  0B0F                2324  		DC	0xb,0xf	;; DW_AT_byte_size, DW_FORM_udata
00000052  00                  2325  		DC	0x0
00000053  00                  2326  		DC	0x0
                              2327  		;; decl 9
00000054  09                  2328  		DC	0x9	;; abbrev_code
00000055  0D                  2329  		DC	0xd	;; DW_TAG_member
00000056  00                  2330  		DC	0x0	;; DW_CHILDREN_no
00000057  0308                2331  		DC	0x3,0x8	;; DW_AT_name, DW_FORM_string
00000059  0B0F                2332  		DC	0xb,0xf	;; DW_AT_byte_size, DW_FORM_udata
0000005b  0C0F                2333  		DC	0xc,0xf	;; DW_AT_bit_offset, DW_FORM_udata
0000005d  0D0F                2334  		DC	0xd,0xf	;; DW_AT_bit_size, DW_FORM_udata
0000005f  3809                2335  		DC	0x38,0x9	;; DW_AT_data_member_location, DW_FORM_block
00000061  4913                2336  		DC	0x49,0x13	;; DW_AT_type, DW_FORM_ref4
00000063  00                  2337  		DC	0x0
00000064  00                  2338  		DC	0x0
                              2339  		;; decl 10
00000065  0A                  2340  		DC	0xa	;; abbrev_code
00000066  34                  2341  		DC	0x34	;; DW_TAG_variable
00000067  00                  2342  		DC	0x0	;; DW_CHILDREN_no
00000068  0209                2343  		DC	0x2,0x9	;; DW_AT_location, DW_FORM_block
0000006a  0308                2344  		DC	0x3,0x8	;; DW_AT_name, DW_FORM_string
0000006c  3F0C                2345  		DC	0x3f,0xc	;; DW_AT_external, DW_FORM_flag
0000006e  4913                2346  		DC	0x49,0x13	;; DW_AT_type, DW_FORM_ref4
00000070  00                  2347  		DC	0x0
00000071  00                  2348  		DC	0x0
                              2349  		;; decl 11
00000072  0B                  2350  		DC	0xb	;; abbrev_code
00000073  2E                  2351  		DC	0x2e	;; DW_TAG_subprogram
00000074  01                  2352  		DC	0x1	;; DW_CHILDREN_yes
00000075  0308                2353  		DC	0x3,0x8	;; DW_AT_name, DW_FORM_string
00000077  1101                2354  		DC	0x11,0x1	;; DW_AT_low_pc, DW_FORM_addr
00000079  1201                2355  		DC	0x12,0x1	;; DW_AT_high_pc, DW_FORM_addr
0000007b  270C                2356  		DC	0x27,0xc	;; DW_AT_prototyped, DW_FORM_flag
0000007d  3A0F                2357  		DC	0x3a,0xf	;; DW_AT_decl_file, DW_FORM_udata
0000007f  3B0F                2358  		DC	0x3b,0xf	;; DW_AT_decl_line, DW_FORM_udata
00000081  3F0C                2359  		DC	0x3f,0xc	;; DW_AT_external, DW_FORM_flag
00000083  4009                2360  		DC	0x40,0x9	;; DW_AT_frame_base, DW_FORM_block
00000085  00                  2361  		DC	0x0
00000086  00                  2362  		DC	0x0
                              2363  		;; decl 12
00000087  0C                  2364  		DC	0xc	;; abbrev_code
00000088  34                  2365  		DC	0x34	;; DW_TAG_variable
00000089  00                  2366  		DC	0x0	;; DW_CHILDREN_no
0000008a  0308                2367  		DC	0x3,0x8	;; DW_AT_name, DW_FORM_string
0000008c  3F0C                2368  		DC	0x3f,0xc	;; DW_AT_external, DW_FORM_flag
0000008e  4913                2369  		DC	0x49,0x13	;; DW_AT_type, DW_FORM_ref4
00000090  834006              2370  		DC	0x83,0x40,0x6	;; DW_AT_MN_resource, DW_FORM_data4
00000093  00                  2371  		DC	0x0
00000094  00                  2372  		DC	0x0
                              2373  		;; decl 13
00000095  0D                  2374  		DC	0xd	;; abbrev_code
00000096  0B                  2375  		DC	0xb	;; DW_TAG_lexical_block
00000097  01                  2376  		DC	0x1	;; DW_CHILDREN_yes
00000098  1101                2377  		DC	0x11,0x1	;; DW_AT_low_pc, DW_FORM_addr
0000009a  1201                2378  		DC	0x12,0x1	;; DW_AT_high_pc, DW_FORM_addr
0000009c  00                  2379  		DC	0x0
0000009d  00                  2380  		DC	0x0
                              2381  		;; end
0000009e  00                  2382  		DC	0x0
                              2383  	;; End of Abbreviation Tables
                              2384  	.debug_info		SECTION
                              2385  	;; Debugging Information Entries
00000000                      2386  	.LI_TOP
                              2387  	;; header
00000000  00000000          + 2388  		DD	.LI_E-.LI_B	;; length
00000004                      2389  	.LI_B
00000004  0200                2390  		DW	0x2	;; version
00000006  00000000          + 2391  		DD	.LAB_TOP	;; abbrev_table
0000000a  04                  2392  		DC	0x4	;; address_width
                              2393  	;; entry 1
0000000b  01                  2394  		DC	0x1	;; abbrev_code
0000000c  636F64655C70616E    2395  		DC	"code\\panel_comm.c",0x0	;; DW_AT_name
00000014  656C5F636F6D6D2E    2395  	
0000001c  6300                2395  	
0000001e  00000000          + 2396  		DD	.LLN_TOP	;; DW_AT_stmt_list
00000022  00000000          + 2397  		DD	.LPC_TOP	;; DW_AT_low_pc
00000026  00000000          + 2398  		DD	.LPC_END	;; DW_AT_high_pc
0000002a  0100                2399  		DW	0x1	;; DW_AT_language
0000002c  463A5C576F726B20    2400  		DC	"F:\\Work Projects\\MotorDrive\\1000W_MotorDrive\\SoftWare\\1000W",0x0	;; DW_AT_comp_dir
00000034  50726F6A65637473    2400  	
0000003c  5C4D6F746F724472    2400  	
00000044  6976655C31303030    2400  	
0000004c  575F4D6F746F7244    2400  	
00000054  726976655C536F66    2400  	
0000005c  74576172655C3130    2400  	
00000064  30305700            2400  	
00000068  4D4E313033532053    2401  		DC	"MN103S Series C Compiler Windows V5.4R1 Nov 30 2011",0x0	;; DW_AT_producer
00000070  6572696573204320    2401  	
00000078  436F6D70696C6572    2401  	
00000080  2057696E646F7773    2401  	
00000088  2056352E34523120    2401  	
00000090  4E6F762033302032    2401  	
00000098  30313100            2401  	
0000009c  00                  2402  		DC	0x0	;; DW_AT_identifier_case
                              2403  	;; entry 2
0000009d                      2404  	.LDW10
0000009d  02                  2405  		DC	0x2	;; abbrev_code
0000009e  646F75626C6500      2406  		DC	"double",0x0	;; DW_AT_name
000000a5  08                  2407  		DC	0x8	;; DW_AT_byte_size
000000a6  0400                2408  		DW	0x4	;; DW_AT_encoding
                              2409  	;; entry 3
000000a8                      2410  	.LDW9
000000a8  02                  2411  		DC	0x2	;; abbrev_code
000000a9  666C6F617400        2412  		DC	"float",0x0	;; DW_AT_name
000000af  04                  2413  		DC	0x4	;; DW_AT_byte_size
000000b0  0400                2414  		DW	0x4	;; DW_AT_encoding
                              2415  	;; entry 4
000000b2                      2416  	.LDW8
000000b2  02                  2417  		DC	0x2	;; abbrev_code
000000b3  6C6F6E67206C6F6E    2418  		DC	"long long",0x0	;; DW_AT_name
000000bb  6700                2418  	
000000bd  08                  2419  		DC	0x8	;; DW_AT_byte_size
000000be  0700                2420  		DW	0x7	;; DW_AT_encoding
                              2421  	;; entry 5
000000c0                      2422  	.LDW7
000000c0  02                  2423  		DC	0x2	;; abbrev_code
000000c1  6C6F6E6700          2424  		DC	"long",0x0	;; DW_AT_name
000000c6  04                  2425  		DC	0x4	;; DW_AT_byte_size
000000c7  0700                2426  		DW	0x7	;; DW_AT_encoding
                              2427  	;; entry 6
000000c9                      2428  	.LDW6
000000c9  02                  2429  		DC	0x2	;; abbrev_code
000000ca  73686F727400        2430  		DC	"short",0x0	;; DW_AT_name
000000d0  02                  2431  		DC	0x2	;; DW_AT_byte_size
000000d1  0700                2432  		DW	0x7	;; DW_AT_encoding
                              2433  	;; entry 7
000000d3                      2434  	.LDW5
000000d3  02                  2435  		DC	0x2	;; abbrev_code
000000d4  6368617200          2436  		DC	"char",0x0	;; DW_AT_name
000000d9  01                  2437  		DC	0x1	;; DW_AT_byte_size
000000da  0800                2438  		DW	0x8	;; DW_AT_encoding
                              2439  	;; entry 8
000000dc                      2440  	.LDW26
000000dc  03                  2441  		DC	0x3	;; abbrev_code
000000dd  00                  2442  		DC	0x0	;; DW_AT_ordering
000000de  00000000          + 2443  		DD	.LDW5-.LI_TOP	;; DW_AT_type
                              2444  	;; entry 9
000000e2  04                  2445  		DC	0x4	;; abbrev_code
000000e3  01                  2446  		DC	0x1	;; DW_AT_byte_size
000000e4  07                  2447  		DC	0x7	;; DW_AT_upper_bound
                              2448  	;; NULL ENTRY 10
000000e5  00                  2449  		DC	0x0
                              2450  	;; entry 11
000000e6                      2451  	.LDW25
000000e6  03                  2452  		DC	0x3	;; abbrev_code
000000e7  00                  2453  		DC	0x0	;; DW_AT_ordering
000000e8  00000000          + 2454  		DD	.LDW5-.LI_TOP	;; DW_AT_type
                              2455  	;; entry 12
000000ec  04                  2456  		DC	0x4	;; abbrev_code
000000ed  01                  2457  		DC	0x1	;; DW_AT_byte_size
000000ee  10                  2458  		DC	0x10	;; DW_AT_upper_bound
                              2459  	;; NULL ENTRY 13
000000ef  00                  2460  		DC	0x0
                              2461  	;; entry 14
000000f0                      2462  	.LDW4
000000f0  02                  2463  		DC	0x2	;; abbrev_code
000000f1  6C6F6E67206C6F6E    2464  		DC	"long long",0x0	;; DW_AT_name
000000f9  6700                2464  	
000000fb  08                  2465  		DC	0x8	;; DW_AT_byte_size
000000fc  0500                2466  		DW	0x5	;; DW_AT_encoding
                              2467  	;; entry 15
000000fe                      2468  	.LDW3
000000fe  02                  2469  		DC	0x2	;; abbrev_code
000000ff  6C6F6E6700          2470  		DC	"long",0x0	;; DW_AT_name
00000104  04                  2471  		DC	0x4	;; DW_AT_byte_size
00000105  0500                2472  		DW	0x5	;; DW_AT_encoding
                              2473  	;; entry 16
00000107                      2474  	.LDW2
00000107  02                  2475  		DC	0x2	;; abbrev_code
00000108  73686F727400        2476  		DC	"short",0x0	;; DW_AT_name
0000010e  02                  2477  		DC	0x2	;; DW_AT_byte_size
0000010f  0500                2478  		DW	0x5	;; DW_AT_encoding
                              2479  	;; entry 17
00000111                      2480  	.LDW1
00000111  02                  2481  		DC	0x2	;; abbrev_code
00000112  6368617200          2482  		DC	"char",0x0	;; DW_AT_name
00000117  01                  2483  		DC	0x1	;; DW_AT_byte_size
00000118  0600                2484  		DW	0x6	;; DW_AT_encoding
                              2485  	;; entry 18
0000011a  05                  2486  		DC	0x5	;; abbrev_code
0000011b  636861725F7400      2487  		DC	"char_t",0x0	;; DW_AT_name
00000122  00000000          + 2488  		DD	.LDW1-.LI_TOP	;; DW_AT_type
                              2489  	;; entry 19
00000126  05                  2490  		DC	0x5	;; abbrev_code
00000127  696E74385F7400      2491  		DC	"int8_t",0x0	;; DW_AT_name
0000012e  00000000          + 2492  		DD	.LDW1-.LI_TOP	;; DW_AT_type
                              2493  	;; entry 20
00000132  05                  2494  		DC	0x5	;; abbrev_code
00000133  696E7431365F7400    2495  		DC	"int16_t",0x0	;; DW_AT_name
0000013b  00000000          + 2496  		DD	.LDW2-.LI_TOP	;; DW_AT_type
                              2497  	;; entry 21
0000013f  05                  2498  		DC	0x5	;; abbrev_code
00000140  696E7433325F7400    2499  		DC	"int32_t",0x0	;; DW_AT_name
00000148  00000000          + 2500  		DD	.LDW3-.LI_TOP	;; DW_AT_type
                              2501  	;; entry 22
0000014c  05                  2502  		DC	0x5	;; abbrev_code
0000014d  696E7436345F7400    2503  		DC	"int64_t",0x0	;; DW_AT_name
00000155  00000000          + 2504  		DD	.LDW4-.LI_TOP	;; DW_AT_type
                              2505  	;; entry 23
00000159  05                  2506  		DC	0x5	;; abbrev_code
0000015a  75696E74385F7400    2507  		DC	"uint8_t",0x0	;; DW_AT_name
00000162  00000000          + 2508  		DD	.LDW5-.LI_TOP	;; DW_AT_type
                              2509  	;; entry 24
00000166  05                  2510  		DC	0x5	;; abbrev_code
00000167  75696E7431365F74    2511  		DC	"uint16_t",0x0	;; DW_AT_name
0000016f  00                  2511  	
00000170  00000000          + 2512  		DD	.LDW6-.LI_TOP	;; DW_AT_type
                              2513  	;; entry 25
00000174  05                  2514  		DC	0x5	;; abbrev_code
00000175  75696E7433325F74    2515  		DC	"uint32_t",0x0	;; DW_AT_name
0000017d  00                  2515  	
0000017e  00000000          + 2516  		DD	.LDW7-.LI_TOP	;; DW_AT_type
                              2517  	;; entry 26
00000182  05                  2518  		DC	0x5	;; abbrev_code
00000183  75696E7436345F74    2519  		DC	"uint64_t",0x0	;; DW_AT_name
0000018b  00                  2519  	
0000018c  00000000          + 2520  		DD	.LDW8-.LI_TOP	;; DW_AT_type
                              2521  	;; entry 27
00000190  05                  2522  		DC	0x5	;; abbrev_code
00000191  666C6F617433325F    2523  		DC	"float32_t",0x0	;; DW_AT_name
00000199  7400                2523  	
0000019b  00000000          + 2524  		DD	.LDW9-.LI_TOP	;; DW_AT_type
                              2525  	;; entry 28
0000019f  05                  2526  		DC	0x5	;; abbrev_code
000001a0  666C6F617436345F    2527  		DC	"float64_t",0x0	;; DW_AT_name
000001a8  7400                2527  	
000001aa  00000000          + 2528  		DD	.LDW10-.LI_TOP	;; DW_AT_type
                              2529  	;; entry 29
000001ae                      2530  	.LDW11
000001ae  06                  2531  		DC	0x6	;; abbrev_code
000001af  08                  2532  		DC	0x8	;; DW_AT_byte_size
                              2533  	;; entry 30
000001b0  07                  2534  		DC	0x7	;; abbrev_code
000001b1  6C6F7700            2535  		DC	"low",0x0	;; DW_AT_name
                              2536  				;; DW_AT_data_member_location
000001b5  02                  2537  		DC	0x2	;;   size of loc_exp
000001b6  23                  2538  		DC	0x23	;;   DW_OP_plus_uconst
000001b7  00                  2539  		DC	0x0	;;     operand
000001b8  00000000          + 2540  		DD	.LDW3-.LI_TOP	;; DW_AT_type
                              2541  	;; entry 31
000001bc  07                  2542  		DC	0x7	;; abbrev_code
000001bd  6869676800          2543  		DC	"high",0x0	;; DW_AT_name
                              2544  				;; DW_AT_data_member_location
000001c2  02                  2545  		DC	0x2	;;   size of loc_exp
000001c3  23                  2546  		DC	0x23	;;   DW_OP_plus_uconst
000001c4  04                  2547  		DC	0x4	;;     operand
000001c5  00000000          + 2548  		DD	.LDW3-.LI_TOP	;; DW_AT_type
                              2549  	;; NULL ENTRY 32
000001c9  00                  2550  		DC	0x0
                              2551  	;; entry 33
000001ca                      2552  	.LDW12
000001ca  06                  2553  		DC	0x6	;; abbrev_code
000001cb  08                  2554  		DC	0x8	;; DW_AT_byte_size
                              2555  	;; entry 34
000001cc  07                  2556  		DC	0x7	;; abbrev_code
000001cd  6C6F7700            2557  		DC	"low",0x0	;; DW_AT_name
                              2558  				;; DW_AT_data_member_location
000001d1  02                  2559  		DC	0x2	;;   size of loc_exp
000001d2  23                  2560  		DC	0x23	;;   DW_OP_plus_uconst
000001d3  00                  2561  		DC	0x0	;;     operand
000001d4  00000000          + 2562  		DD	.LDW7-.LI_TOP	;; DW_AT_type
                              2563  	;; entry 35
000001d8  07                  2564  		DC	0x7	;; abbrev_code
000001d9  6869676800          2565  		DC	"high",0x0	;; DW_AT_name
                              2566  				;; DW_AT_data_member_location
000001de  02                  2567  		DC	0x2	;;   size of loc_exp
000001df  23                  2568  		DC	0x23	;;   DW_OP_plus_uconst
000001e0  04                  2569  		DC	0x4	;;     operand
000001e1  00000000          + 2570  		DD	.LDW7-.LI_TOP	;; DW_AT_type
                              2571  	;; NULL ENTRY 36
000001e5  00                  2572  		DC	0x0
                              2573  	;; entry 37
000001e6                      2574  	.LDW13
000001e6  08                  2575  		DC	0x8	;; abbrev_code
000001e7  08                  2576  		DC	0x8	;; DW_AT_byte_size
                              2577  	;; entry 38
000001e8  07                  2578  		DC	0x7	;; abbrev_code
000001e9  646C776F726400      2579  		DC	"dlword",0x0	;; DW_AT_name
                              2580  				;; DW_AT_data_member_location
000001f0  02                  2581  		DC	0x2	;;   size of loc_exp
000001f1  23                  2582  		DC	0x23	;;   DW_OP_plus_uconst
000001f2  00                  2583  		DC	0x0	;;     operand
000001f3  00000000          + 2584  		DD	.LDW4-.LI_TOP	;; DW_AT_type
                              2585  	;; entry 39
000001f7  07                  2586  		DC	0x7	;; abbrev_code
000001f8  6C776F726400        2587  		DC	"lword",0x0	;; DW_AT_name
                              2588  				;; DW_AT_data_member_location
000001fe  02                  2589  		DC	0x2	;;   size of loc_exp
000001ff  23                  2590  		DC	0x23	;;   DW_OP_plus_uconst
00000200  00                  2591  		DC	0x0	;;     operand
00000201  00000000          + 2592  		DD	.LDW11-.LI_TOP	;; DW_AT_type
                              2593  	;; entry 40
00000205  07                  2594  		DC	0x7	;; abbrev_code
00000206  75646C776F726400    2595  		DC	"udlword",0x0	;; DW_AT_name
                              2596  				;; DW_AT_data_member_location
0000020e  02                  2597  		DC	0x2	;;   size of loc_exp
0000020f  23                  2598  		DC	0x23	;;   DW_OP_plus_uconst
00000210  00                  2599  		DC	0x0	;;     operand
00000211  00000000          + 2600  		DD	.LDW8-.LI_TOP	;; DW_AT_type
                              2601  	;; entry 41
00000215  07                  2602  		DC	0x7	;; abbrev_code
00000216  756C776F726400      2603  		DC	"ulword",0x0	;; DW_AT_name
                              2604  				;; DW_AT_data_member_location
0000021d  02                  2605  		DC	0x2	;;   size of loc_exp
0000021e  23                  2606  		DC	0x23	;;   DW_OP_plus_uconst
0000021f  00                  2607  		DC	0x0	;;     operand
00000220  00000000          + 2608  		DD	.LDW12-.LI_TOP	;; DW_AT_type
                              2609  	;; NULL ENTRY 42
00000224  00                  2610  		DC	0x0
                              2611  	;; entry 43
00000225  05                  2612  		DC	0x5	;; abbrev_code
00000226  646C776F72645F74    2613  		DC	"dlword_type",0x0	;; DW_AT_name
0000022e  79706500            2613  	
00000232  00000000          + 2614  		DD	.LDW13-.LI_TOP	;; DW_AT_type
                              2615  	;; entry 44
00000236                      2616  	.LDW14
00000236  06                  2617  		DC	0x6	;; abbrev_code
00000237  04                  2618  		DC	0x4	;; DW_AT_byte_size
                              2619  	;; entry 45
00000238  07                  2620  		DC	0x7	;; abbrev_code
00000239  6C6F7700            2621  		DC	"low",0x0	;; DW_AT_name
                              2622  				;; DW_AT_data_member_location
0000023d  02                  2623  		DC	0x2	;;   size of loc_exp
0000023e  23                  2624  		DC	0x23	;;   DW_OP_plus_uconst
0000023f  00                  2625  		DC	0x0	;;     operand
00000240  00000000          + 2626  		DD	.LDW2-.LI_TOP	;; DW_AT_type
                              2627  	;; entry 46
00000244  07                  2628  		DC	0x7	;; abbrev_code
00000245  6869676800          2629  		DC	"high",0x0	;; DW_AT_name
                              2630  				;; DW_AT_data_member_location
0000024a  02                  2631  		DC	0x2	;;   size of loc_exp
0000024b  23                  2632  		DC	0x23	;;   DW_OP_plus_uconst
0000024c  02                  2633  		DC	0x2	;;     operand
0000024d  00000000          + 2634  		DD	.LDW2-.LI_TOP	;; DW_AT_type
                              2635  	;; NULL ENTRY 47
00000251  00                  2636  		DC	0x0
                              2637  	;; entry 48
00000252                      2638  	.LDW15
00000252  06                  2639  		DC	0x6	;; abbrev_code
00000253  04                  2640  		DC	0x4	;; DW_AT_byte_size
                              2641  	;; entry 49
00000254  07                  2642  		DC	0x7	;; abbrev_code
00000255  4C4C00              2643  		DC	"LL",0x0	;; DW_AT_name
                              2644  				;; DW_AT_data_member_location
00000258  02                  2645  		DC	0x2	;;   size of loc_exp
00000259  23                  2646  		DC	0x23	;;   DW_OP_plus_uconst
0000025a  00                  2647  		DC	0x0	;;     operand
0000025b  00000000          + 2648  		DD	.LDW1-.LI_TOP	;; DW_AT_type
                              2649  	;; entry 50
0000025f  07                  2650  		DC	0x7	;; abbrev_code
00000260  4C4800              2651  		DC	"LH",0x0	;; DW_AT_name
                              2652  				;; DW_AT_data_member_location
00000263  02                  2653  		DC	0x2	;;   size of loc_exp
00000264  23                  2654  		DC	0x23	;;   DW_OP_plus_uconst
00000265  01                  2655  		DC	0x1	;;     operand
00000266  00000000          + 2656  		DD	.LDW1-.LI_TOP	;; DW_AT_type
                              2657  	;; entry 51
0000026a  07                  2658  		DC	0x7	;; abbrev_code
0000026b  484C00              2659  		DC	"HL",0x0	;; DW_AT_name
                              2660  				;; DW_AT_data_member_location
0000026e  02                  2661  		DC	0x2	;;   size of loc_exp
0000026f  23                  2662  		DC	0x23	;;   DW_OP_plus_uconst
00000270  02                  2663  		DC	0x2	;;     operand
00000271  00000000          + 2664  		DD	.LDW1-.LI_TOP	;; DW_AT_type
                              2665  	;; entry 52
00000275  07                  2666  		DC	0x7	;; abbrev_code
00000276  484800              2667  		DC	"HH",0x0	;; DW_AT_name
                              2668  				;; DW_AT_data_member_location
00000279  02                  2669  		DC	0x2	;;   size of loc_exp
0000027a  23                  2670  		DC	0x23	;;   DW_OP_plus_uconst
0000027b  03                  2671  		DC	0x3	;;     operand
0000027c  00000000          + 2672  		DD	.LDW1-.LI_TOP	;; DW_AT_type
                              2673  	;; NULL ENTRY 53
00000280  00                  2674  		DC	0x0
                              2675  	;; entry 54
00000281                      2676  	.LDW16
00000281  06                  2677  		DC	0x6	;; abbrev_code
00000282  04                  2678  		DC	0x4	;; DW_AT_byte_size
                              2679  	;; entry 55
00000283  07                  2680  		DC	0x7	;; abbrev_code
00000284  6C6F7700            2681  		DC	"low",0x0	;; DW_AT_name
                              2682  				;; DW_AT_data_member_location
00000288  02                  2683  		DC	0x2	;;   size of loc_exp
00000289  23                  2684  		DC	0x23	;;   DW_OP_plus_uconst
0000028a  00                  2685  		DC	0x0	;;     operand
0000028b  00000000          + 2686  		DD	.LDW6-.LI_TOP	;; DW_AT_type
                              2687  	;; entry 56
0000028f  07                  2688  		DC	0x7	;; abbrev_code
00000290  6869676800          2689  		DC	"high",0x0	;; DW_AT_name
                              2690  				;; DW_AT_data_member_location
00000295  02                  2691  		DC	0x2	;;   size of loc_exp
00000296  23                  2692  		DC	0x23	;;   DW_OP_plus_uconst
00000297  02                  2693  		DC	0x2	;;     operand
00000298  00000000          + 2694  		DD	.LDW6-.LI_TOP	;; DW_AT_type
                              2695  	;; NULL ENTRY 57
0000029c  00                  2696  		DC	0x0
                              2697  	;; entry 58
0000029d                      2698  	.LDW17
0000029d  06                  2699  		DC	0x6	;; abbrev_code
0000029e  04                  2700  		DC	0x4	;; DW_AT_byte_size
                              2701  	;; entry 59
0000029f  07                  2702  		DC	0x7	;; abbrev_code
000002a0  4C4C00              2703  		DC	"LL",0x0	;; DW_AT_name
                              2704  				;; DW_AT_data_member_location
000002a3  02                  2705  		DC	0x2	;;   size of loc_exp
000002a4  23                  2706  		DC	0x23	;;   DW_OP_plus_uconst
000002a5  00                  2707  		DC	0x0	;;     operand
000002a6  00000000          + 2708  		DD	.LDW5-.LI_TOP	;; DW_AT_type
                              2709  	;; entry 60
000002aa  07                  2710  		DC	0x7	;; abbrev_code
000002ab  4C4800              2711  		DC	"LH",0x0	;; DW_AT_name
                              2712  				;; DW_AT_data_member_location
000002ae  02                  2713  		DC	0x2	;;   size of loc_exp
000002af  23                  2714  		DC	0x23	;;   DW_OP_plus_uconst
000002b0  01                  2715  		DC	0x1	;;     operand
000002b1  00000000          + 2716  		DD	.LDW5-.LI_TOP	;; DW_AT_type
                              2717  	;; entry 61
000002b5  07                  2718  		DC	0x7	;; abbrev_code
000002b6  484C00              2719  		DC	"HL",0x0	;; DW_AT_name
                              2720  				;; DW_AT_data_member_location
000002b9  02                  2721  		DC	0x2	;;   size of loc_exp
000002ba  23                  2722  		DC	0x23	;;   DW_OP_plus_uconst
000002bb  02                  2723  		DC	0x2	;;     operand
000002bc  00000000          + 2724  		DD	.LDW5-.LI_TOP	;; DW_AT_type
                              2725  	;; entry 62
000002c0  07                  2726  		DC	0x7	;; abbrev_code
000002c1  484800              2727  		DC	"HH",0x0	;; DW_AT_name
                              2728  				;; DW_AT_data_member_location
000002c4  02                  2729  		DC	0x2	;;   size of loc_exp
000002c5  23                  2730  		DC	0x23	;;   DW_OP_plus_uconst
000002c6  03                  2731  		DC	0x3	;;     operand
000002c7  00000000          + 2732  		DD	.LDW5-.LI_TOP	;; DW_AT_type
                              2733  	;; NULL ENTRY 63
000002cb  00                  2734  		DC	0x0
                              2735  	;; entry 64
000002cc                      2736  	.LDW18
000002cc  08                  2737  		DC	0x8	;; abbrev_code
000002cd  04                  2738  		DC	0x4	;; DW_AT_byte_size
                              2739  	;; entry 65
000002ce  07                  2740  		DC	0x7	;; abbrev_code
000002cf  6C776F726400        2741  		DC	"lword",0x0	;; DW_AT_name
                              2742  				;; DW_AT_data_member_location
000002d5  02                  2743  		DC	0x2	;;   size of loc_exp
000002d6  23                  2744  		DC	0x23	;;   DW_OP_plus_uconst
000002d7  00                  2745  		DC	0x0	;;     operand
000002d8  00000000          + 2746  		DD	.LDW3-.LI_TOP	;; DW_AT_type
                              2747  	;; entry 66
000002dc  07                  2748  		DC	0x7	;; abbrev_code
000002dd  776F726400          2749  		DC	"word",0x0	;; DW_AT_name
                              2750  				;; DW_AT_data_member_location
000002e2  02                  2751  		DC	0x2	;;   size of loc_exp
000002e3  23                  2752  		DC	0x23	;;   DW_OP_plus_uconst
000002e4  00                  2753  		DC	0x0	;;     operand
000002e5  00000000          + 2754  		DD	.LDW14-.LI_TOP	;; DW_AT_type
                              2755  	;; entry 67
000002e9  07                  2756  		DC	0x7	;; abbrev_code
000002ea  6279746500          2757  		DC	"byte",0x0	;; DW_AT_name
                              2758  				;; DW_AT_data_member_location
000002ef  02                  2759  		DC	0x2	;;   size of loc_exp
000002f0  23                  2760  		DC	0x23	;;   DW_OP_plus_uconst
000002f1  00                  2761  		DC	0x0	;;     operand
000002f2  00000000          + 2762  		DD	.LDW15-.LI_TOP	;; DW_AT_type
                              2763  	;; entry 68
000002f6  07                  2764  		DC	0x7	;; abbrev_code
000002f7  756C776F726400      2765  		DC	"ulword",0x0	;; DW_AT_name
                              2766  				;; DW_AT_data_member_location
000002fe  02                  2767  		DC	0x2	;;   size of loc_exp
000002ff  23                  2768  		DC	0x23	;;   DW_OP_plus_uconst
00000300  00                  2769  		DC	0x0	;;     operand
00000301  00000000          + 2770  		DD	.LDW7-.LI_TOP	;; DW_AT_type
                              2771  	;; entry 69
00000305  07                  2772  		DC	0x7	;; abbrev_code
00000306  75776F726400        2773  		DC	"uword",0x0	;; DW_AT_name
                              2774  				;; DW_AT_data_member_location
0000030c  02                  2775  		DC	0x2	;;   size of loc_exp
0000030d  23                  2776  		DC	0x23	;;   DW_OP_plus_uconst
0000030e  00                  2777  		DC	0x0	;;     operand
0000030f  00000000          + 2778  		DD	.LDW16-.LI_TOP	;; DW_AT_type
                              2779  	;; entry 70
00000313  07                  2780  		DC	0x7	;; abbrev_code
00000314  756279746500        2781  		DC	"ubyte",0x0	;; DW_AT_name
                              2782  				;; DW_AT_data_member_location
0000031a  02                  2783  		DC	0x2	;;   size of loc_exp
0000031b  23                  2784  		DC	0x23	;;   DW_OP_plus_uconst
0000031c  00                  2785  		DC	0x0	;;     operand
0000031d  00000000          + 2786  		DD	.LDW17-.LI_TOP	;; DW_AT_type
                              2787  	;; NULL ENTRY 71
00000321  00                  2788  		DC	0x0
                              2789  	;; entry 72
00000322  05                  2790  		DC	0x5	;; abbrev_code
00000323  6C776F72645F7479    2791  		DC	"lword_type",0x0	;; DW_AT_name
0000032b  706500              2791  	
0000032e  00000000          + 2792  		DD	.LDW18-.LI_TOP	;; DW_AT_type
                              2793  	;; entry 73
00000332                      2794  	.LDW19
00000332  06                  2795  		DC	0x6	;; abbrev_code
00000333  04                  2796  		DC	0x4	;; DW_AT_byte_size
                              2797  	;; entry 74
00000334  07                  2798  		DC	0x7	;; abbrev_code
00000335  6C6F7700            2799  		DC	"low",0x0	;; DW_AT_name
                              2800  				;; DW_AT_data_member_location
00000339  02                  2801  		DC	0x2	;;   size of loc_exp
0000033a  23                  2802  		DC	0x23	;;   DW_OP_plus_uconst
0000033b  00                  2803  		DC	0x0	;;     operand
0000033c  00000000          + 2804  		DD	.LDW1-.LI_TOP	;; DW_AT_type
                              2805  	;; entry 75
00000340  07                  2806  		DC	0x7	;; abbrev_code
00000341  6869676800          2807  		DC	"high",0x0	;; DW_AT_name
                              2808  				;; DW_AT_data_member_location
00000346  02                  2809  		DC	0x2	;;   size of loc_exp
00000347  23                  2810  		DC	0x23	;;   DW_OP_plus_uconst
00000348  01                  2811  		DC	0x1	;;     operand
00000349  00000000          + 2812  		DD	.LDW1-.LI_TOP	;; DW_AT_type
                              2813  	;; NULL ENTRY 76
0000034d  00                  2814  		DC	0x0
                              2815  	;; entry 77
0000034e                      2816  	.LDW20
0000034e  06                  2817  		DC	0x6	;; abbrev_code
0000034f  04                  2818  		DC	0x4	;; DW_AT_byte_size
                              2819  	;; entry 78
00000350  07                  2820  		DC	0x7	;; abbrev_code
00000351  6C6F7700            2821  		DC	"low",0x0	;; DW_AT_name
                              2822  				;; DW_AT_data_member_location
00000355  02                  2823  		DC	0x2	;;   size of loc_exp
00000356  23                  2824  		DC	0x23	;;   DW_OP_plus_uconst
00000357  00                  2825  		DC	0x0	;;     operand
00000358  00000000          + 2826  		DD	.LDW5-.LI_TOP	;; DW_AT_type
                              2827  	;; entry 79
0000035c  07                  2828  		DC	0x7	;; abbrev_code
0000035d  6869676800          2829  		DC	"high",0x0	;; DW_AT_name
                              2830  				;; DW_AT_data_member_location
00000362  02                  2831  		DC	0x2	;;   size of loc_exp
00000363  23                  2832  		DC	0x23	;;   DW_OP_plus_uconst
00000364  01                  2833  		DC	0x1	;;     operand
00000365  00000000          + 2834  		DD	.LDW5-.LI_TOP	;; DW_AT_type
                              2835  	;; NULL ENTRY 80
00000369  00                  2836  		DC	0x0
                              2837  	;; entry 81
0000036a                      2838  	.LDW21
0000036a  08                  2839  		DC	0x8	;; abbrev_code
0000036b  04                  2840  		DC	0x4	;; DW_AT_byte_size
                              2841  	;; entry 82
0000036c  07                  2842  		DC	0x7	;; abbrev_code
0000036d  776F726400          2843  		DC	"word",0x0	;; DW_AT_name
                              2844  				;; DW_AT_data_member_location
00000372  02                  2845  		DC	0x2	;;   size of loc_exp
00000373  23                  2846  		DC	0x23	;;   DW_OP_plus_uconst
00000374  00                  2847  		DC	0x0	;;     operand
00000375  00000000          + 2848  		DD	.LDW2-.LI_TOP	;; DW_AT_type
                              2849  	;; entry 83
00000379  07                  2850  		DC	0x7	;; abbrev_code
0000037a  6279746500          2851  		DC	"byte",0x0	;; DW_AT_name
                              2852  				;; DW_AT_data_member_location
0000037f  02                  2853  		DC	0x2	;;   size of loc_exp
00000380  23                  2854  		DC	0x23	;;   DW_OP_plus_uconst
00000381  00                  2855  		DC	0x0	;;     operand
00000382  00000000          + 2856  		DD	.LDW19-.LI_TOP	;; DW_AT_type
                              2857  	;; entry 84
00000386  07                  2858  		DC	0x7	;; abbrev_code
00000387  75776F726400        2859  		DC	"uword",0x0	;; DW_AT_name
                              2860  				;; DW_AT_data_member_location
0000038d  02                  2861  		DC	0x2	;;   size of loc_exp
0000038e  23                  2862  		DC	0x23	;;   DW_OP_plus_uconst
0000038f  00                  2863  		DC	0x0	;;     operand
00000390  00000000          + 2864  		DD	.LDW6-.LI_TOP	;; DW_AT_type
                              2865  	;; entry 85
00000394  07                  2866  		DC	0x7	;; abbrev_code
00000395  756279746500        2867  		DC	"ubyte",0x0	;; DW_AT_name
                              2868  				;; DW_AT_data_member_location
0000039b  02                  2869  		DC	0x2	;;   size of loc_exp
0000039c  23                  2870  		DC	0x23	;;   DW_OP_plus_uconst
0000039d  00                  2871  		DC	0x0	;;     operand
0000039e  00000000          + 2872  		DD	.LDW20-.LI_TOP	;; DW_AT_type
                              2873  	;; NULL ENTRY 86
000003a2  00                  2874  		DC	0x0
                              2875  	;; entry 87
000003a3  05                  2876  		DC	0x5	;; abbrev_code
000003a4  776F72645F747970    2877  		DC	"word_type",0x0	;; DW_AT_name
000003ac  6500                2877  	
000003ae  00000000          + 2878  		DD	.LDW21-.LI_TOP	;; DW_AT_type
                              2879  	;; entry 88
000003b2                      2880  	.LDW22
000003b2  06                  2881  		DC	0x6	;; abbrev_code
000003b3  04                  2882  		DC	0x4	;; DW_AT_byte_size
                              2883  	;; entry 89
000003b4  09                  2884  		DC	0x9	;; abbrev_code
000003b5  6269743000          2885  		DC	"bit0",0x0	;; DW_AT_name
000003ba  02                  2886  		DC	0x2	;; DW_AT_byte_size
000003bb  0F                  2887  		DC	0xf	;; DW_AT_bit_offset
000003bc  01                  2888  		DC	0x1	;; DW_AT_bit_size
                              2889  				;; DW_AT_data_member_location
000003bd  02                  2890  		DC	0x2	;;   size of loc_exp
000003be  23                  2891  		DC	0x23	;;   DW_OP_plus_uconst
000003bf  00                  2892  		DC	0x0	;;     operand
000003c0  00000000          + 2893  		DD	.LDW6-.LI_TOP	;; DW_AT_type
                              2894  	;; entry 90
000003c4  09                  2895  		DC	0x9	;; abbrev_code
000003c5  6269743100          2896  		DC	"bit1",0x0	;; DW_AT_name
000003ca  02                  2897  		DC	0x2	;; DW_AT_byte_size
000003cb  0E                  2898  		DC	0xe	;; DW_AT_bit_offset
000003cc  01                  2899  		DC	0x1	;; DW_AT_bit_size
                              2900  				;; DW_AT_data_member_location
000003cd  02                  2901  		DC	0x2	;;   size of loc_exp
000003ce  23                  2902  		DC	0x23	;;   DW_OP_plus_uconst
000003cf  00                  2903  		DC	0x0	;;     operand
000003d0  00000000          + 2904  		DD	.LDW6-.LI_TOP	;; DW_AT_type
                              2905  	;; entry 91
000003d4  09                  2906  		DC	0x9	;; abbrev_code
000003d5  6269743200          2907  		DC	"bit2",0x0	;; DW_AT_name
000003da  02                  2908  		DC	0x2	;; DW_AT_byte_size
000003db  0D                  2909  		DC	0xd	;; DW_AT_bit_offset
000003dc  01                  2910  		DC	0x1	;; DW_AT_bit_size
                              2911  				;; DW_AT_data_member_location
000003dd  02                  2912  		DC	0x2	;;   size of loc_exp
000003de  23                  2913  		DC	0x23	;;   DW_OP_plus_uconst
000003df  00                  2914  		DC	0x0	;;     operand
000003e0  00000000          + 2915  		DD	.LDW6-.LI_TOP	;; DW_AT_type
                              2916  	;; entry 92
000003e4  09                  2917  		DC	0x9	;; abbrev_code
000003e5  6269743300          2918  		DC	"bit3",0x0	;; DW_AT_name
000003ea  02                  2919  		DC	0x2	;; DW_AT_byte_size
000003eb  0C                  2920  		DC	0xc	;; DW_AT_bit_offset
000003ec  01                  2921  		DC	0x1	;; DW_AT_bit_size
                              2922  				;; DW_AT_data_member_location
000003ed  02                  2923  		DC	0x2	;;   size of loc_exp
000003ee  23                  2924  		DC	0x23	;;   DW_OP_plus_uconst
000003ef  00                  2925  		DC	0x0	;;     operand
000003f0  00000000          + 2926  		DD	.LDW6-.LI_TOP	;; DW_AT_type
                              2927  	;; entry 93
000003f4  09                  2928  		DC	0x9	;; abbrev_code
000003f5  6269743400          2929  		DC	"bit4",0x0	;; DW_AT_name
000003fa  02                  2930  		DC	0x2	;; DW_AT_byte_size
000003fb  0B                  2931  		DC	0xb	;; DW_AT_bit_offset
000003fc  01                  2932  		DC	0x1	;; DW_AT_bit_size
                              2933  				;; DW_AT_data_member_location
000003fd  02                  2934  		DC	0x2	;;   size of loc_exp
000003fe  23                  2935  		DC	0x23	;;   DW_OP_plus_uconst
000003ff  00                  2936  		DC	0x0	;;     operand
00000400  00000000          + 2937  		DD	.LDW6-.LI_TOP	;; DW_AT_type
                              2938  	;; entry 94
00000404  09                  2939  		DC	0x9	;; abbrev_code
00000405  6269743500          2940  		DC	"bit5",0x0	;; DW_AT_name
0000040a  02                  2941  		DC	0x2	;; DW_AT_byte_size
0000040b  0A                  2942  		DC	0xa	;; DW_AT_bit_offset
0000040c  01                  2943  		DC	0x1	;; DW_AT_bit_size
                              2944  				;; DW_AT_data_member_location
0000040d  02                  2945  		DC	0x2	;;   size of loc_exp
0000040e  23                  2946  		DC	0x23	;;   DW_OP_plus_uconst
0000040f  00                  2947  		DC	0x0	;;     operand
00000410  00000000          + 2948  		DD	.LDW6-.LI_TOP	;; DW_AT_type
                              2949  	;; entry 95
00000414  09                  2950  		DC	0x9	;; abbrev_code
00000415  6269743600          2951  		DC	"bit6",0x0	;; DW_AT_name
0000041a  02                  2952  		DC	0x2	;; DW_AT_byte_size
0000041b  09                  2953  		DC	0x9	;; DW_AT_bit_offset
0000041c  01                  2954  		DC	0x1	;; DW_AT_bit_size
                              2955  				;; DW_AT_data_member_location
0000041d  02                  2956  		DC	0x2	;;   size of loc_exp
0000041e  23                  2957  		DC	0x23	;;   DW_OP_plus_uconst
0000041f  00                  2958  		DC	0x0	;;     operand
00000420  00000000          + 2959  		DD	.LDW6-.LI_TOP	;; DW_AT_type
                              2960  	;; entry 96
00000424  09                  2961  		DC	0x9	;; abbrev_code
00000425  6269743700          2962  		DC	"bit7",0x0	;; DW_AT_name
0000042a  02                  2963  		DC	0x2	;; DW_AT_byte_size
0000042b  08                  2964  		DC	0x8	;; DW_AT_bit_offset
0000042c  01                  2965  		DC	0x1	;; DW_AT_bit_size
                              2966  				;; DW_AT_data_member_location
0000042d  02                  2967  		DC	0x2	;;   size of loc_exp
0000042e  23                  2968  		DC	0x23	;;   DW_OP_plus_uconst
0000042f  00                  2969  		DC	0x0	;;     operand
00000430  00000000          + 2970  		DD	.LDW6-.LI_TOP	;; DW_AT_type
                              2971  	;; entry 97
00000434  09                  2972  		DC	0x9	;; abbrev_code
00000435  6269743800          2973  		DC	"bit8",0x0	;; DW_AT_name
0000043a  02                  2974  		DC	0x2	;; DW_AT_byte_size
0000043b  07                  2975  		DC	0x7	;; DW_AT_bit_offset
0000043c  01                  2976  		DC	0x1	;; DW_AT_bit_size
                              2977  				;; DW_AT_data_member_location
0000043d  02                  2978  		DC	0x2	;;   size of loc_exp
0000043e  23                  2979  		DC	0x23	;;   DW_OP_plus_uconst
0000043f  00                  2980  		DC	0x0	;;     operand
00000440  00000000          + 2981  		DD	.LDW6-.LI_TOP	;; DW_AT_type
                              2982  	;; entry 98
00000444  09                  2983  		DC	0x9	;; abbrev_code
00000445  6269743900          2984  		DC	"bit9",0x0	;; DW_AT_name
0000044a  02                  2985  		DC	0x2	;; DW_AT_byte_size
0000044b  06                  2986  		DC	0x6	;; DW_AT_bit_offset
0000044c  01                  2987  		DC	0x1	;; DW_AT_bit_size
                              2988  				;; DW_AT_data_member_location
0000044d  02                  2989  		DC	0x2	;;   size of loc_exp
0000044e  23                  2990  		DC	0x23	;;   DW_OP_plus_uconst
0000044f  00                  2991  		DC	0x0	;;     operand
00000450  00000000          + 2992  		DD	.LDW6-.LI_TOP	;; DW_AT_type
                              2993  	;; entry 99
00000454  09                  2994  		DC	0x9	;; abbrev_code
00000455  626974313000        2995  		DC	"bit10",0x0	;; DW_AT_name
0000045b  02                  2996  		DC	0x2	;; DW_AT_byte_size
0000045c  05                  2997  		DC	0x5	;; DW_AT_bit_offset
0000045d  01                  2998  		DC	0x1	;; DW_AT_bit_size
                              2999  				;; DW_AT_data_member_location
0000045e  02                  3000  		DC	0x2	;;   size of loc_exp
0000045f  23                  3001  		DC	0x23	;;   DW_OP_plus_uconst
00000460  00                  3002  		DC	0x0	;;     operand
00000461  00000000          + 3003  		DD	.LDW6-.LI_TOP	;; DW_AT_type
                              3004  	;; entry 100
00000465  09                  3005  		DC	0x9	;; abbrev_code
00000466  626974313100        3006  		DC	"bit11",0x0	;; DW_AT_name
0000046c  02                  3007  		DC	0x2	;; DW_AT_byte_size
0000046d  04                  3008  		DC	0x4	;; DW_AT_bit_offset
0000046e  01                  3009  		DC	0x1	;; DW_AT_bit_size
                              3010  				;; DW_AT_data_member_location
0000046f  02                  3011  		DC	0x2	;;   size of loc_exp
00000470  23                  3012  		DC	0x23	;;   DW_OP_plus_uconst
00000471  00                  3013  		DC	0x0	;;     operand
00000472  00000000          + 3014  		DD	.LDW6-.LI_TOP	;; DW_AT_type
                              3015  	;; entry 101
00000476  09                  3016  		DC	0x9	;; abbrev_code
00000477  626974313200        3017  		DC	"bit12",0x0	;; DW_AT_name
0000047d  02                  3018  		DC	0x2	;; DW_AT_byte_size
0000047e  03                  3019  		DC	0x3	;; DW_AT_bit_offset
0000047f  01                  3020  		DC	0x1	;; DW_AT_bit_size
                              3021  				;; DW_AT_data_member_location
00000480  02                  3022  		DC	0x2	;;   size of loc_exp
00000481  23                  3023  		DC	0x23	;;   DW_OP_plus_uconst
00000482  00                  3024  		DC	0x0	;;     operand
00000483  00000000          + 3025  		DD	.LDW6-.LI_TOP	;; DW_AT_type
                              3026  	;; entry 102
00000487  09                  3027  		DC	0x9	;; abbrev_code
00000488  626974313300        3028  		DC	"bit13",0x0	;; DW_AT_name
0000048e  02                  3029  		DC	0x2	;; DW_AT_byte_size
0000048f  02                  3030  		DC	0x2	;; DW_AT_bit_offset
00000490  01                  3031  		DC	0x1	;; DW_AT_bit_size
                              3032  				;; DW_AT_data_member_location
00000491  02                  3033  		DC	0x2	;;   size of loc_exp
00000492  23                  3034  		DC	0x23	;;   DW_OP_plus_uconst
00000493  00                  3035  		DC	0x0	;;     operand
00000494  00000000          + 3036  		DD	.LDW6-.LI_TOP	;; DW_AT_type
                              3037  	;; entry 103
00000498  09                  3038  		DC	0x9	;; abbrev_code
00000499  626974313400        3039  		DC	"bit14",0x0	;; DW_AT_name
0000049f  02                  3040  		DC	0x2	;; DW_AT_byte_size
000004a0  01                  3041  		DC	0x1	;; DW_AT_bit_offset
000004a1  01                  3042  		DC	0x1	;; DW_AT_bit_size
                              3043  				;; DW_AT_data_member_location
000004a2  02                  3044  		DC	0x2	;;   size of loc_exp
000004a3  23                  3045  		DC	0x23	;;   DW_OP_plus_uconst
000004a4  00                  3046  		DC	0x0	;;     operand
000004a5  00000000          + 3047  		DD	.LDW6-.LI_TOP	;; DW_AT_type
                              3048  	;; entry 104
000004a9  09                  3049  		DC	0x9	;; abbrev_code
000004aa  626974313500        3050  		DC	"bit15",0x0	;; DW_AT_name
000004b0  02                  3051  		DC	0x2	;; DW_AT_byte_size
000004b1  00                  3052  		DC	0x0	;; DW_AT_bit_offset
000004b2  01                  3053  		DC	0x1	;; DW_AT_bit_size
                              3054  				;; DW_AT_data_member_location
000004b3  02                  3055  		DC	0x2	;;   size of loc_exp
000004b4  23                  3056  		DC	0x23	;;   DW_OP_plus_uconst
000004b5  00                  3057  		DC	0x0	;;     operand
000004b6  00000000          + 3058  		DD	.LDW6-.LI_TOP	;; DW_AT_type
                              3059  	;; NULL ENTRY 105
000004ba  00                  3060  		DC	0x0
                              3061  	;; entry 106
000004bb                      3062  	.LDW23
000004bb  08                  3063  		DC	0x8	;; abbrev_code
000004bc  04                  3064  		DC	0x4	;; DW_AT_byte_size
                              3065  	;; entry 107
000004bd  07                  3066  		DC	0x7	;; abbrev_code
000004be  75776F726400        3067  		DC	"uword",0x0	;; DW_AT_name
                              3068  				;; DW_AT_data_member_location
000004c4  02                  3069  		DC	0x2	;;   size of loc_exp
000004c5  23                  3070  		DC	0x23	;;   DW_OP_plus_uconst
000004c6  00                  3071  		DC	0x0	;;     operand
000004c7  00000000          + 3072  		DD	.LDW6-.LI_TOP	;; DW_AT_type
                              3073  	;; entry 108
000004cb  07                  3074  		DC	0x7	;; abbrev_code
000004cc  6269747300          3075  		DC	"bits",0x0	;; DW_AT_name
                              3076  				;; DW_AT_data_member_location
000004d1  02                  3077  		DC	0x2	;;   size of loc_exp
000004d2  23                  3078  		DC	0x23	;;   DW_OP_plus_uconst
000004d3  00                  3079  		DC	0x0	;;     operand
000004d4  00000000          + 3080  		DD	.LDW22-.LI_TOP	;; DW_AT_type
                              3081  	;; NULL ENTRY 109
000004d8  00                  3082  		DC	0x0
                              3083  	;; entry 110
000004d9  05                  3084  		DC	0x5	;; abbrev_code
000004da  666C61675F747970    3085  		DC	"flag_type",0x0	;; DW_AT_name
000004e2  6500                3085  	
000004e4  00000000          + 3086  		DD	.LDW23-.LI_TOP	;; DW_AT_type
                              3087  	;; entry 111
000004e8                      3088  	.LDW24
000004e8  06                  3089  		DC	0x6	;; abbrev_code
000004e9  0C                  3090  		DC	0xc	;; DW_AT_byte_size
                              3091  	;; entry 112
000004ea  07                  3092  		DC	0x7	;; abbrev_code
000004eb  76616C756500        3093  		DC	"value",0x0	;; DW_AT_name
                              3094  				;; DW_AT_data_member_location
000004f1  02                  3095  		DC	0x2	;;   size of loc_exp
000004f2  23                  3096  		DC	0x23	;;   DW_OP_plus_uconst
000004f3  00                  3097  		DC	0x0	;;     operand
000004f4  00000000          + 3098  		DD	.LDW2-.LI_TOP	;; DW_AT_type
                              3099  	;; entry 113
000004f8  07                  3100  		DC	0x7	;; abbrev_code
000004f9  6D617800            3101  		DC	"max",0x0	;; DW_AT_name
                              3102  				;; DW_AT_data_member_location
000004fd  02                  3103  		DC	0x2	;;   size of loc_exp
000004fe  23                  3104  		DC	0x23	;;   DW_OP_plus_uconst
000004ff  02                  3105  		DC	0x2	;;     operand
00000500  00000000          + 3106  		DD	.LDW2-.LI_TOP	;; DW_AT_type
                              3107  	;; entry 114
00000504  07                  3108  		DC	0x7	;; abbrev_code
00000505  6D696E00            3109  		DC	"min",0x0	;; DW_AT_name
                              3110  				;; DW_AT_data_member_location
00000509  02                  3111  		DC	0x2	;;   size of loc_exp
0000050a  23                  3112  		DC	0x23	;;   DW_OP_plus_uconst
0000050b  04                  3113  		DC	0x4	;;     operand
0000050c  00000000          + 3114  		DD	.LDW2-.LI_TOP	;; DW_AT_type
                              3115  	;; entry 115
00000510  07                  3116  		DC	0x7	;; abbrev_code
00000511  6564697472617465    3117  		DC	"editrate",0x0	;; DW_AT_name
00000519  00                  3117  	
                              3118  				;; DW_AT_data_member_location
0000051a  02                  3119  		DC	0x2	;;   size of loc_exp
0000051b  23                  3120  		DC	0x23	;;   DW_OP_plus_uconst
0000051c  06                  3121  		DC	0x6	;;     operand
0000051d  00000000          + 3122  		DD	.LDW2-.LI_TOP	;; DW_AT_type
                              3123  	;; entry 116
00000521  07                  3124  		DC	0x7	;; abbrev_code
00000522  6469737072617465    3125  		DC	"disprate",0x0	;; DW_AT_name
0000052a  00                  3125  	
                              3126  				;; DW_AT_data_member_location
0000052b  02                  3127  		DC	0x2	;;   size of loc_exp
0000052c  23                  3128  		DC	0x23	;;   DW_OP_plus_uconst
0000052d  08                  3129  		DC	0x8	;;     operand
0000052e  00000000          + 3130  		DD	.LDW1-.LI_TOP	;; DW_AT_type
                              3131  	;; NULL ENTRY 117
00000532  00                  3132  		DC	0x0
                              3133  	;; entry 118
00000533  05                  3134  		DC	0x5	;; abbrev_code
00000534  706172615F737479    3135  		DC	"para_style",0x0	;; DW_AT_name
0000053c  6C6500              3135  	
0000053f  00000000          + 3136  		DD	.LDW24-.LI_TOP	;; DW_AT_type
                              3137  	;; entry 119
00000543  0A                  3138  		DC	0xa	;; abbrev_code
                              3139  				;; DW_AT_location
00000544  05                  3140  		DC	0x5	;;   size of loc_exp
00000545  03                  3141  		DC	0x3	;;   DW_OP_addr
00000546  00000000          + 3142  		DD	_gus_SCI1rx_delay_timer	;;     operand
0000054a  6775735F53434931    3143  		DC	"gus_SCI1rx_delay_timer",0x0	;; DW_AT_name
00000552  72785F64656C6179    3143  	
0000055a  5F74696D657200      3143  	
00000561  01                  3144  		DC	0x1	;; DW_AT_external
00000562  00000000          + 3145  		DD	.LDW6-.LI_TOP	;; DW_AT_type
                              3146  	;; entry 120
00000566  0A                  3147  		DC	0xa	;; abbrev_code
                              3148  				;; DW_AT_location
00000567  05                  3149  		DC	0x5	;;   size of loc_exp
00000568  03                  3150  		DC	0x3	;;   DW_OP_addr
00000569  00000000          + 3151  		DD	_gus_SCI1tx_delay_timer	;;     operand
0000056d  6775735F53434931    3152  		DC	"gus_SCI1tx_delay_timer",0x0	;; DW_AT_name
00000575  74785F64656C6179    3152  	
0000057d  5F74696D657200      3152  	
00000584  01                  3153  		DC	0x1	;; DW_AT_external
00000585  00000000          + 3154  		DD	.LDW6-.LI_TOP	;; DW_AT_type
                              3155  	;; entry 121
00000589  0A                  3156  		DC	0xa	;; abbrev_code
                              3157  				;; DW_AT_location
0000058a  05                  3158  		DC	0x5	;;   size of loc_exp
0000058b  03                  3159  		DC	0x3	;;   DW_OP_addr
0000058c  00000000          + 3160  		DD	_gus_SCI1comm_abend_timer	;;     operand
00000590  6775735F53434931    3161  		DC	"gus_SCI1comm_abend_timer",0x0	;; DW_AT_name
00000598  636F6D6D5F616265    3161  	
000005a0  6E645F74696D6572    3161  	
000005a8  00                  3161  	
000005a9  01                  3162  		DC	0x1	;; DW_AT_external
000005aa  00000000          + 3163  		DD	.LDW6-.LI_TOP	;; DW_AT_type
                              3164  	;; entry 122
000005ae  0A                  3165  		DC	0xa	;; abbrev_code
                              3166  				;; DW_AT_location
000005af  05                  3167  		DC	0x5	;;   size of loc_exp
000005b0  03                  3168  		DC	0x3	;;   DW_OP_addr
000005b1  00000000          + 3169  		DD	_gus_SCI1rx_ctrl_abend_timer	;;     operand
000005b5  6775735F53434931    3170  		DC	"gus_SCI1rx_ctrl_abend_timer",0x0	;; DW_AT_name
000005bd  72785F6374726C5F    3170  	
000005c5  6162656E645F7469    3170  	
000005cd  6D657200            3170  	
000005d1  01                  3171  		DC	0x1	;; DW_AT_external
000005d2  00000000          + 3172  		DD	.LDW6-.LI_TOP	;; DW_AT_type
                              3173  	;; entry 123
000005d6  0A                  3174  		DC	0xa	;; abbrev_code
                              3175  				;; DW_AT_location
000005d7  05                  3176  		DC	0x5	;;   size of loc_exp
000005d8  03                  3177  		DC	0x3	;;   DW_OP_addr
000005d9  00000000          + 3178  		DD	_gus_SCI1rx_end_timer	;;     operand
000005dd  6775735F53434931    3179  		DC	"gus_SCI1rx_end_timer",0x0	;; DW_AT_name
000005e5  72785F656E645F74    3179  	
000005ed  696D657200          3179  	
000005f2  01                  3180  		DC	0x1	;; DW_AT_external
000005f3  00000000          + 3181  		DD	.LDW6-.LI_TOP	;; DW_AT_type
                              3182  	;; entry 124
000005f7  0A                  3183  		DC	0xa	;; abbrev_code
                              3184  				;; DW_AT_location
000005f8  05                  3185  		DC	0x5	;;   size of loc_exp
000005f9  03                  3186  		DC	0x3	;;   DW_OP_addr
000005fa  00000000          + 3187  		DD	_gus_SCI1tx_cnt	;;     operand
000005fe  6775735F53434931    3188  		DC	"gus_SCI1tx_cnt",0x0	;; DW_AT_name
00000606  74785F636E7400      3188  	
0000060d  01                  3189  		DC	0x1	;; DW_AT_external
0000060e  00000000          + 3190  		DD	.LDW6-.LI_TOP	;; DW_AT_type
                              3191  	;; entry 125
00000612  0A                  3192  		DC	0xa	;; abbrev_code
                              3193  				;; DW_AT_location
00000613  05                  3194  		DC	0x5	;;   size of loc_exp
00000614  03                  3195  		DC	0x3	;;   DW_OP_addr
00000615  00000000          + 3196  		DD	_gus_SCI1rx_cnt	;;     operand
00000619  6775735F53434931    3197  		DC	"gus_SCI1rx_cnt",0x0	;; DW_AT_name
00000621  72785F636E7400      3197  	
00000628  01                  3198  		DC	0x1	;; DW_AT_external
00000629  00000000          + 3199  		DD	.LDW6-.LI_TOP	;; DW_AT_type
                              3200  	;; entry 126
0000062d  0A                  3201  		DC	0xa	;; abbrev_code
                              3202  				;; DW_AT_location
0000062e  05                  3203  		DC	0x5	;;   size of loc_exp
0000062f  03                  3204  		DC	0x3	;;   DW_OP_addr
00000630  00000000          + 3205  		DD	_guc_SCI1rx_byte	;;     operand
00000634  6775635F53434931    3206  		DC	"guc_SCI1rx_byte",0x0	;; DW_AT_name
0000063c  72785F6279746500    3206  	
00000644  01                  3207  		DC	0x1	;; DW_AT_external
00000645  00000000          + 3208  		DD	.LDW5-.LI_TOP	;; DW_AT_type
                              3209  	;; entry 127
00000649  0A                  3210  		DC	0xa	;; abbrev_code
                              3211  				;; DW_AT_location
0000064a  05                  3212  		DC	0x5	;;   size of loc_exp
0000064b  03                  3213  		DC	0x3	;;   DW_OP_addr
0000064c  00000000          + 3214  		DD	_guc_SCI1tx_buffer	;;     operand
00000650  6775635F53434931    3215  		DC	"guc_SCI1tx_buffer",0x0	;; DW_AT_name
00000658  74785F6275666665    3215  	
00000660  7200                3215  	
00000662  01                  3216  		DC	0x1	;; DW_AT_external
00000663  00000000          + 3217  		DD	.LDW25-.LI_TOP	;; DW_AT_type
                              3218  	;; entry 128
00000667  0A                  3219  		DC	0xa	;; abbrev_code
                              3220  				;; DW_AT_location
00000668  05                  3221  		DC	0x5	;;   size of loc_exp
00000669  03                  3222  		DC	0x3	;;   DW_OP_addr
0000066a  00000000          + 3223  		DD	_guc_SCI1rx_buffer	;;     operand
0000066e  6775635F53434931    3224  		DC	"guc_SCI1rx_buffer",0x0	;; DW_AT_name
00000676  72785F6275666665    3224  	
0000067e  7200                3224  	
00000680  01                  3225  		DC	0x1	;; DW_AT_external
00000681  00000000          + 3226  		DD	.LDW26-.LI_TOP	;; DW_AT_type
                              3227  	;; entry 129
00000685  0A                  3228  		DC	0xa	;; abbrev_code
                              3229  				;; DW_AT_location
00000686  05                  3230  		DC	0x5	;;   size of loc_exp
00000687  03                  3231  		DC	0x3	;;   DW_OP_addr
00000688  00000000          + 3232  		DD	_gus_lcd_setfreq	;;     operand
0000068c  6775735F6C63645F    3233  		DC	"gus_lcd_setfreq",0x0	;; DW_AT_name
00000694  7365746672657100    3233  	
0000069c  01                  3234  		DC	0x1	;; DW_AT_external
0000069d  00000000          + 3235  		DD	.LDW6-.LI_TOP	;; DW_AT_type
                              3236  	;; entry 130
000006a1  0A                  3237  		DC	0xa	;; abbrev_code
                              3238  				;; DW_AT_location
000006a2  05                  3239  		DC	0x5	;;   size of loc_exp
000006a3  03                  3240  		DC	0x3	;;   DW_OP_addr
000006a4  00000000          + 3241  		DD	_gus_tmppin	;;     operand
000006a8  6775735F746D7070    3242  		DC	"gus_tmppin",0x0	;; DW_AT_name
000006b0  696E00              3242  	
000006b3  01                  3243  		DC	0x1	;; DW_AT_external
000006b4  00000000          + 3244  		DD	.LDW5-.LI_TOP	;; DW_AT_type
                              3245  	;; entry 131
000006b8  0B                  3246  		DC	0xb	;; abbrev_code
000006b9  534349315F636F6E    3247  		DC	"SCI1_configure",0x0	;; DW_AT_name
000006c1  66696775726500      3247  	
000006c8  00000000          + 3248  		DD	_SCI1_configure	;; DW_AT_low_pc
000006cc  00000000          + 3249  		DD	.LDW27	;; DW_AT_high_pc
000006d0  01                  3250  		DC	0x1	;; DW_AT_prototyped
000006d1  01                  3251  		DC	0x1	;; DW_AT_decl_file
000006d2  77                  3252  		DC	0x77	;; DW_AT_decl_line
000006d3  01                  3253  		DC	0x1	;; DW_AT_external
                              3254  				;; DW_AT_frame_base
000006d4  01                  3255  		DC	0x1	;;   size of loc_exp
000006d5  59                  3256  		DC	0x59	;;   DW_OP_reg9
                              3257  	;; NULL ENTRY 132
000006d6  00                  3258  		DC	0x0
                              3259  	;; entry 133
000006d7  0B                  3260  		DC	0xb	;; abbrev_code
000006d8  53434931636F6D6D    3261  		DC	"SCI1comm_reset",0x0	;; DW_AT_name
000006e0  5F726573657400      3261  	
000006e7  00000000          + 3262  		DD	_SCI1comm_reset	;; DW_AT_low_pc
000006eb  00000000          + 3263  		DD	.LDW28	;; DW_AT_high_pc
000006ef  01                  3264  		DC	0x1	;; DW_AT_prototyped
000006f0  01                  3265  		DC	0x1	;; DW_AT_decl_file
000006f1  AF02                3266  		DC	0xaf,0x2	;; DW_AT_decl_line
000006f3  01                  3267  		DC	0x1	;; DW_AT_external
                              3268  				;; DW_AT_frame_base
000006f4  01                  3269  		DC	0x1	;;   size of loc_exp
000006f5  59                  3270  		DC	0x59	;;   DW_OP_reg9
                              3271  	;; entry 134
000006f6  0C                  3272  		DC	0xc	;; abbrev_code
000006f7  6900                3273  		DC	"i",0x0	;; DW_AT_name
000006f9  00                  3274  		DC	0x0	;; DW_AT_external
000006fa  00000000          + 3275  		DD	.LDW6-.LI_TOP	;; DW_AT_type
000006fe  00000000          + 3276  		DD	.LDW65	;; DW_AT_MN_resource
                              3277  	;; NULL ENTRY 135
00000702  00                  3278  		DC	0x0
                              3279  	;; entry 136
00000703  0B                  3280  		DC	0xb	;; abbrev_code
00000704  5343493172785F6F    3281  		DC	"SCI1rx_on_dealtime",0x0	;; DW_AT_name
0000070c  6E5F6465616C7469    3281  	
00000714  6D6500              3281  	
00000717  00000000          + 3282  		DD	_SCI1rx_on_dealtime	;; DW_AT_low_pc
0000071b  00000000          + 3283  		DD	.LDW29	;; DW_AT_high_pc
0000071f  01                  3284  		DC	0x1	;; DW_AT_prototyped
00000720  01                  3285  		DC	0x1	;; DW_AT_decl_file
00000721  CB02                3286  		DC	0xcb,0x2	;; DW_AT_decl_line
00000723  01                  3287  		DC	0x1	;; DW_AT_external
                              3288  				;; DW_AT_frame_base
00000724  01                  3289  		DC	0x1	;;   size of loc_exp
00000725  59                  3290  		DC	0x59	;;   DW_OP_reg9
                              3291  	;; NULL ENTRY 137
00000726  00                  3292  		DC	0x0
                              3293  	;; entry 138
00000727  0B                  3294  		DC	0xb	;; abbrev_code
00000728  534349315F72785F    3295  		DC	"SCI1_rx_int",0x0	;; DW_AT_name
00000730  696E7400            3295  	
00000734  00000000          + 3296  		DD	_SCI1_rx_int	;; DW_AT_low_pc
00000738  00000000          + 3297  		DD	.LDW30	;; DW_AT_high_pc
0000073c  01                  3298  		DC	0x1	;; DW_AT_prototyped
0000073d  01                  3299  		DC	0x1	;; DW_AT_decl_file
0000073e  DF02                3300  		DC	0xdf,0x2	;; DW_AT_decl_line
00000740  01                  3301  		DC	0x1	;; DW_AT_external
                              3302  				;; DW_AT_frame_base
00000741  01                  3303  		DC	0x1	;;   size of loc_exp
00000742  59                  3304  		DC	0x59	;;   DW_OP_reg9
                              3305  	;; NULL ENTRY 139
00000743  00                  3306  		DC	0x0
                              3307  	;; entry 140
00000744  0B                  3308  		DC	0xb	;; abbrev_code
00000745  5343493172785F65    3309  		DC	"SCI1rx_end_delaytimer",0x0	;; DW_AT_name
0000074d  6E645F64656C6179    3309  	
00000755  74696D657200        3309  	
0000075b  00000000          + 3310  		DD	_SCI1rx_end_delaytimer	;; DW_AT_low_pc
0000075f  00000000          + 3311  		DD	.LDW31	;; DW_AT_high_pc
00000763  01                  3312  		DC	0x1	;; DW_AT_prototyped
00000764  01                  3313  		DC	0x1	;; DW_AT_decl_file
00000765  8203                3314  		DC	0x82,0x3	;; DW_AT_decl_line
00000767  01                  3315  		DC	0x1	;; DW_AT_external
                              3316  				;; DW_AT_frame_base
00000768  01                  3317  		DC	0x1	;;   size of loc_exp
00000769  59                  3318  		DC	0x59	;;   DW_OP_reg9
                              3319  	;; NULL ENTRY 141
0000076a  00                  3320  		DC	0x0
                              3321  	;; entry 142
0000076b  0B                  3322  		DC	0xb	;; abbrev_code
0000076c  53434931636F6D6D    3323  		DC	"SCI1comm_abend_dealtime",0x0	;; DW_AT_name
00000774  5F6162656E645F64    3323  	
0000077c  65616C74696D6500    3323  	
00000784  00000000          + 3324  		DD	_SCI1comm_abend_dealtime	;; DW_AT_low_pc
00000788  00000000          + 3325  		DD	.LDW32	;; DW_AT_high_pc
0000078c  01                  3326  		DC	0x1	;; DW_AT_prototyped
0000078d  01                  3327  		DC	0x1	;; DW_AT_decl_file
0000078e  9603                3328  		DC	0x96,0x3	;; DW_AT_decl_line
00000790  01                  3329  		DC	0x1	;; DW_AT_external
                              3330  				;; DW_AT_frame_base
00000791  01                  3331  		DC	0x1	;;   size of loc_exp
00000792  59                  3332  		DC	0x59	;;   DW_OP_reg9
                              3333  	;; NULL ENTRY 143
00000793  00                  3334  		DC	0x0
                              3335  	;; entry 144
00000794  0B                  3336  		DC	0xb	;; abbrev_code
00000795  5343493172785F63    3337  		DC	"SCI1rx_ctrl_abend_dealtime",0x0	;; DW_AT_name
0000079d  74726C5F6162656E    3337  	
000007a5  645F6465616C7469    3337  	
000007ad  6D6500              3337  	
000007b0  00000000          + 3338  		DD	_SCI1rx_ctrl_abend_dealtime	;; DW_AT_low_pc
000007b4  00000000          + 3339  		DD	.LDW33	;; DW_AT_high_pc
000007b8  01                  3340  		DC	0x1	;; DW_AT_prototyped
000007b9  01                  3341  		DC	0x1	;; DW_AT_decl_file
000007ba  A203                3342  		DC	0xa2,0x3	;; DW_AT_decl_line
000007bc  01                  3343  		DC	0x1	;; DW_AT_external
                              3344  				;; DW_AT_frame_base
000007bd  01                  3345  		DC	0x1	;;   size of loc_exp
000007be  59                  3346  		DC	0x59	;;   DW_OP_reg9
                              3347  	;; NULL ENTRY 145
000007bf  00                  3348  		DC	0x0
                              3349  	;; entry 146
000007c0  0B                  3350  		DC	0xb	;; abbrev_code
000007c1  5343493172785F64    3351  		DC	"SCI1rx_data_deal",0x0	;; DW_AT_name
000007c9  6174615F6465616C    3351  	
000007d1  00                  3351  	
000007d2  00000000          + 3352  		DD	_SCI1rx_data_deal	;; DW_AT_low_pc
000007d6  00000000          + 3353  		DD	.LDW34	;; DW_AT_high_pc
000007da  01                  3354  		DC	0x1	;; DW_AT_prototyped
000007db  01                  3355  		DC	0x1	;; DW_AT_decl_file
000007dc  BE03                3356  		DC	0xbe,0x3	;; DW_AT_decl_line
000007de  01                  3357  		DC	0x1	;; DW_AT_external
                              3358  				;; DW_AT_frame_base
000007df  01                  3359  		DC	0x1	;;   size of loc_exp
000007e0  59                  3360  		DC	0x59	;;   DW_OP_reg9
                              3361  	;; entry 147
000007e1  0D                  3362  		DC	0xd	;; abbrev_code
000007e2  00000000          + 3363  		DD	.LDW35	;; DW_AT_low_pc
000007e6  00000000          + 3364  		DD	.LDW36	;; DW_AT_high_pc
                              3365  	;; entry 148
000007ea  0D                  3366  		DC	0xd	;; abbrev_code
000007eb  00000000          + 3367  		DD	.LDW37	;; DW_AT_low_pc
000007ef  00000000          + 3368  		DD	.LDW38	;; DW_AT_high_pc
                              3369  	;; entry 149
000007f3  0C                  3370  		DC	0xc	;; abbrev_code
000007f4  72785F627974655F    3371  		DC	"rx_byte_sum",0x0	;; DW_AT_name
000007fc  73756D00            3371  	
00000800  00                  3372  		DC	0x0	;; DW_AT_external
00000801  00000000          + 3373  		DD	.LDW5-.LI_TOP	;; DW_AT_type
00000805  00000000          + 3374  		DD	.LDW153	;; DW_AT_MN_resource
                              3375  	;; entry 150
00000809  0C                  3376  		DC	0xc	;; abbrev_code
0000080a  6900                3377  		DC	"i",0x0	;; DW_AT_name
0000080c  00                  3378  		DC	0x0	;; DW_AT_external
0000080d  00000000          + 3379  		DD	.LDW5-.LI_TOP	;; DW_AT_type
00000811  00000000          + 3380  		DD	.LDW150	;; DW_AT_MN_resource
                              3381  	;; entry 151
00000815  0C                  3382  		DC	0xc	;; abbrev_code
00000816  72785F646174615F    3383  		DC	"rx_data_sum",0x0	;; DW_AT_name
0000081e  73756D00            3383  	
00000822  00                  3384  		DC	0x0	;; DW_AT_external
00000823  00000000          + 3385  		DD	.LDW5-.LI_TOP	;; DW_AT_type
00000827  00000000          + 3386  		DD	.LDW156	;; DW_AT_MN_resource
                              3387  	;; entry 152
0000082b  0C                  3388  		DC	0xc	;; abbrev_code
0000082c  72785F646174615F    3389  		DC	"rx_data_len",0x0	;; DW_AT_name
00000834  6C656E00            3389  	
00000838  00                  3390  		DC	0x0	;; DW_AT_external
00000839  00000000          + 3391  		DD	.LDW5-.LI_TOP	;; DW_AT_type
0000083d  00000000          + 3392  		DD	.LDW159	;; DW_AT_MN_resource
                              3393  	;; NULL ENTRY 153
00000841  00                  3394  		DC	0x0
                              3395  	;; NULL ENTRY 154
00000842  00                  3396  		DC	0x0
                              3397  	;; NULL ENTRY 155
00000843  00                  3398  		DC	0x0
                              3399  	;; entry 156
00000844  0B                  3400  		DC	0xb	;; abbrev_code
00000845  534349315F68616E    3401  		DC	"SCI1_handshake_info_deal",0x0	;; DW_AT_name
0000084d  647368616B655F69    3401  	
00000855  6E666F5F6465616C    3401  	
0000085d  00                  3401  	
0000085e  00000000          + 3402  		DD	_SCI1_handshake_info_deal	;; DW_AT_low_pc
00000862  00000000          + 3403  		DD	.LDW39	;; DW_AT_high_pc
00000866  01                  3404  		DC	0x1	;; DW_AT_prototyped
00000867  01                  3405  		DC	0x1	;; DW_AT_decl_file
00000868  F103                3406  		DC	0xf1,0x3	;; DW_AT_decl_line
0000086a  01                  3407  		DC	0x1	;; DW_AT_external
                              3408  				;; DW_AT_frame_base
0000086b  01                  3409  		DC	0x1	;;   size of loc_exp
0000086c  59                  3410  		DC	0x59	;;   DW_OP_reg9
                              3411  	;; entry 157
0000086d  0C                  3412  		DC	0xc	;; abbrev_code
0000086e  74785F627974655F    3413  		DC	"tx_byte_sum",0x0	;; DW_AT_name
00000876  73756D00            3413  	
0000087a  00                  3414  		DC	0x0	;; DW_AT_external
0000087b  00000000          + 3415  		DD	.LDW5-.LI_TOP	;; DW_AT_type
0000087f  00000000          + 3416  		DD	.LDW192	;; DW_AT_MN_resource
                              3417  	;; entry 158
00000883  0C                  3418  		DC	0xc	;; abbrev_code
00000884  6900                3419  		DC	"i",0x0	;; DW_AT_name
00000886  00                  3420  		DC	0x0	;; DW_AT_external
00000887  00000000          + 3421  		DD	.LDW5-.LI_TOP	;; DW_AT_type
0000088b  00000000          + 3422  		DD	.LDW189	;; DW_AT_MN_resource
                              3423  	;; NULL ENTRY 159
0000088f  00                  3424  		DC	0x0
                              3425  	;; entry 160
00000890  0B                  3426  		DC	0xb	;; abbrev_code
00000891  534349315F777263    3427  		DC	"SCI1_wrcmd_info_deal",0x0	;; DW_AT_name
00000899  6D645F696E666F5F    3427  	
000008a1  6465616C00          3427  	
000008a6  00000000          + 3428  		DD	_SCI1_wrcmd_info_deal	;; DW_AT_low_pc
000008aa  00000000          + 3429  		DD	.LDW40	;; DW_AT_high_pc
000008ae  01                  3430  		DC	0x1	;; DW_AT_prototyped
000008af  01                  3431  		DC	0x1	;; DW_AT_decl_file
000008b0  8304                3432  		DC	0x83,0x4	;; DW_AT_decl_line
000008b2  01                  3433  		DC	0x1	;; DW_AT_external
                              3434  				;; DW_AT_frame_base
000008b3  01                  3435  		DC	0x1	;;   size of loc_exp
000008b4  59                  3436  		DC	0x59	;;   DW_OP_reg9
                              3437  	;; entry 161
000008b5  0C                  3438  		DC	0xc	;; abbrev_code
000008b6  74785F627974655F    3439  		DC	"tx_byte_sum",0x0	;; DW_AT_name
000008be  73756D00            3439  	
000008c2  00                  3440  		DC	0x0	;; DW_AT_external
000008c3  00000000          + 3441  		DD	.LDW5-.LI_TOP	;; DW_AT_type
000008c7  00000000          + 3442  		DD	.LDW213	;; DW_AT_MN_resource
                              3443  	;; entry 162
000008cb  0C                  3444  		DC	0xc	;; abbrev_code
000008cc  6900                3445  		DC	"i",0x0	;; DW_AT_name
000008ce  00                  3446  		DC	0x0	;; DW_AT_external
000008cf  00000000          + 3447  		DD	.LDW5-.LI_TOP	;; DW_AT_type
000008d3  00000000          + 3448  		DD	.LDW210	;; DW_AT_MN_resource
                              3449  	;; entry 163
000008d7  0A                  3450  		DC	0xa	;; abbrev_code
                              3451  				;; DW_AT_location
000008d8  02                  3452  		DC	0x2	;;   size of loc_exp
000008d9  91                  3453  		DC	0x91	;;   DW_OP_fbreg
000008da  04                  3454  		DC	0x4	;;     operand
000008db  706172615F616464    3455  		DC	"para_addr",0x0	;; DW_AT_name
000008e3  7200                3455  	
000008e5  00                  3456  		DC	0x0	;; DW_AT_external
000008e6  00000000          + 3457  		DD	.LDW21-.LI_TOP	;; DW_AT_type
                              3458  	;; entry 164
000008ea  0A                  3459  		DC	0xa	;; abbrev_code
                              3460  				;; DW_AT_location
000008eb  02                  3461  		DC	0x2	;;   size of loc_exp
000008ec  91                  3462  		DC	0x91	;;   DW_OP_fbreg
000008ed  08                  3463  		DC	0x8	;;     operand
000008ee  706172615F76616C    3464  		DC	"para_val",0x0	;; DW_AT_name
000008f6  00                  3464  	
000008f7  00                  3465  		DC	0x0	;; DW_AT_external
000008f8  00000000          + 3466  		DD	.LDW21-.LI_TOP	;; DW_AT_type
                              3467  	;; entry 165
000008fc  0A                  3468  		DC	0xa	;; abbrev_code
                              3469  				;; DW_AT_location
000008fd  02                  3470  		DC	0x2	;;   size of loc_exp
000008fe  91                  3471  		DC	0x91	;;   DW_OP_fbreg
000008ff  0C                  3472  		DC	0xc	;;     operand
00000900  746D7000            3473  		DC	"tmp",0x0	;; DW_AT_name
00000904  00                  3474  		DC	0x0	;; DW_AT_external
00000905  00000000          + 3475  		DD	.LDW18-.LI_TOP	;; DW_AT_type
                              3476  	;; NULL ENTRY 166
00000909  00                  3477  		DC	0x0
                              3478  	;; entry 167
0000090a  0B                  3479  		DC	0xb	;; abbrev_code
0000090b  534349315F726463    3480  		DC	"SCI1_rdcmd_info_deal",0x0	;; DW_AT_name
00000913  6D645F696E666F5F    3480  	
0000091b  6465616C00          3480  	
00000920  00000000          + 3481  		DD	_SCI1_rdcmd_info_deal	;; DW_AT_low_pc
00000924  00000000          + 3482  		DD	.LDW41	;; DW_AT_high_pc
00000928  01                  3483  		DC	0x1	;; DW_AT_prototyped
00000929  01                  3484  		DC	0x1	;; DW_AT_decl_file
0000092a  FF04                3485  		DC	0xff,0x4	;; DW_AT_decl_line
0000092c  01                  3486  		DC	0x1	;; DW_AT_external
                              3487  				;; DW_AT_frame_base
0000092d  01                  3488  		DC	0x1	;;   size of loc_exp
0000092e  59                  3489  		DC	0x59	;;   DW_OP_reg9
                              3490  	;; entry 168
0000092f  0C                  3491  		DC	0xc	;; abbrev_code
00000930  74785F627974655F    3492  		DC	"tx_byte_sum",0x0	;; DW_AT_name
00000938  73756D00            3492  	
0000093c  00                  3493  		DC	0x0	;; DW_AT_external
0000093d  00000000          + 3494  		DD	.LDW5-.LI_TOP	;; DW_AT_type
00000941  00000000          + 3495  		DD	.LDW288	;; DW_AT_MN_resource
                              3496  	;; entry 169
00000945  0C                  3497  		DC	0xc	;; abbrev_code
00000946  6900                3498  		DC	"i",0x0	;; DW_AT_name
00000948  00                  3499  		DC	0x0	;; DW_AT_external
00000949  00000000          + 3500  		DD	.LDW5-.LI_TOP	;; DW_AT_type
0000094d  00000000          + 3501  		DD	.LDW285	;; DW_AT_MN_resource
                              3502  	;; entry 170
00000951  0A                  3503  		DC	0xa	;; abbrev_code
                              3504  				;; DW_AT_location
00000952  02                  3505  		DC	0x2	;;   size of loc_exp
00000953  91                  3506  		DC	0x91	;;   DW_OP_fbreg
00000954  04                  3507  		DC	0x4	;;     operand
00000955  706172615F616464    3508  		DC	"para_addr",0x0	;; DW_AT_name
0000095d  7200                3508  	
0000095f  00                  3509  		DC	0x0	;; DW_AT_external
00000960  00000000          + 3510  		DD	.LDW21-.LI_TOP	;; DW_AT_type
                              3511  	;; entry 171
00000964  0A                  3512  		DC	0xa	;; abbrev_code
                              3513  				;; DW_AT_location
00000965  02                  3514  		DC	0x2	;;   size of loc_exp
00000966  91                  3515  		DC	0x91	;;   DW_OP_fbreg
00000967  08                  3516  		DC	0x8	;;     operand
00000968  706172615F76616C    3517  		DC	"para_val",0x0	;; DW_AT_name
00000970  00                  3517  	
00000971  00                  3518  		DC	0x0	;; DW_AT_external
00000972  00000000          + 3519  		DD	.LDW21-.LI_TOP	;; DW_AT_type
                              3520  	;; entry 172
00000976  0A                  3521  		DC	0xa	;; abbrev_code
                              3522  				;; DW_AT_location
00000977  02                  3523  		DC	0x2	;;   size of loc_exp
00000978  91                  3524  		DC	0x91	;;   DW_OP_fbreg
00000979  0C                  3525  		DC	0xc	;;     operand
0000097a  746D7000            3526  		DC	"tmp",0x0	;; DW_AT_name
0000097e  00                  3527  		DC	0x0	;; DW_AT_external
0000097f  00000000          + 3528  		DD	.LDW18-.LI_TOP	;; DW_AT_type
                              3529  	;; NULL ENTRY 173
00000983  00                  3530  		DC	0x0
                              3531  	;; entry 174
00000984  0B                  3532  		DC	0xb	;; abbrev_code
00000985  534349315F637472    3533  		DC	"SCI1_ctrl_info_deal",0x0	;; DW_AT_name
0000098d  6C5F696E666F5F64    3533  	
00000995  65616C00            3533  	
00000999  00000000          + 3534  		DD	_SCI1_ctrl_info_deal	;; DW_AT_low_pc
0000099d  00000000          + 3535  		DD	.LDW42	;; DW_AT_high_pc
000009a1  01                  3536  		DC	0x1	;; DW_AT_prototyped
000009a2  01                  3537  		DC	0x1	;; DW_AT_decl_file
000009a3  C705                3538  		DC	0xc7,0x5	;; DW_AT_decl_line
000009a5  01                  3539  		DC	0x1	;; DW_AT_external
                              3540  				;; DW_AT_frame_base
000009a6  01                  3541  		DC	0x1	;;   size of loc_exp
000009a7  59                  3542  		DC	0x59	;;   DW_OP_reg9
                              3543  	;; entry 175
000009a8  0C                  3544  		DC	0xc	;; abbrev_code
000009a9  74785F627974655F    3545  		DC	"tx_byte_sum",0x0	;; DW_AT_name
000009b1  73756D00            3545  	
000009b5  00                  3546  		DC	0x0	;; DW_AT_external
000009b6  00000000          + 3547  		DD	.LDW5-.LI_TOP	;; DW_AT_type
000009ba  00000000          + 3548  		DD	.LDW339	;; DW_AT_MN_resource
                              3549  	;; entry 176
000009be  0C                  3550  		DC	0xc	;; abbrev_code
000009bf  6900                3551  		DC	"i",0x0	;; DW_AT_name
000009c1  00                  3552  		DC	0x0	;; DW_AT_external
000009c2  00000000          + 3553  		DD	.LDW5-.LI_TOP	;; DW_AT_type
000009c6  00000000          + 3554  		DD	.LDW336	;; DW_AT_MN_resource
                              3555  	;; entry 177
000009ca  0A                  3556  		DC	0xa	;; abbrev_code
                              3557  				;; DW_AT_location
000009cb  02                  3558  		DC	0x2	;;   size of loc_exp
000009cc  91                  3559  		DC	0x91	;;   DW_OP_fbreg
000009cd  00                  3560  		DC	0x0	;;     operand
000009ce  706172615F76616C    3561  		DC	"para_val",0x0	;; DW_AT_name
000009d6  00                  3561  	
000009d7  00                  3562  		DC	0x0	;; DW_AT_external
000009d8  00000000          + 3563  		DD	.LDW21-.LI_TOP	;; DW_AT_type
                              3564  	;; NULL ENTRY 178
000009dc  00                  3565  		DC	0x0
                              3566  	;; entry 179
000009dd  0B                  3567  		DC	0xb	;; abbrev_code
000009de  5343493174785F6F    3568  		DC	"SCI1tx_on_dealtime",0x0	;; DW_AT_name
000009e6  6E5F6465616C7469    3568  	
000009ee  6D6500              3568  	
000009f1  00000000          + 3569  		DD	_SCI1tx_on_dealtime	;; DW_AT_low_pc
000009f5  00000000          + 3570  		DD	.LDW43	;; DW_AT_high_pc
000009f9  01                  3571  		DC	0x1	;; DW_AT_prototyped
000009fa  01                  3572  		DC	0x1	;; DW_AT_decl_file
000009fb  A106                3573  		DC	0xa1,0x6	;; DW_AT_decl_line
000009fd  01                  3574  		DC	0x1	;; DW_AT_external
                              3575  				;; DW_AT_frame_base
000009fe  01                  3576  		DC	0x1	;;   size of loc_exp
000009ff  59                  3577  		DC	0x59	;;   DW_OP_reg9
                              3578  	;; NULL ENTRY 180
00000a00  00                  3579  		DC	0x0
                              3580  	;; entry 181
00000a01  0B                  3581  		DC	0xb	;; abbrev_code
00000a02  534349315F74785F    3582  		DC	"SCI1_tx_int",0x0	;; DW_AT_name
00000a0a  696E7400            3582  	
00000a0e  00000000          + 3583  		DD	_SCI1_tx_int	;; DW_AT_low_pc
00000a12  00000000          + 3584  		DD	.LDW44	;; DW_AT_high_pc
00000a16  01                  3585  		DC	0x1	;; DW_AT_prototyped
00000a17  01                  3586  		DC	0x1	;; DW_AT_decl_file
00000a18  BC06                3587  		DC	0xbc,0x6	;; DW_AT_decl_line
00000a1a  01                  3588  		DC	0x1	;; DW_AT_external
                              3589  				;; DW_AT_frame_base
00000a1b  01                  3590  		DC	0x1	;;   size of loc_exp
00000a1c  59                  3591  		DC	0x59	;;   DW_OP_reg9
                              3592  	;; NULL ENTRY 182
00000a1d  00                  3593  		DC	0x0
                              3594  	;; NULL ENTRY 183
00000a1e  00                  3595  		DC	0x0
00000a1f                      3596  	.LI_E
                              3597  	;; End of Debugging Information Entries
                              3598  	.debug_line		SECTION
                              3599  	;; Line Number Information
00000000                      3600  	.LLN_TOP
                              3601  	;; Prologue
00000000  00000000          + 3602  		DD	.LLN_E-.LLN_B	;; total_length
00000004                      3603  	.LLN_B
00000004  0200                3604  		DW	0x2	;; version
00000006  00000000          + 3605  		DD	.LLN_P_E-.LLN_P_B	;; prologue_length
0000000a                      3606  	.LLN_P_B
0000000a  01                  3607  		DC	0x1	;; minimum_instruction_length
0000000b  01                  3608  		DC	0x1	;; default_is_stmt
0000000c  FE                  3609  		DC	0xfe	;; line_base
0000000d  F6                  3610  		DC	0xf6	;; line_range
0000000e  0A                  3611  		DC	0xa	;; opcode_base
0000000f  0001010101000000    3612  		DC	0x0,0x1,0x1,0x1,0x1,0x0,0x0,0x0,0x1	;; standard_opcode_lengths
00000017  01                  3612  	
00000018  00                  3613  		DC	0x0	;; include directories
00000019  636F64655C70616E    3614  		DC	"code\\panel_comm.c",0x0	;; file_names: name
00000021  656C5F636F6D6D2E    3614  	
00000029  6300                3614  	
0000002b  00                  3615  		DC	0x0	;;           : directory index
0000002c  00                  3616  		DC	0x0	;;           : time
0000002d  00                  3617  		DC	0x0	;;           : length
0000002e  00                  3618  		DC	0x0
0000002f                      3619  	.LLN_P_E
0000002f  000502              3620  		DC	0x0,0x5,0x2	;; DW_LNE_set_address
00000032  00000000          + 3621  		DD	.DWLopt1	;;     operand
00000036  93                  3622  		DC	0x93	;; SPECIAL 147
00000037  000502              3623  		DC	0x0,0x5,0x2	;; DW_LNE_set_address
0000003a  00000000          + 3624  		DD	.DWLopt2	;;     operand
0000003e  1A                  3625  		DC	0x1a	;; SPECIAL 26
0000003f  000502              3626  		DC	0x0,0x5,0x2	;; DW_LNE_set_address
00000042  00000000          + 3627  		DD	.DWLopt3	;;     operand
00000046  0D                  3628  		DC	0xd	;; SPECIAL 13
00000047  000502              3629  		DC	0x0,0x5,0x2	;; DW_LNE_set_address
0000004a  00000000          + 3630  		DD	.DWLopt4	;;     operand
0000004e  1D                  3631  		DC	0x1d	;; SPECIAL 29
0000004f  000502              3632  		DC	0x0,0x5,0x2	;; DW_LNE_set_address
00000052  00000000          + 3633  		DD	.DWLopt5	;;     operand
00000056  1A                  3634  		DC	0x1a	;; SPECIAL 26
00000057  000502              3635  		DC	0x0,0x5,0x2	;; DW_LNE_set_address
0000005a  00000000          + 3636  		DD	.DWLopt6	;;     operand
0000005e  1C                  3637  		DC	0x1c	;; SPECIAL 28
0000005f  000502              3638  		DC	0x0,0x5,0x2	;; DW_LNE_set_address
00000062  00000000          + 3639  		DD	.DWLopt7	;;     operand
00000066  1C                  3640  		DC	0x1c	;; SPECIAL 28
00000067  000502              3641  		DC	0x0,0x5,0x2	;; DW_LNE_set_address
0000006a  00000000          + 3642  		DD	.DWLopt8	;;     operand
0000006e  28                  3643  		DC	0x28	;; SPECIAL 40
0000006f  000502              3644  		DC	0x0,0x5,0x2	;; DW_LNE_set_address
00000072  00000000          + 3645  		DD	.DWLopt9	;;     operand
00000076  0E                  3646  		DC	0xe	;; SPECIAL 14
00000077  000502              3647  		DC	0x0,0x5,0x2	;; DW_LNE_set_address
0000007a  00000000          + 3648  		DD	.DWLopt10	;;     operand
0000007e  16                  3649  		DC	0x16	;; SPECIAL 22
0000007f  000502              3650  		DC	0x0,0x5,0x2	;; DW_LNE_set_address
00000082  00000000          + 3651  		DD	.DWLopt11	;;     operand
00000086  1A                  3652  		DC	0x1a	;; SPECIAL 26
00000087  000502              3653  		DC	0x0,0x5,0x2	;; DW_LNE_set_address
0000008a  00000000          + 3654  		DD	.DWLopt12	;;     operand
0000008e  19                  3655  		DC	0x19	;; SPECIAL 25
0000008f  000502              3656  		DC	0x0,0x5,0x2	;; DW_LNE_set_address
00000092  00000000          + 3657  		DD	.DWLopt13	;;     operand
00000096  16                  3658  		DC	0x16	;; SPECIAL 22
00000097  000502              3659  		DC	0x0,0x5,0x2	;; DW_LNE_set_address
0000009a  00000000          + 3660  		DD	.DWLopt14	;;     operand
0000009e  0E                  3661  		DC	0xe	;; SPECIAL 14
0000009f  000502              3662  		DC	0x0,0x5,0x2	;; DW_LNE_set_address
000000a2  00000000          + 3663  		DD	.DWLopt15	;;     operand
000000a6  0E                  3664  		DC	0xe	;; SPECIAL 14
000000a7  000502              3665  		DC	0x0,0x5,0x2	;; DW_LNE_set_address
000000aa  00000000          + 3666  		DD	.DWLopt16	;;     operand
000000ae  0E                  3667  		DC	0xe	;; SPECIAL 14
000000af  000502              3668  		DC	0x0,0x5,0x2	;; DW_LNE_set_address
000000b2  00000000          + 3669  		DD	.DWLopt17	;;     operand
000000b6  0F                  3670  		DC	0xf	;; SPECIAL 15
000000b7  000502              3671  		DC	0x0,0x5,0x2	;; DW_LNE_set_address
000000ba  00000000          + 3672  		DD	.DWLopt18	;;     operand
000000be  0D                  3673  		DC	0xd	;; SPECIAL 13
000000bf  06                  3674  		DC	0x6	;; DW_LNS_negate_stmt
000000c0  000502              3675  		DC	0x0,0x5,0x2	;; DW_LNE_set_address
000000c3  00000000          + 3676  		DD	.LDW27	;;     operand
000000c7  000101              3677  		DC	0x0,0x1,0x1	;; DW_LNE_end_sequence
000000ca  000502              3678  		DC	0x0,0x5,0x2	;; DW_LNE_set_address
000000cd  00000000          + 3679  		DD	.DWLopt25	;;     operand
000000d1  03                  3680  		DC	0x3	;; DW_LNS_advance_line
000000d2  B202                3681  		DC	0xb2,0x2	;; 306
000000d4  01                  3682  		DC	0x1	;; DW_LNS_copy
000000d5  000502              3683  		DC	0x0,0x5,0x2	;; DW_LNE_set_address
000000d8  00000000          + 3684  		DD	.DWLopt26	;;     operand
000000dc  14                  3685  		DC	0x14	;; SPECIAL 20
000000dd  000502              3686  		DC	0x0,0x5,0x2	;; DW_LNE_set_address
000000e0  00000000          + 3687  		DD	.DWLopt27	;;     operand
000000e4  03                  3688  		DC	0x3	;; DW_LNS_advance_line
000000e5  7B                  3689  		DC	0x7b	;; -5
000000e6  01                  3690  		DC	0x1	;; DW_LNS_copy
000000e7  000502              3691  		DC	0x0,0x5,0x2	;; DW_LNE_set_address
000000ea  00000000          + 3692  		DD	.DWLopt28	;;     operand
000000ee  0E                  3693  		DC	0xe	;; SPECIAL 14
000000ef  000502              3694  		DC	0x0,0x5,0x2	;; DW_LNE_set_address
000000f2  00000000          + 3695  		DD	.DWLopt29	;;     operand
000000f6  0D                  3696  		DC	0xd	;; SPECIAL 13
000000f7  000502              3697  		DC	0x0,0x5,0x2	;; DW_LNE_set_address
000000fa  00000000          + 3698  		DD	.DWLopt30	;;     operand
000000fe  0D                  3699  		DC	0xd	;; SPECIAL 13
000000ff  000502              3700  		DC	0x0,0x5,0x2	;; DW_LNE_set_address
00000102  00000000          + 3701  		DD	.DWLopt31	;;     operand
00000106  0F                  3702  		DC	0xf	;; SPECIAL 15
00000107  06                  3703  		DC	0x6	;; DW_LNS_negate_stmt
00000108  000502              3704  		DC	0x0,0x5,0x2	;; DW_LNE_set_address
0000010b  00000000          + 3705  		DD	.DWLopt32	;;     operand
0000010f  03                  3706  		DC	0x3	;; DW_LNS_advance_line
00000110  C37D                3707  		DC	0xc3,0x7d	;; -317
00000112  01                  3708  		DC	0x1	;; DW_LNS_copy
00000113  000502              3709  		DC	0x0,0x5,0x2	;; DW_LNE_set_address
00000116  00000000          + 3710  		DD	.DWLopt33	;;     operand
0000011a  03                  3711  		DC	0x3	;; DW_LNS_advance_line
0000011b  BD02                3712  		DC	0xbd,0x2	;; 317
0000011d  01                  3713  		DC	0x1	;; DW_LNS_copy
0000011e  06                  3714  		DC	0x6	;; DW_LNS_negate_stmt
0000011f  000502              3715  		DC	0x0,0x5,0x2	;; DW_LNE_set_address
00000122  00000000          + 3716  		DD	.DWLopt34	;;     operand
00000126  0A                  3717  		DC	0xa	;; SPECIAL 10
00000127  000502              3718  		DC	0x0,0x5,0x2	;; DW_LNE_set_address
0000012a  00000000          + 3719  		DD	.DWLopt35	;;     operand
0000012e  0C                  3720  		DC	0xc	;; SPECIAL 12
0000012f  000502              3721  		DC	0x0,0x5,0x2	;; DW_LNE_set_address
00000132  00000000          + 3722  		DD	.DWLopt36	;;     operand
00000136  11                  3723  		DC	0x11	;; SPECIAL 17
00000137  000502              3724  		DC	0x0,0x5,0x2	;; DW_LNE_set_address
0000013a  00000000          + 3725  		DD	.DWLopt37	;;     operand
0000013e  0C                  3726  		DC	0xc	;; SPECIAL 12
0000013f  000502              3727  		DC	0x0,0x5,0x2	;; DW_LNE_set_address
00000142  00000000          + 3728  		DD	.DWLopt38	;;     operand
00000146  0E                  3729  		DC	0xe	;; SPECIAL 14
00000147  06                  3730  		DC	0x6	;; DW_LNS_negate_stmt
00000148  000502              3731  		DC	0x0,0x5,0x2	;; DW_LNE_set_address
0000014b  00000000          + 3732  		DD	.DWLopt39	;;     operand
0000014f  03                  3733  		DC	0x3	;; DW_LNS_advance_line
00000150  BE7D                3734  		DC	0xbe,0x7d	;; -322
00000152  01                  3735  		DC	0x1	;; DW_LNS_copy
00000153  000502              3736  		DC	0x0,0x5,0x2	;; DW_LNE_set_address
00000156  00000000          + 3737  		DD	.DWLopt40	;;     operand
0000015a  03                  3738  		DC	0x3	;; DW_LNS_advance_line
0000015b  C202                3739  		DC	0xc2,0x2	;; 322
0000015d  01                  3740  		DC	0x1	;; DW_LNS_copy
0000015e  06                  3741  		DC	0x6	;; DW_LNS_negate_stmt
0000015f  000502              3742  		DC	0x0,0x5,0x2	;; DW_LNE_set_address
00000162  00000000          + 3743  		DD	.DWLopt41	;;     operand
00000166  0A                  3744  		DC	0xa	;; SPECIAL 10
00000167  000502              3745  		DC	0x0,0x5,0x2	;; DW_LNE_set_address
0000016a  00000000          + 3746  		DD	.DWLopt42	;;     operand
0000016e  0C                  3747  		DC	0xc	;; SPECIAL 12
0000016f  000502              3748  		DC	0x0,0x5,0x2	;; DW_LNE_set_address
00000172  00000000          + 3749  		DD	.DWLopt43	;;     operand
00000176  13                  3750  		DC	0x13	;; SPECIAL 19
00000177  000502              3751  		DC	0x0,0x5,0x2	;; DW_LNE_set_address
0000017a  00000000          + 3752  		DD	.DWLopt44	;;     operand
0000017e  0A                  3753  		DC	0xa	;; SPECIAL 10
0000017f  000502              3754  		DC	0x0,0x5,0x2	;; DW_LNE_set_address
00000182  00000000          + 3755  		DD	.DWLopt45	;;     operand
00000186  0F                  3756  		DC	0xf	;; SPECIAL 15
00000187  000502              3757  		DC	0x0,0x5,0x2	;; DW_LNE_set_address
0000018a  00000000          + 3758  		DD	.DWLopt46	;;     operand
0000018e  0D                  3759  		DC	0xd	;; SPECIAL 13
0000018f  06                  3760  		DC	0x6	;; DW_LNS_negate_stmt
00000190  000502              3761  		DC	0x0,0x5,0x2	;; DW_LNE_set_address
00000193  00000000          + 3762  		DD	.LDW28	;;     operand
00000197  000101              3763  		DC	0x0,0x1,0x1	;; DW_LNE_end_sequence
0000019a  000502              3764  		DC	0x0,0x5,0x2	;; DW_LNE_set_address
0000019d  00000000          + 3765  		DD	.DWLopt47	;;     operand
000001a1  03                  3766  		DC	0x3	;; DW_LNS_advance_line
000001a2  CC02                3767  		DC	0xcc,0x2	;; 332
000001a4  01                  3768  		DC	0x1	;; DW_LNS_copy
000001a5  000502              3769  		DC	0x0,0x5,0x2	;; DW_LNE_set_address
000001a8  00000000          + 3770  		DD	.DWLopt48	;;     operand
000001ac  0E                  3771  		DC	0xe	;; SPECIAL 14
000001ad  000502              3772  		DC	0x0,0x5,0x2	;; DW_LNE_set_address
000001b0  00000000          + 3773  		DD	.DWLopt49	;;     operand
000001b4  0D                  3774  		DC	0xd	;; SPECIAL 13
000001b5  000502              3775  		DC	0x0,0x5,0x2	;; DW_LNE_set_address
000001b8  00000000          + 3776  		DD	.DWLopt50	;;     operand
000001bc  0E                  3777  		DC	0xe	;; SPECIAL 14
000001bd  000502              3778  		DC	0x0,0x5,0x2	;; DW_LNE_set_address
000001c0  00000000          + 3779  		DD	.DWLopt51	;;     operand
000001c4  0D                  3780  		DC	0xd	;; SPECIAL 13
000001c5  000502              3781  		DC	0x0,0x5,0x2	;; DW_LNE_set_address
000001c8  00000000          + 3782  		DD	.DWLopt52	;;     operand
000001cc  0E                  3783  		DC	0xe	;; SPECIAL 14
000001cd  000502              3784  		DC	0x0,0x5,0x2	;; DW_LNE_set_address
000001d0  00000000          + 3785  		DD	.DWLopt53	;;     operand
000001d4  0D                  3786  		DC	0xd	;; SPECIAL 13
000001d5  000502              3787  		DC	0x0,0x5,0x2	;; DW_LNE_set_address
000001d8  00000000          + 3788  		DD	.DWLopt54	;;     operand
000001dc  0F                  3789  		DC	0xf	;; SPECIAL 15
000001dd  000502              3790  		DC	0x0,0x5,0x2	;; DW_LNE_set_address
000001e0  00000000          + 3791  		DD	.DWLopt55	;;     operand
000001e4  0D                  3792  		DC	0xd	;; SPECIAL 13
000001e5  000502              3793  		DC	0x0,0x5,0x2	;; DW_LNE_set_address
000001e8  00000000          + 3794  		DD	.DWLopt56	;;     operand
000001ec  0F                  3795  		DC	0xf	;; SPECIAL 15
000001ed  06                  3796  		DC	0x6	;; DW_LNS_negate_stmt
000001ee  000502              3797  		DC	0x0,0x5,0x2	;; DW_LNE_set_address
000001f1  00000000          + 3798  		DD	.LDW29	;;     operand
000001f5  000101              3799  		DC	0x0,0x1,0x1	;; DW_LNE_end_sequence
000001f8  000502              3800  		DC	0x0,0x5,0x2	;; DW_LNE_set_address
000001fb  00000000          + 3801  		DD	.DWLopt58	;;     operand
000001ff  03                  3802  		DC	0x3	;; DW_LNS_advance_line
00000200  E002                3803  		DC	0xe0,0x2	;; 352
00000202  01                  3804  		DC	0x1	;; DW_LNS_copy
00000203  000502              3805  		DC	0x0,0x5,0x2	;; DW_LNE_set_address
00000206  00000000          + 3806  		DD	.DWLopt59	;;     operand
0000020a  0E                  3807  		DC	0xe	;; SPECIAL 14
0000020b  000502              3808  		DC	0x0,0x5,0x2	;; DW_LNE_set_address
0000020e  00000000          + 3809  		DD	.DWLopt60	;;     operand
00000212  0E                  3810  		DC	0xe	;; SPECIAL 14
00000213  000502              3811  		DC	0x0,0x5,0x2	;; DW_LNE_set_address
00000216  00000000          + 3812  		DD	.DWLopt61	;;     operand
0000021a  0F                  3813  		DC	0xf	;; SPECIAL 15
0000021b  000502              3814  		DC	0x0,0x5,0x2	;; DW_LNE_set_address
0000021e  00000000          + 3815  		DD	.DWLopt62	;;     operand
00000222  0D                  3816  		DC	0xd	;; SPECIAL 13
00000223  000502              3817  		DC	0x0,0x5,0x2	;; DW_LNE_set_address
00000226  00000000          + 3818  		DD	.DWLopt63	;;     operand
0000022a  0D                  3819  		DC	0xd	;; SPECIAL 13
0000022b  000502              3820  		DC	0x0,0x5,0x2	;; DW_LNE_set_address
0000022e  00000000          + 3821  		DD	.DWLopt64	;;     operand
00000232  22                  3822  		DC	0x22	;; SPECIAL 34
00000233  000502              3823  		DC	0x0,0x5,0x2	;; DW_LNE_set_address
00000236  00000000          + 3824  		DD	.DWLopt65	;;     operand
0000023a  03                  3825  		DC	0x3	;; DW_LNS_advance_line
0000023b  6C                  3826  		DC	0x6c	;; -20
0000023c  01                  3827  		DC	0x1	;; DW_LNS_copy
0000023d  06                  3828  		DC	0x6	;; DW_LNS_negate_stmt
0000023e  000502              3829  		DC	0x0,0x5,0x2	;; DW_LNE_set_address
00000241  00000000          + 3830  		DD	.DWLopt66	;;     operand
00000245  20                  3831  		DC	0x20	;; SPECIAL 32
00000246  06                  3832  		DC	0x6	;; DW_LNS_negate_stmt
00000247  000502              3833  		DC	0x0,0x5,0x2	;; DW_LNE_set_address
0000024a  00000000          + 3834  		DD	.DWLopt67	;;     operand
0000024e  03                  3835  		DC	0x3	;; DW_LNS_advance_line
0000024f  6E                  3836  		DC	0x6e	;; -18
00000250  01                  3837  		DC	0x1	;; DW_LNS_copy
00000251  000502              3838  		DC	0x0,0x5,0x2	;; DW_LNE_set_address
00000254  00000000          + 3839  		DD	.DWLopt68	;;     operand
00000258  0E                  3840  		DC	0xe	;; SPECIAL 14
00000259  000502              3841  		DC	0x0,0x5,0x2	;; DW_LNE_set_address
0000025c  00000000          + 3842  		DD	.DWLopt69	;;     operand
00000260  0D                  3843  		DC	0xd	;; SPECIAL 13
00000261  000502              3844  		DC	0x0,0x5,0x2	;; DW_LNE_set_address
00000264  00000000          + 3845  		DD	.DWLopt70	;;     operand
00000268  0E                  3846  		DC	0xe	;; SPECIAL 14
00000269  000502              3847  		DC	0x0,0x5,0x2	;; DW_LNE_set_address
0000026c  00000000          + 3848  		DD	.DWLopt71	;;     operand
00000270  0E                  3849  		DC	0xe	;; SPECIAL 14
00000271  06                  3850  		DC	0x6	;; DW_LNS_negate_stmt
00000272  000502              3851  		DC	0x0,0x5,0x2	;; DW_LNE_set_address
00000275  00000000          + 3852  		DD	.DWLopt72	;;     operand
00000279  0C                  3853  		DC	0xc	;; SPECIAL 12
0000027a  000502              3854  		DC	0x0,0x5,0x2	;; DW_LNE_set_address
0000027d  00000000          + 3855  		DD	.DWLopt73	;;     operand
00000281  03                  3856  		DC	0x3	;; DW_LNS_advance_line
00000282  7B                  3857  		DC	0x7b	;; -5
00000283  01                  3858  		DC	0x1	;; DW_LNS_copy
00000284  06                  3859  		DC	0x6	;; DW_LNS_negate_stmt
00000285  000502              3860  		DC	0x0,0x5,0x2	;; DW_LNE_set_address
00000288  00000000          + 3861  		DD	.DWLopt74	;;     operand
0000028c  12                  3862  		DC	0x12	;; SPECIAL 18
0000028d  06                  3863  		DC	0x6	;; DW_LNS_negate_stmt
0000028e  000502              3864  		DC	0x0,0x5,0x2	;; DW_LNE_set_address
00000291  00000000          + 3865  		DD	.DWLopt75	;;     operand
00000295  03                  3866  		DC	0x3	;; DW_LNS_advance_line
00000296  7B                  3867  		DC	0x7b	;; -5
00000297  01                  3868  		DC	0x1	;; DW_LNS_copy
00000298  000502              3869  		DC	0x0,0x5,0x2	;; DW_LNE_set_address
0000029b  00000000          + 3870  		DD	.DWLopt76	;;     operand
0000029f  11                  3871  		DC	0x11	;; SPECIAL 17
000002a0  06                  3872  		DC	0x6	;; DW_LNS_negate_stmt
000002a1  000502              3873  		DC	0x0,0x5,0x2	;; DW_LNE_set_address
000002a4  00000000          + 3874  		DD	.DWLopt77	;;     operand
000002a8  10                  3875  		DC	0x10	;; SPECIAL 16
000002a9  000502              3876  		DC	0x0,0x5,0x2	;; DW_LNE_set_address
000002ac  00000000          + 3877  		DD	.DWLopt78	;;     operand
000002b0  0D                  3878  		DC	0xd	;; SPECIAL 13
000002b1  000502              3879  		DC	0x0,0x5,0x2	;; DW_LNE_set_address
000002b4  00000000          + 3880  		DD	.DWLopt79	;;     operand
000002b8  0D                  3881  		DC	0xd	;; SPECIAL 13
000002b9  000502              3882  		DC	0x0,0x5,0x2	;; DW_LNE_set_address
000002bc  00000000          + 3883  		DD	.DWLopt80	;;     operand
000002c0  0D                  3884  		DC	0xd	;; SPECIAL 13
000002c1  06                  3885  		DC	0x6	;; DW_LNS_negate_stmt
000002c2  000502              3886  		DC	0x0,0x5,0x2	;; DW_LNE_set_address
000002c5  00000000          + 3887  		DD	.DWLopt81	;;     operand
000002c9  0F                  3888  		DC	0xf	;; SPECIAL 15
000002ca  000502              3889  		DC	0x0,0x5,0x2	;; DW_LNE_set_address
000002cd  00000000          + 3890  		DD	.LDW30	;;     operand
000002d1  000101              3891  		DC	0x0,0x1,0x1	;; DW_LNE_end_sequence
000002d4  000502              3892  		DC	0x0,0x5,0x2	;; DW_LNE_set_address
000002d7  00000000          + 3893  		DD	.DWLopt82	;;     operand
000002db  03                  3894  		DC	0x3	;; DW_LNS_advance_line
000002dc  8303                3895  		DC	0x83,0x3	;; 387
000002de  01                  3896  		DC	0x1	;; DW_LNS_copy
000002df  000502              3897  		DC	0x0,0x5,0x2	;; DW_LNE_set_address
000002e2  00000000          + 3898  		DD	.DWLopt83	;;     operand
000002e6  0E                  3899  		DC	0xe	;; SPECIAL 14
000002e7  000502              3900  		DC	0x0,0x5,0x2	;; DW_LNE_set_address
000002ea  00000000          + 3901  		DD	.DWLopt84	;;     operand
000002ee  0D                  3902  		DC	0xd	;; SPECIAL 13
000002ef  000502              3903  		DC	0x0,0x5,0x2	;; DW_LNE_set_address
000002f2  00000000          + 3904  		DD	.DWLopt85	;;     operand
000002f6  0E                  3905  		DC	0xe	;; SPECIAL 14
000002f7  000502              3906  		DC	0x0,0x5,0x2	;; DW_LNE_set_address
000002fa  00000000          + 3907  		DD	.DWLopt86	;;     operand
000002fe  0D                  3908  		DC	0xd	;; SPECIAL 13
000002ff  000502              3909  		DC	0x0,0x5,0x2	;; DW_LNE_set_address
00000302  00000000          + 3910  		DD	.DWLopt87	;;     operand
00000306  0D                  3911  		DC	0xd	;; SPECIAL 13
00000307  000502              3912  		DC	0x0,0x5,0x2	;; DW_LNE_set_address
0000030a  00000000          + 3913  		DD	.DWLopt88	;;     operand
0000030e  0F                  3914  		DC	0xf	;; SPECIAL 15
0000030f  000502              3915  		DC	0x0,0x5,0x2	;; DW_LNE_set_address
00000312  00000000          + 3916  		DD	.DWLopt89	;;     operand
00000316  0E                  3917  		DC	0xe	;; SPECIAL 14
00000317  000502              3918  		DC	0x0,0x5,0x2	;; DW_LNE_set_address
0000031a  00000000          + 3919  		DD	.DWLopt90	;;     operand
0000031e  0D                  3920  		DC	0xd	;; SPECIAL 13
0000031f  000502              3921  		DC	0x0,0x5,0x2	;; DW_LNE_set_address
00000322  00000000          + 3922  		DD	.DWLopt91	;;     operand
00000326  0F                  3923  		DC	0xf	;; SPECIAL 15
00000327  06                  3924  		DC	0x6	;; DW_LNS_negate_stmt
00000328  000502              3925  		DC	0x0,0x5,0x2	;; DW_LNE_set_address
0000032b  00000000          + 3926  		DD	.LDW31	;;     operand
0000032f  000101              3927  		DC	0x0,0x1,0x1	;; DW_LNE_end_sequence
00000332  000502              3928  		DC	0x0,0x5,0x2	;; DW_LNE_set_address
00000335  00000000          + 3929  		DD	.DWLopt92	;;     operand
00000339  03                  3930  		DC	0x3	;; DW_LNS_advance_line
0000033a  9703                3931  		DC	0x97,0x3	;; 407
0000033c  01                  3932  		DC	0x1	;; DW_LNS_copy
0000033d  000502              3933  		DC	0x0,0x5,0x2	;; DW_LNE_set_address
00000340  00000000          + 3934  		DD	.DWLopt93	;;     operand
00000344  0D                  3935  		DC	0xd	;; SPECIAL 13
00000345  000502              3936  		DC	0x0,0x5,0x2	;; DW_LNE_set_address
00000348  00000000          + 3937  		DD	.DWLopt94	;;     operand
0000034c  0E                  3938  		DC	0xe	;; SPECIAL 14
0000034d  000502              3939  		DC	0x0,0x5,0x2	;; DW_LNE_set_address
00000350  00000000          + 3940  		DD	.DWLopt95	;;     operand
00000354  0D                  3941  		DC	0xd	;; SPECIAL 13
00000355  000502              3942  		DC	0x0,0x5,0x2	;; DW_LNE_set_address
00000358  00000000          + 3943  		DD	.DWLopt96	;;     operand
0000035c  10                  3944  		DC	0x10	;; SPECIAL 16
0000035d  06                  3945  		DC	0x6	;; DW_LNS_negate_stmt
0000035e  000502              3946  		DC	0x0,0x5,0x2	;; DW_LNE_set_address
00000361  00000000          + 3947  		DD	.LDW32	;;     operand
00000365  000101              3948  		DC	0x0,0x1,0x1	;; DW_LNE_end_sequence
00000368  000502              3949  		DC	0x0,0x5,0x2	;; DW_LNE_set_address
0000036b  00000000          + 3950  		DD	.DWLopt97	;;     operand
0000036f  03                  3951  		DC	0x3	;; DW_LNS_advance_line
00000370  A303                3952  		DC	0xa3,0x3	;; 419
00000372  01                  3953  		DC	0x1	;; DW_LNS_copy
00000373  000502              3954  		DC	0x0,0x5,0x2	;; DW_LNE_set_address
00000376  00000000          + 3955  		DD	.DWLopt98	;;     operand
0000037a  0D                  3956  		DC	0xd	;; SPECIAL 13
0000037b  000502              3957  		DC	0x0,0x5,0x2	;; DW_LNE_set_address
0000037e  00000000          + 3958  		DD	.DWLopt99	;;     operand
00000382  0E                  3959  		DC	0xe	;; SPECIAL 14
00000383  000502              3960  		DC	0x0,0x5,0x2	;; DW_LNE_set_address
00000386  00000000          + 3961  		DD	.DWLopt100	;;     operand
0000038a  0D                  3962  		DC	0xd	;; SPECIAL 13
0000038b  000502              3963  		DC	0x0,0x5,0x2	;; DW_LNE_set_address
0000038e  00000000          + 3964  		DD	.DWLopt101	;;     operand
00000392  10                  3965  		DC	0x10	;; SPECIAL 16
00000393  06                  3966  		DC	0x6	;; DW_LNS_negate_stmt
00000394  000502              3967  		DC	0x0,0x5,0x2	;; DW_LNE_set_address
00000397  00000000          + 3968  		DD	.LDW33	;;     operand
0000039b  000101              3969  		DC	0x0,0x1,0x1	;; DW_LNE_end_sequence
0000039e  000502              3970  		DC	0x0,0x5,0x2	;; DW_LNE_set_address
000003a1  00000000          + 3971  		DD	.DWLopt110	;;     operand
000003a5  03                  3972  		DC	0x3	;; DW_LNS_advance_line
000003a6  BF03                3973  		DC	0xbf,0x3	;; 447
000003a8  01                  3974  		DC	0x1	;; DW_LNS_copy
000003a9  000502              3975  		DC	0x0,0x5,0x2	;; DW_LNE_set_address
000003ac  00000000          + 3976  		DD	.DWLopt111	;;     operand
000003b0  3B                  3977  		DC	0x3b	;; SPECIAL 59
000003b1  000502              3978  		DC	0x0,0x5,0x2	;; DW_LNE_set_address
000003b4  00000000          + 3979  		DD	.DWLopt112	;;     operand
000003b8  03                  3980  		DC	0x3	;; DW_LNS_advance_line
000003b9  53                  3981  		DC	0x53	;; -45
000003ba  01                  3982  		DC	0x1	;; DW_LNS_copy
000003bb  000502              3983  		DC	0x0,0x5,0x2	;; DW_LNE_set_address
000003be  00000000          + 3984  		DD	.DWLopt113	;;     operand
000003c2  0E                  3985  		DC	0xe	;; SPECIAL 14
000003c3  06                  3986  		DC	0x6	;; DW_LNS_negate_stmt
000003c4  000502              3987  		DC	0x0,0x5,0x2	;; DW_LNE_set_address
000003c7  00000000          + 3988  		DD	.DWLopt114	;;     operand
000003cb  37                  3989  		DC	0x37	;; SPECIAL 55
000003cc  06                  3990  		DC	0x6	;; DW_LNS_negate_stmt
000003cd  000502              3991  		DC	0x0,0x5,0x2	;; DW_LNE_set_address
000003d0  00000000          + 3992  		DD	.DWLopt115	;;     operand
000003d4  03                  3993  		DC	0x3	;; DW_LNS_advance_line
000003d5  5C                  3994  		DC	0x5c	;; -36
000003d6  01                  3995  		DC	0x1	;; DW_LNS_copy
000003d7  000502              3996  		DC	0x0,0x5,0x2	;; DW_LNE_set_address
000003da  00000000          + 3997  		DD	.DWLopt116	;;     operand
000003de  03                  3998  		DC	0x3	;; DW_LNS_advance_line
000003df  7B                  3999  		DC	0x7b	;; -5
000003e0  01                  4000  		DC	0x1	;; DW_LNS_copy
000003e1  06                  4001  		DC	0x6	;; DW_LNS_negate_stmt
000003e2  000502              4002  		DC	0x0,0x5,0x2	;; DW_LNE_set_address
000003e5  00000000          + 4003  		DD	.DWLopt117	;;     operand
000003e9  11                  4004  		DC	0x11	;; SPECIAL 17
000003ea  06                  4005  		DC	0x6	;; DW_LNS_negate_stmt
000003eb  000502              4006  		DC	0x0,0x5,0x2	;; DW_LNE_set_address
000003ee  00000000          + 4007  		DD	.DWLopt118	;;     operand
000003f2  0E                  4008  		DC	0xe	;; SPECIAL 14
000003f3  000502              4009  		DC	0x0,0x5,0x2	;; DW_LNE_set_address
000003f6  00000000          + 4010  		DD	.DWLopt119	;;     operand
000003fa  0C                  4011  		DC	0xc	;; SPECIAL 12
000003fb  06                  4012  		DC	0x6	;; DW_LNS_negate_stmt
000003fc  000502              4013  		DC	0x0,0x5,0x2	;; DW_LNE_set_address
000003ff  00000000          + 4014  		DD	.DWLopt120	;;     operand
00000403  03                  4015  		DC	0x3	;; DW_LNS_advance_line
00000404  B37C                4016  		DC	0xb3,0x7c	;; -461
00000406  01                  4017  		DC	0x1	;; DW_LNS_copy
00000407  06                  4018  		DC	0x6	;; DW_LNS_negate_stmt
00000408  000502              4019  		DC	0x0,0x5,0x2	;; DW_LNE_set_address
0000040b  00000000          + 4020  		DD	.DWLopt121	;;     operand
0000040f  03                  4021  		DC	0x3	;; DW_LNS_advance_line
00000410  CF03                4022  		DC	0xcf,0x3	;; 463
00000412  01                  4023  		DC	0x1	;; DW_LNS_copy
00000413  000502              4024  		DC	0x0,0x5,0x2	;; DW_LNE_set_address
00000416  00000000          + 4025  		DD	.DWLopt122	;;     operand
0000041a  0A                  4026  		DC	0xa	;; SPECIAL 10
0000041b  000502              4027  		DC	0x0,0x5,0x2	;; DW_LNE_set_address
0000041e  00000000          + 4028  		DD	.DWLopt123	;;     operand
00000422  0C                  4029  		DC	0xc	;; SPECIAL 12
00000423  000502              4030  		DC	0x0,0x5,0x2	;; DW_LNE_set_address
00000426  00000000          + 4031  		DD	.DWLopt124	;;     operand
0000042a  12                  4032  		DC	0x12	;; SPECIAL 18
0000042b  000502              4033  		DC	0x0,0x5,0x2	;; DW_LNE_set_address
0000042e  00000000          + 4034  		DD	.DWLopt125	;;     operand
00000432  0E                  4035  		DC	0xe	;; SPECIAL 14
00000433  06                  4036  		DC	0x6	;; DW_LNS_negate_stmt
00000434  000502              4037  		DC	0x0,0x5,0x2	;; DW_LNE_set_address
00000437  00000000          + 4038  		DD	.DWLopt126	;;     operand
0000043b  26                  4039  		DC	0x26	;; SPECIAL 38
0000043c  06                  4040  		DC	0x6	;; DW_LNS_negate_stmt
0000043d  000502              4041  		DC	0x0,0x5,0x2	;; DW_LNE_set_address
00000440  00000000          + 4042  		DD	.DWLopt127	;;     operand
00000444  03                  4043  		DC	0x3	;; DW_LNS_advance_line
00000445  68                  4044  		DC	0x68	;; -24
00000446  01                  4045  		DC	0x1	;; DW_LNS_copy
00000447  000502              4046  		DC	0x0,0x5,0x2	;; DW_LNE_set_address
0000044a  00000000          + 4047  		DD	.DWLopt128	;;     operand
0000044e  0E                  4048  		DC	0xe	;; SPECIAL 14
0000044f  000502              4049  		DC	0x0,0x5,0x2	;; DW_LNE_set_address
00000452  00000000          + 4050  		DD	.DWLopt129	;;     operand
00000456  0F                  4051  		DC	0xf	;; SPECIAL 15
00000457  000502              4052  		DC	0x0,0x5,0x2	;; DW_LNE_set_address
0000045a  00000000          + 4053  		DD	.DWLopt130	;;     operand
0000045e  0D                  4054  		DC	0xd	;; SPECIAL 13
0000045f  000502              4055  		DC	0x0,0x5,0x2	;; DW_LNE_set_address
00000462  00000000          + 4056  		DD	.DWLopt131	;;     operand
00000466  0E                  4057  		DC	0xe	;; SPECIAL 14
00000467  000502              4058  		DC	0x0,0x5,0x2	;; DW_LNE_set_address
0000046a  00000000          + 4059  		DD	.DWLopt132	;;     operand
0000046e  0D                  4060  		DC	0xd	;; SPECIAL 13
0000046f  000502              4061  		DC	0x0,0x5,0x2	;; DW_LNE_set_address
00000472  00000000          + 4062  		DD	.DWLopt133	;;     operand
00000476  0E                  4063  		DC	0xe	;; SPECIAL 14
00000477  000502              4064  		DC	0x0,0x5,0x2	;; DW_LNE_set_address
0000047a  00000000          + 4065  		DD	.DWLopt134	;;     operand
0000047e  0D                  4066  		DC	0xd	;; SPECIAL 13
0000047f  000502              4067  		DC	0x0,0x5,0x2	;; DW_LNE_set_address
00000482  00000000          + 4068  		DD	.DWLopt135	;;     operand
00000486  0E                  4069  		DC	0xe	;; SPECIAL 14
00000487  000502              4070  		DC	0x0,0x5,0x2	;; DW_LNE_set_address
0000048a  00000000          + 4071  		DD	.DWLopt136	;;     operand
0000048e  10                  4072  		DC	0x10	;; SPECIAL 16
0000048f  000502              4073  		DC	0x0,0x5,0x2	;; DW_LNE_set_address
00000492  00000000          + 4074  		DD	.DWLopt137	;;     operand
00000496  0D                  4075  		DC	0xd	;; SPECIAL 13
00000497  06                  4076  		DC	0x6	;; DW_LNS_negate_stmt
00000498  000502              4077  		DC	0x0,0x5,0x2	;; DW_LNE_set_address
0000049b  00000000          + 4078  		DD	.DWLopt138	;;     operand
0000049f  11                  4079  		DC	0x11	;; SPECIAL 17
000004a0  000502              4080  		DC	0x0,0x5,0x2	;; DW_LNE_set_address
000004a3  00000000          + 4081  		DD	.LDW34	;;     operand
000004a7  000101              4082  		DC	0x0,0x1,0x1	;; DW_LNE_end_sequence
000004aa  000502              4083  		DC	0x0,0x5,0x2	;; DW_LNE_set_address
000004ad  00000000          + 4084  		DD	.DWLopt143	;;     operand
000004b1  03                  4085  		DC	0x3	;; DW_LNS_advance_line
000004b2  F203                4086  		DC	0xf2,0x3	;; 498
000004b4  01                  4087  		DC	0x1	;; DW_LNS_copy
000004b5  000502              4088  		DC	0x0,0x5,0x2	;; DW_LNE_set_address
000004b8  00000000          + 4089  		DD	.DWLopt144	;;     operand
000004bc  0F                  4090  		DC	0xf	;; SPECIAL 15
000004bd  000502              4091  		DC	0x0,0x5,0x2	;; DW_LNE_set_address
000004c0  00000000          + 4092  		DD	.DWLopt145	;;     operand
000004c4  0D                  4093  		DC	0xd	;; SPECIAL 13
000004c5  000502              4094  		DC	0x0,0x5,0x2	;; DW_LNE_set_address
000004c8  00000000          + 4095  		DD	.DWLopt146	;;     operand
000004cc  0D                  4096  		DC	0xd	;; SPECIAL 13
000004cd  000502              4097  		DC	0x0,0x5,0x2	;; DW_LNE_set_address
000004d0  00000000          + 4098  		DD	.DWLopt147	;;     operand
000004d4  0D                  4099  		DC	0xd	;; SPECIAL 13
000004d5  000502              4100  		DC	0x0,0x5,0x2	;; DW_LNE_set_address
000004d8  00000000          + 4101  		DD	.DWLopt148	;;     operand
000004dc  0D                  4102  		DC	0xd	;; SPECIAL 13
000004dd  000502              4103  		DC	0x0,0x5,0x2	;; DW_LNE_set_address
000004e0  00000000          + 4104  		DD	.DWLopt149	;;     operand
000004e4  0E                  4105  		DC	0xe	;; SPECIAL 14
000004e5  06                  4106  		DC	0x6	;; DW_LNS_negate_stmt
000004e6  000502              4107  		DC	0x0,0x5,0x2	;; DW_LNE_set_address
000004e9  00000000          + 4108  		DD	.DWLopt150	;;     operand
000004ed  03                  4109  		DC	0x3	;; DW_LNS_advance_line
000004ee  847C                4110  		DC	0x84,0x7c	;; -508
000004f0  01                  4111  		DC	0x1	;; DW_LNS_copy
000004f1  06                  4112  		DC	0x6	;; DW_LNS_negate_stmt
000004f2  000502              4113  		DC	0x0,0x5,0x2	;; DW_LNE_set_address
000004f5  00000000          + 4114  		DD	.DWLopt151	;;     operand
000004f9  03                  4115  		DC	0x3	;; DW_LNS_advance_line
000004fa  FE03                4116  		DC	0xfe,0x3	;; 510
000004fc  01                  4117  		DC	0x1	;; DW_LNS_copy
000004fd  000502              4118  		DC	0x0,0x5,0x2	;; DW_LNE_set_address
00000500  00000000          + 4119  		DD	.DWLopt152	;;     operand
00000504  0A                  4120  		DC	0xa	;; SPECIAL 10
00000505  000502              4121  		DC	0x0,0x5,0x2	;; DW_LNE_set_address
00000508  00000000          + 4122  		DD	.DWLopt153	;;     operand
0000050c  0C                  4123  		DC	0xc	;; SPECIAL 12
0000050d  000502              4124  		DC	0x0,0x5,0x2	;; DW_LNE_set_address
00000510  00000000          + 4125  		DD	.DWLopt154	;;     operand
00000514  10                  4126  		DC	0x10	;; SPECIAL 16
00000515  000502              4127  		DC	0x0,0x5,0x2	;; DW_LNE_set_address
00000518  00000000          + 4128  		DD	.DWLopt155	;;     operand
0000051c  0D                  4129  		DC	0xd	;; SPECIAL 13
0000051d  06                  4130  		DC	0x6	;; DW_LNS_negate_stmt
0000051e  000502              4131  		DC	0x0,0x5,0x2	;; DW_LNE_set_address
00000521  00000000          + 4132  		DD	.LDW39	;;     operand
00000525  000101              4133  		DC	0x0,0x1,0x1	;; DW_LNE_end_sequence
00000528  000502              4134  		DC	0x0,0x5,0x2	;; DW_LNE_set_address
0000052b  00000000          + 4135  		DD	.DWLopt163	;;     operand
0000052f  03                  4136  		DC	0x3	;; DW_LNS_advance_line
00000530  8B04                4137  		DC	0x8b,0x4	;; 523
00000532  01                  4138  		DC	0x1	;; DW_LNS_copy
00000533  000502              4139  		DC	0x0,0x5,0x2	;; DW_LNE_set_address
00000536  00000000          + 4140  		DD	.DWLopt164	;;     operand
0000053a  03                  4141  		DC	0x3	;; DW_LNS_advance_line
0000053b  79                  4142  		DC	0x79	;; -7
0000053c  01                  4143  		DC	0x1	;; DW_LNS_copy
0000053d  06                  4144  		DC	0x6	;; DW_LNS_negate_stmt
0000053e  000502              4145  		DC	0x0,0x5,0x2	;; DW_LNE_set_address
00000541  00000000          + 4146  		DD	.DWLopt165	;;     operand
00000545  13                  4147  		DC	0x13	;; SPECIAL 19
00000546  06                  4148  		DC	0x6	;; DW_LNS_negate_stmt
00000547  000502              4149  		DC	0x0,0x5,0x2	;; DW_LNE_set_address
0000054a  00000000          + 4150  		DD	.DWLopt166	;;     operand
0000054e  0D                  4151  		DC	0xd	;; SPECIAL 13
0000054f  000502              4152  		DC	0x0,0x5,0x2	;; DW_LNE_set_address
00000552  00000000          + 4153  		DD	.DWLopt167	;;     operand
00000556  10                  4154  		DC	0x10	;; SPECIAL 16
00000557  06                  4155  		DC	0x6	;; DW_LNS_negate_stmt
00000558  000502              4156  		DC	0x0,0x5,0x2	;; DW_LNE_set_address
0000055b  00000000          + 4157  		DD	.DWLopt168	;;     operand
0000055f  03                  4158  		DC	0x3	;; DW_LNS_advance_line
00000560  7C                  4159  		DC	0x7c	;; -4
00000561  01                  4160  		DC	0x1	;; DW_LNS_copy
00000562  06                  4161  		DC	0x6	;; DW_LNS_negate_stmt
00000563  000502              4162  		DC	0x0,0x5,0x2	;; DW_LNE_set_address
00000566  00000000          + 4163  		DD	.DWLopt169	;;     operand
0000056a  0D                  4164  		DC	0xd	;; SPECIAL 13
0000056b  000502              4165  		DC	0x0,0x5,0x2	;; DW_LNE_set_address
0000056e  00000000          + 4166  		DD	.DWLopt170	;;     operand
00000572  0D                  4167  		DC	0xd	;; SPECIAL 13
00000573  06                  4168  		DC	0x6	;; DW_LNS_negate_stmt
00000574  000502              4169  		DC	0x0,0x5,0x2	;; DW_LNE_set_address
00000577  00000000          + 4170  		DD	.DWLopt171	;;     operand
0000057b  0E                  4171  		DC	0xe	;; SPECIAL 14
0000057c  06                  4172  		DC	0x6	;; DW_LNS_negate_stmt
0000057d  000502              4173  		DC	0x0,0x5,0x2	;; DW_LNE_set_address
00000580  00000000          + 4174  		DD	.DWLopt172	;;     operand
00000584  0E                  4175  		DC	0xe	;; SPECIAL 14
00000585  000502              4176  		DC	0x0,0x5,0x2	;; DW_LNE_set_address
00000588  00000000          + 4177  		DD	.DWLopt173	;;     operand
0000058c  0E                  4178  		DC	0xe	;; SPECIAL 14
0000058d  000502              4179  		DC	0x0,0x5,0x2	;; DW_LNE_set_address
00000590  00000000          + 4180  		DD	.DWLopt174	;;     operand
00000594  0C                  4181  		DC	0xc	;; SPECIAL 12
00000595  06                  4182  		DC	0x6	;; DW_LNS_negate_stmt
00000596  000502              4183  		DC	0x0,0x5,0x2	;; DW_LNE_set_address
00000599  00000000          + 4184  		DD	.DWLopt175	;;     operand
0000059d  03                  4185  		DC	0x3	;; DW_LNS_advance_line
0000059e  EB7B                4186  		DC	0xeb,0x7b	;; -533
000005a0  01                  4187  		DC	0x1	;; DW_LNS_copy
000005a1  06                  4188  		DC	0x6	;; DW_LNS_negate_stmt
000005a2  000502              4189  		DC	0x0,0x5,0x2	;; DW_LNE_set_address
000005a5  00000000          + 4190  		DD	.DWLopt176	;;     operand
000005a9  03                  4191  		DC	0x3	;; DW_LNS_advance_line
000005aa  9A04                4192  		DC	0x9a,0x4	;; 538
000005ac  01                  4193  		DC	0x1	;; DW_LNS_copy
000005ad  000502              4194  		DC	0x0,0x5,0x2	;; DW_LNE_set_address
000005b0  00000000          + 4195  		DD	.DWLopt177	;;     operand
000005b4  0F                  4196  		DC	0xf	;; SPECIAL 15
000005b5  000502              4197  		DC	0x0,0x5,0x2	;; DW_LNE_set_address
000005b8  00000000          + 4198  		DD	.DWLopt178	;;     operand
000005bc  0D                  4199  		DC	0xd	;; SPECIAL 13
000005bd  000502              4200  		DC	0x0,0x5,0x2	;; DW_LNE_set_address
000005c0  00000000          + 4201  		DD	.DWLopt179	;;     operand
000005c4  0E                  4202  		DC	0xe	;; SPECIAL 14
000005c5  000502              4203  		DC	0x0,0x5,0x2	;; DW_LNE_set_address
000005c8  00000000          + 4204  		DD	.DWLopt180	;;     operand
000005cc  0E                  4205  		DC	0xe	;; SPECIAL 14
000005cd  000502              4206  		DC	0x0,0x5,0x2	;; DW_LNE_set_address
000005d0  00000000          + 4207  		DD	.DWLopt181	;;     operand
000005d4  0E                  4208  		DC	0xe	;; SPECIAL 14
000005d5  06                  4209  		DC	0x6	;; DW_LNS_negate_stmt
000005d6  000502              4210  		DC	0x0,0x5,0x2	;; DW_LNE_set_address
000005d9  00000000          + 4211  		DD	.DWLopt182	;;     operand
000005dd  0C                  4212  		DC	0xc	;; SPECIAL 12
000005de  000502              4213  		DC	0x0,0x5,0x2	;; DW_LNE_set_address
000005e1  00000000          + 4214  		DD	.DWLopt183	;;     operand
000005e5  03                  4215  		DC	0x3	;; DW_LNS_advance_line
000005e6  7C                  4216  		DC	0x7c	;; -4
000005e7  01                  4217  		DC	0x1	;; DW_LNS_copy
000005e8  06                  4218  		DC	0x6	;; DW_LNS_negate_stmt
000005e9  000502              4219  		DC	0x0,0x5,0x2	;; DW_LNE_set_address
000005ec  00000000          + 4220  		DD	.DWLopt184	;;     operand
000005f0  13                  4221  		DC	0x13	;; SPECIAL 19
000005f1  000502              4222  		DC	0x0,0x5,0x2	;; DW_LNE_set_address
000005f4  00000000          + 4223  		DD	.DWLopt185	;;     operand
000005f8  0E                  4224  		DC	0xe	;; SPECIAL 14
000005f9  000502              4225  		DC	0x0,0x5,0x2	;; DW_LNE_set_address
000005fc  00000000          + 4226  		DD	.DWLopt186	;;     operand
00000600  0E                  4227  		DC	0xe	;; SPECIAL 14
00000601  000502              4228  		DC	0x0,0x5,0x2	;; DW_LNE_set_address
00000604  00000000          + 4229  		DD	.DWLopt187	;;     operand
00000608  0E                  4230  		DC	0xe	;; SPECIAL 14
00000609  000502              4231  		DC	0x0,0x5,0x2	;; DW_LNE_set_address
0000060c  00000000          + 4232  		DD	.DWLopt188	;;     operand
00000610  0D                  4233  		DC	0xd	;; SPECIAL 13
00000611  000502              4234  		DC	0x0,0x5,0x2	;; DW_LNE_set_address
00000614  00000000          + 4235  		DD	.DWLopt189	;;     operand
00000618  0D                  4236  		DC	0xd	;; SPECIAL 13
00000619  000502              4237  		DC	0x0,0x5,0x2	;; DW_LNE_set_address
0000061c  00000000          + 4238  		DD	.DWLopt190	;;     operand
00000620  10                  4239  		DC	0x10	;; SPECIAL 16
00000621  06                  4240  		DC	0x6	;; DW_LNS_negate_stmt
00000622  000502              4241  		DC	0x0,0x5,0x2	;; DW_LNE_set_address
00000625  00000000          + 4242  		DD	.DWLopt191	;;     operand
00000629  03                  4243  		DC	0x3	;; DW_LNS_advance_line
0000062a  CD7B                4244  		DC	0xcd,0x7b	;; -563
0000062c  01                  4245  		DC	0x1	;; DW_LNS_copy
0000062d  06                  4246  		DC	0x6	;; DW_LNS_negate_stmt
0000062e  000502              4247  		DC	0x0,0x5,0x2	;; DW_LNE_set_address
00000631  00000000          + 4248  		DD	.DWLopt192	;;     operand
00000635  03                  4249  		DC	0x3	;; DW_LNS_advance_line
00000636  BC04                4250  		DC	0xbc,0x4	;; 572
00000638  01                  4251  		DC	0x1	;; DW_LNS_copy
00000639  000502              4252  		DC	0x0,0x5,0x2	;; DW_LNE_set_address
0000063c  00000000          + 4253  		DD	.DWLopt193	;;     operand
00000640  0E                  4254  		DC	0xe	;; SPECIAL 14
00000641  000502              4255  		DC	0x0,0x5,0x2	;; DW_LNE_set_address
00000644  00000000          + 4256  		DD	.DWLopt194	;;     operand
00000648  0E                  4257  		DC	0xe	;; SPECIAL 14
00000649  000502              4258  		DC	0x0,0x5,0x2	;; DW_LNE_set_address
0000064c  00000000          + 4259  		DD	.DWLopt195	;;     operand
00000650  0D                  4260  		DC	0xd	;; SPECIAL 13
00000651  000502              4261  		DC	0x0,0x5,0x2	;; DW_LNE_set_address
00000654  00000000          + 4262  		DD	.DWLopt196	;;     operand
00000658  0E                  4263  		DC	0xe	;; SPECIAL 14
00000659  000502              4264  		DC	0x0,0x5,0x2	;; DW_LNE_set_address
0000065c  00000000          + 4265  		DD	.DWLopt197	;;     operand
00000660  0E                  4266  		DC	0xe	;; SPECIAL 14
00000661  000502              4267  		DC	0x0,0x5,0x2	;; DW_LNE_set_address
00000664  00000000          + 4268  		DD	.DWLopt198	;;     operand
00000668  13                  4269  		DC	0x13	;; SPECIAL 19
00000669  000502              4270  		DC	0x0,0x5,0x2	;; DW_LNE_set_address
0000066c  00000000          + 4271  		DD	.DWLopt199	;;     operand
00000670  0E                  4272  		DC	0xe	;; SPECIAL 14
00000671  000502              4273  		DC	0x0,0x5,0x2	;; DW_LNE_set_address
00000674  00000000          + 4274  		DD	.DWLopt200	;;     operand
00000678  0E                  4275  		DC	0xe	;; SPECIAL 14
00000679  000502              4276  		DC	0x0,0x5,0x2	;; DW_LNE_set_address
0000067c  00000000          + 4277  		DD	.DWLopt201	;;     operand
00000680  0F                  4278  		DC	0xf	;; SPECIAL 15
00000681  06                  4279  		DC	0x6	;; DW_LNS_negate_stmt
00000682  000502              4280  		DC	0x0,0x5,0x2	;; DW_LNE_set_address
00000685  00000000          + 4281  		DD	.DWLopt202	;;     operand
00000689  03                  4282  		DC	0x3	;; DW_LNS_advance_line
0000068a  AD7B                4283  		DC	0xad,0x7b	;; -595
0000068c  01                  4284  		DC	0x1	;; DW_LNS_copy
0000068d  000502              4285  		DC	0x0,0x5,0x2	;; DW_LNE_set_address
00000690  00000000          + 4286  		DD	.DWLopt203	;;     operand
00000694  03                  4287  		DC	0x3	;; DW_LNS_advance_line
00000695  D304                4288  		DC	0xd3,0x4	;; 595
00000697  01                  4289  		DC	0x1	;; DW_LNS_copy
00000698  000502              4290  		DC	0x0,0x5,0x2	;; DW_LNE_set_address
0000069b  00000000          + 4291  		DD	.DWLopt204	;;     operand
0000069f  0C                  4292  		DC	0xc	;; SPECIAL 12
000006a0  06                  4293  		DC	0x6	;; DW_LNS_negate_stmt
000006a1  000502              4294  		DC	0x0,0x5,0x2	;; DW_LNE_set_address
000006a4  00000000          + 4295  		DD	.DWLopt205	;;     operand
000006a8  11                  4296  		DC	0x11	;; SPECIAL 17
000006a9  000502              4297  		DC	0x0,0x5,0x2	;; DW_LNE_set_address
000006ac  00000000          + 4298  		DD	.DWLopt206	;;     operand
000006b0  0D                  4299  		DC	0xd	;; SPECIAL 13
000006b1  000502              4300  		DC	0x0,0x5,0x2	;; DW_LNE_set_address
000006b4  00000000          + 4301  		DD	.DWLopt207	;;     operand
000006b8  0D                  4302  		DC	0xd	;; SPECIAL 13
000006b9  000502              4303  		DC	0x0,0x5,0x2	;; DW_LNE_set_address
000006bc  00000000          + 4304  		DD	.DWLopt208	;;     operand
000006c0  0E                  4305  		DC	0xe	;; SPECIAL 14
000006c1  000502              4306  		DC	0x0,0x5,0x2	;; DW_LNE_set_address
000006c4  00000000          + 4307  		DD	.DWLopt209	;;     operand
000006c8  03                  4308  		DC	0x3	;; DW_LNS_advance_line
000006c9  55                  4309  		DC	0x55	;; -43
000006ca  01                  4310  		DC	0x1	;; DW_LNS_copy
000006cb  000502              4311  		DC	0x0,0x5,0x2	;; DW_LNE_set_address
000006ce  00000000          + 4312  		DD	.DWLopt210	;;     operand
000006d2  38                  4313  		DC	0x38	;; SPECIAL 56
000006d3  000502              4314  		DC	0x0,0x5,0x2	;; DW_LNE_set_address
000006d6  00000000          + 4315  		DD	.DWLopt211	;;     operand
000006da  03                  4316  		DC	0x3	;; DW_LNS_advance_line
000006db  55                  4317  		DC	0x55	;; -43
000006dc  01                  4318  		DC	0x1	;; DW_LNS_copy
000006dd  000502              4319  		DC	0x0,0x5,0x2	;; DW_LNE_set_address
000006e0  00000000          + 4320  		DD	.DWLopt212	;;     operand
000006e4  38                  4321  		DC	0x38	;; SPECIAL 56
000006e5  06                  4322  		DC	0x6	;; DW_LNS_negate_stmt
000006e6  000502              4323  		DC	0x0,0x5,0x2	;; DW_LNE_set_address
000006e9  00000000          + 4324  		DD	.DWLopt213	;;     operand
000006ed  03                  4325  		DC	0x3	;; DW_LNS_advance_line
000006ee  55                  4326  		DC	0x55	;; -43
000006ef  01                  4327  		DC	0x1	;; DW_LNS_copy
000006f0  000502              4328  		DC	0x0,0x5,0x2	;; DW_LNE_set_address
000006f3  00000000          + 4329  		DD	.DWLopt214	;;     operand
000006f7  37                  4330  		DC	0x37	;; SPECIAL 55
000006f8  06                  4331  		DC	0x6	;; DW_LNS_negate_stmt
000006f9  000502              4332  		DC	0x0,0x5,0x2	;; DW_LNE_set_address
000006fc  00000000          + 4333  		DD	.DWLopt215	;;     operand
00000700  10                  4334  		DC	0x10	;; SPECIAL 16
00000701  000502              4335  		DC	0x0,0x5,0x2	;; DW_LNE_set_address
00000704  00000000          + 4336  		DD	.DWLopt216	;;     operand
00000708  03                  4337  		DC	0x3	;; DW_LNS_advance_line
00000709  55                  4338  		DC	0x55	;; -43
0000070a  01                  4339  		DC	0x1	;; DW_LNS_copy
0000070b  06                  4340  		DC	0x6	;; DW_LNS_negate_stmt
0000070c  000502              4341  		DC	0x0,0x5,0x2	;; DW_LNE_set_address
0000070f  00000000          + 4342  		DD	.DWLopt217	;;     operand
00000713  37                  4343  		DC	0x37	;; SPECIAL 55
00000714  000502              4344  		DC	0x0,0x5,0x2	;; DW_LNE_set_address
00000717  00000000          + 4345  		DD	.DWLopt218	;;     operand
0000071b  03                  4346  		DC	0x3	;; DW_LNS_advance_line
0000071c  55                  4347  		DC	0x55	;; -43
0000071d  01                  4348  		DC	0x1	;; DW_LNS_copy
0000071e  000502              4349  		DC	0x0,0x5,0x2	;; DW_LNE_set_address
00000721  00000000          + 4350  		DD	.DWLopt219	;;     operand
00000725  16                  4351  		DC	0x16	;; SPECIAL 22
00000726  06                  4352  		DC	0x6	;; DW_LNS_negate_stmt
00000727  000502              4353  		DC	0x0,0x5,0x2	;; DW_LNE_set_address
0000072a  00000000          + 4354  		DD	.DWLopt220	;;     operand
0000072e  2E                  4355  		DC	0x2e	;; SPECIAL 46
0000072f  000502              4356  		DC	0x0,0x5,0x2	;; DW_LNE_set_address
00000732  00000000          + 4357  		DD	.DWLopt221	;;     operand
00000736  03                  4358  		DC	0x3	;; DW_LNS_advance_line
00000737  55                  4359  		DC	0x55	;; -43
00000738  01                  4360  		DC	0x1	;; DW_LNS_copy
00000739  000502              4361  		DC	0x0,0x5,0x2	;; DW_LNE_set_address
0000073c  00000000          + 4362  		DD	.DWLopt222	;;     operand
00000740  16                  4363  		DC	0x16	;; SPECIAL 22
00000741  000502              4364  		DC	0x0,0x5,0x2	;; DW_LNE_set_address
00000744  00000000          + 4365  		DD	.DWLopt223	;;     operand
00000748  2E                  4366  		DC	0x2e	;; SPECIAL 46
00000749  000502              4367  		DC	0x0,0x5,0x2	;; DW_LNE_set_address
0000074c  00000000          + 4368  		DD	.DWLopt224	;;     operand
00000750  03                  4369  		DC	0x3	;; DW_LNS_advance_line
00000751  55                  4370  		DC	0x55	;; -43
00000752  01                  4371  		DC	0x1	;; DW_LNS_copy
00000753  06                  4372  		DC	0x6	;; DW_LNS_negate_stmt
00000754  000502              4373  		DC	0x0,0x5,0x2	;; DW_LNE_set_address
00000757  00000000          + 4374  		DD	.DWLopt225	;;     operand
0000075b  16                  4375  		DC	0x16	;; SPECIAL 22
0000075c  000502              4376  		DC	0x0,0x5,0x2	;; DW_LNE_set_address
0000075f  00000000          + 4377  		DD	.DWLopt226	;;     operand
00000763  2D                  4378  		DC	0x2d	;; SPECIAL 45
00000764  000502              4379  		DC	0x0,0x5,0x2	;; DW_LNE_set_address
00000767  00000000          + 4380  		DD	.DWLopt227	;;     operand
0000076b  03                  4381  		DC	0x3	;; DW_LNS_advance_line
0000076c  4F                  4382  		DC	0x4f	;; -49
0000076d  01                  4383  		DC	0x1	;; DW_LNS_copy
0000076e  000502              4384  		DC	0x0,0x5,0x2	;; DW_LNE_set_address
00000771  00000000          + 4385  		DD	.DWLopt228	;;     operand
00000775  12                  4386  		DC	0x12	;; SPECIAL 18
00000776  000502              4387  		DC	0x0,0x5,0x2	;; DW_LNE_set_address
00000779  00000000          + 4388  		DD	.DWLopt229	;;     operand
0000077d  16                  4389  		DC	0x16	;; SPECIAL 22
0000077e  000502              4390  		DC	0x0,0x5,0x2	;; DW_LNE_set_address
00000781  00000000          + 4391  		DD	.DWLopt230	;;     operand
00000785  27                  4392  		DC	0x27	;; SPECIAL 39
00000786  06                  4393  		DC	0x6	;; DW_LNS_negate_stmt
00000787  000502              4394  		DC	0x0,0x5,0x2	;; DW_LNE_set_address
0000078a  00000000          + 4395  		DD	.DWLopt231	;;     operand
0000078e  18                  4396  		DC	0x18	;; SPECIAL 24
0000078f  000502              4397  		DC	0x0,0x5,0x2	;; DW_LNE_set_address
00000792  00000000          + 4398  		DD	.DWLopt232	;;     operand
00000796  14                  4399  		DC	0x14	;; SPECIAL 20
00000797  000502              4400  		DC	0x0,0x5,0x2	;; DW_LNE_set_address
0000079a  00000000          + 4401  		DD	.DWLopt233	;;     operand
0000079e  03                  4402  		DC	0x3	;; DW_LNS_advance_line
0000079f  7D                  4403  		DC	0x7d	;; -3
000007a0  01                  4404  		DC	0x1	;; DW_LNS_copy
000007a1  06                  4405  		DC	0x6	;; DW_LNS_negate_stmt
000007a2  000502              4406  		DC	0x0,0x5,0x2	;; DW_LNE_set_address
000007a5  00000000          + 4407  		DD	.DWLopt234	;;     operand
000007a9  0F                  4408  		DC	0xf	;; SPECIAL 15
000007aa  06                  4409  		DC	0x6	;; DW_LNS_negate_stmt
000007ab  000502              4410  		DC	0x0,0x5,0x2	;; DW_LNE_set_address
000007ae  00000000          + 4411  		DD	.DWLopt235	;;     operand
000007b2  0D                  4412  		DC	0xd	;; SPECIAL 13
000007b3  000502              4413  		DC	0x0,0x5,0x2	;; DW_LNE_set_address
000007b6  00000000          + 4414  		DD	.DWLopt236	;;     operand
000007ba  10                  4415  		DC	0x10	;; SPECIAL 16
000007bb  06                  4416  		DC	0x6	;; DW_LNS_negate_stmt
000007bc  000502              4417  		DC	0x0,0x5,0x2	;; DW_LNE_set_address
000007bf  00000000          + 4418  		DD	.DWLopt237	;;     operand
000007c3  03                  4419  		DC	0x3	;; DW_LNS_advance_line
000007c4  7C                  4420  		DC	0x7c	;; -4
000007c5  01                  4421  		DC	0x1	;; DW_LNS_copy
000007c6  06                  4422  		DC	0x6	;; DW_LNS_negate_stmt
000007c7  000502              4423  		DC	0x0,0x5,0x2	;; DW_LNE_set_address
000007ca  00000000          + 4424  		DD	.DWLopt238	;;     operand
000007ce  0D                  4425  		DC	0xd	;; SPECIAL 13
000007cf  000502              4426  		DC	0x0,0x5,0x2	;; DW_LNE_set_address
000007d2  00000000          + 4427  		DD	.DWLopt239	;;     operand
000007d6  0D                  4428  		DC	0xd	;; SPECIAL 13
000007d7  06                  4429  		DC	0x6	;; DW_LNS_negate_stmt
000007d8  000502              4430  		DC	0x0,0x5,0x2	;; DW_LNE_set_address
000007db  00000000          + 4431  		DD	.DWLopt240	;;     operand
000007df  03                  4432  		DC	0x3	;; DW_LNS_advance_line
000007e0  7A                  4433  		DC	0x7a	;; -6
000007e1  01                  4434  		DC	0x1	;; DW_LNS_copy
000007e2  06                  4435  		DC	0x6	;; DW_LNS_negate_stmt
000007e3  000502              4436  		DC	0x0,0x5,0x2	;; DW_LNE_set_address
000007e6  00000000          + 4437  		DD	.DWLopt241	;;     operand
000007ea  0D                  4438  		DC	0xd	;; SPECIAL 13
000007eb  000502              4439  		DC	0x0,0x5,0x2	;; DW_LNE_set_address
000007ee  00000000          + 4440  		DD	.DWLopt242	;;     operand
000007f2  0D                  4441  		DC	0xd	;; SPECIAL 13
000007f3  000502              4442  		DC	0x0,0x5,0x2	;; DW_LNE_set_address
000007f6  00000000          + 4443  		DD	.DWLopt243	;;     operand
000007fa  12                  4444  		DC	0x12	;; SPECIAL 18
000007fb  06                  4445  		DC	0x6	;; DW_LNS_negate_stmt
000007fc  000502              4446  		DC	0x0,0x5,0x2	;; DW_LNE_set_address
000007ff  00000000          + 4447  		DD	.DWLopt244	;;     operand
00000803  03                  4448  		DC	0x3	;; DW_LNS_advance_line
00000804  897B                4449  		DC	0x89,0x7b	;; -631
00000806  01                  4450  		DC	0x1	;; DW_LNS_copy
00000807  06                  4451  		DC	0x6	;; DW_LNS_negate_stmt
00000808  000502              4452  		DC	0x0,0x5,0x2	;; DW_LNE_set_address
0000080b  00000000          + 4453  		DD	.DWLopt245	;;     operand
0000080f  03                  4454  		DC	0x3	;; DW_LNS_advance_line
00000810  F904                4455  		DC	0xf9,0x4	;; 633
00000812  01                  4456  		DC	0x1	;; DW_LNS_copy
00000813  000502              4457  		DC	0x0,0x5,0x2	;; DW_LNE_set_address
00000816  00000000          + 4458  		DD	.DWLopt246	;;     operand
0000081a  0A                  4459  		DC	0xa	;; SPECIAL 10
0000081b  000502              4460  		DC	0x0,0x5,0x2	;; DW_LNE_set_address
0000081e  00000000          + 4461  		DD	.DWLopt247	;;     operand
00000822  0C                  4462  		DC	0xc	;; SPECIAL 12
00000823  000502              4463  		DC	0x0,0x5,0x2	;; DW_LNE_set_address
00000826  00000000          + 4464  		DD	.DWLopt248	;;     operand
0000082a  11                  4465  		DC	0x11	;; SPECIAL 17
0000082b  000502              4466  		DC	0x0,0x5,0x2	;; DW_LNE_set_address
0000082e  00000000          + 4467  		DD	.DWLopt249	;;     operand
00000832  0D                  4468  		DC	0xd	;; SPECIAL 13
00000833  06                  4469  		DC	0x6	;; DW_LNS_negate_stmt
00000834  000502              4470  		DC	0x0,0x5,0x2	;; DW_LNE_set_address
00000837  00000000          + 4471  		DD	.LDW40	;;     operand
0000083b  000101              4472  		DC	0x0,0x1,0x1	;; DW_LNE_end_sequence
0000083e  000502              4473  		DC	0x0,0x5,0x2	;; DW_LNE_set_address
00000841  00000000          + 4474  		DD	.DWLopt255	;;     operand
00000845  03                  4475  		DC	0x3	;; DW_LNS_advance_line
00000846  8805                4476  		DC	0x88,0x5	;; 648
00000848  01                  4477  		DC	0x1	;; DW_LNS_copy
00000849  000502              4478  		DC	0x0,0x5,0x2	;; DW_LNE_set_address
0000084c  00000000          + 4479  		DD	.DWLopt256	;;     operand
00000850  03                  4480  		DC	0x3	;; DW_LNS_advance_line
00000851  78                  4481  		DC	0x78	;; -8
00000852  01                  4482  		DC	0x1	;; DW_LNS_copy
00000853  06                  4483  		DC	0x6	;; DW_LNS_negate_stmt
00000854  000502              4484  		DC	0x0,0x5,0x2	;; DW_LNE_set_address
00000857  00000000          + 4485  		DD	.DWLopt257	;;     operand
0000085b  14                  4486  		DC	0x14	;; SPECIAL 20
0000085c  06                  4487  		DC	0x6	;; DW_LNS_negate_stmt
0000085d  000502              4488  		DC	0x0,0x5,0x2	;; DW_LNE_set_address
00000860  00000000          + 4489  		DD	.DWLopt258	;;     operand
00000864  0D                  4490  		DC	0xd	;; SPECIAL 13
00000865  000502              4491  		DC	0x0,0x5,0x2	;; DW_LNE_set_address
00000868  00000000          + 4492  		DD	.DWLopt259	;;     operand
0000086c  0E                  4493  		DC	0xe	;; SPECIAL 14
0000086d  000502              4494  		DC	0x0,0x5,0x2	;; DW_LNE_set_address
00000870  00000000          + 4495  		DD	.DWLopt260	;;     operand
00000874  0E                  4496  		DC	0xe	;; SPECIAL 14
00000875  000502              4497  		DC	0x0,0x5,0x2	;; DW_LNE_set_address
00000878  00000000          + 4498  		DD	.DWLopt261	;;     operand
0000087c  0E                  4499  		DC	0xe	;; SPECIAL 14
0000087d  06                  4500  		DC	0x6	;; DW_LNS_negate_stmt
0000087e  000502              4501  		DC	0x0,0x5,0x2	;; DW_LNE_set_address
00000881  00000000          + 4502  		DD	.DWLopt262	;;     operand
00000885  0A                  4503  		DC	0xa	;; SPECIAL 10
00000886  000502              4504  		DC	0x0,0x5,0x2	;; DW_LNE_set_address
00000889  00000000          + 4505  		DD	.DWLopt263	;;     operand
0000088d  0E                  4506  		DC	0xe	;; SPECIAL 14
0000088e  06                  4507  		DC	0x6	;; DW_LNS_negate_stmt
0000088f  000502              4508  		DC	0x0,0x5,0x2	;; DW_LNE_set_address
00000892  00000000          + 4509  		DD	.DWLopt264	;;     operand
00000896  0D                  4510  		DC	0xd	;; SPECIAL 13
00000897  000502              4511  		DC	0x0,0x5,0x2	;; DW_LNE_set_address
0000089a  00000000          + 4512  		DD	.DWLopt265	;;     operand
0000089e  0D                  4513  		DC	0xd	;; SPECIAL 13
0000089f  000502              4514  		DC	0x0,0x5,0x2	;; DW_LNE_set_address
000008a2  00000000          + 4515  		DD	.DWLopt266	;;     operand
000008a6  0E                  4516  		DC	0xe	;; SPECIAL 14
000008a7  000502              4517  		DC	0x0,0x5,0x2	;; DW_LNE_set_address
000008aa  00000000          + 4518  		DD	.DWLopt267	;;     operand
000008ae  0D                  4519  		DC	0xd	;; SPECIAL 13
000008af  000502              4520  		DC	0x0,0x5,0x2	;; DW_LNE_set_address
000008b2  00000000          + 4521  		DD	.DWLopt268	;;     operand
000008b6  0E                  4522  		DC	0xe	;; SPECIAL 14
000008b7  000502              4523  		DC	0x0,0x5,0x2	;; DW_LNE_set_address
000008ba  00000000          + 4524  		DD	.DWLopt269	;;     operand
000008be  0D                  4525  		DC	0xd	;; SPECIAL 13
000008bf  000502              4526  		DC	0x0,0x5,0x2	;; DW_LNE_set_address
000008c2  00000000          + 4527  		DD	.DWLopt270	;;     operand
000008c6  0E                  4528  		DC	0xe	;; SPECIAL 14
000008c7  000502              4529  		DC	0x0,0x5,0x2	;; DW_LNE_set_address
000008ca  00000000          + 4530  		DD	.DWLopt271	;;     operand
000008ce  0E                  4531  		DC	0xe	;; SPECIAL 14
000008cf  000502              4532  		DC	0x0,0x5,0x2	;; DW_LNE_set_address
000008d2  00000000          + 4533  		DD	.DWLopt272	;;     operand
000008d6  0D                  4534  		DC	0xd	;; SPECIAL 13
000008d7  000502              4535  		DC	0x0,0x5,0x2	;; DW_LNE_set_address
000008da  00000000          + 4536  		DD	.DWLopt273	;;     operand
000008de  10                  4537  		DC	0x10	;; SPECIAL 16
000008df  000502              4538  		DC	0x0,0x5,0x2	;; DW_LNE_set_address
000008e2  00000000          + 4539  		DD	.DWLopt274	;;     operand
000008e6  0F                  4540  		DC	0xf	;; SPECIAL 15
000008e7  000502              4541  		DC	0x0,0x5,0x2	;; DW_LNE_set_address
000008ea  00000000          + 4542  		DD	.DWLopt275	;;     operand
000008ee  12                  4543  		DC	0x12	;; SPECIAL 18
000008ef  06                  4544  		DC	0x6	;; DW_LNS_negate_stmt
000008f0  000502              4545  		DC	0x0,0x5,0x2	;; DW_LNE_set_address
000008f3  00000000          + 4546  		DD	.DWLopt276	;;     operand
000008f7  03                  4547  		DC	0x3	;; DW_LNS_advance_line
000008f8  7A                  4548  		DC	0x7a	;; -6
000008f9  01                  4549  		DC	0x1	;; DW_LNS_copy
000008fa  06                  4550  		DC	0x6	;; DW_LNS_negate_stmt
000008fb  000502              4551  		DC	0x0,0x5,0x2	;; DW_LNE_set_address
000008fe  00000000          + 4552  		DD	.DWLopt277	;;     operand
00000902  0D                  4553  		DC	0xd	;; SPECIAL 13
00000903  000502              4554  		DC	0x0,0x5,0x2	;; DW_LNE_set_address
00000906  00000000          + 4555  		DD	.DWLopt278	;;     operand
0000090a  0E                  4556  		DC	0xe	;; SPECIAL 14
0000090b  000502              4557  		DC	0x0,0x5,0x2	;; DW_LNE_set_address
0000090e  00000000          + 4558  		DD	.DWLopt279	;;     operand
00000912  0D                  4559  		DC	0xd	;; SPECIAL 13
00000913  06                  4560  		DC	0x6	;; DW_LNS_negate_stmt
00000914  000502              4561  		DC	0x0,0x5,0x2	;; DW_LNE_set_address
00000917  00000000          + 4562  		DD	.DWLopt280	;;     operand
0000091b  0E                  4563  		DC	0xe	;; SPECIAL 14
0000091c  06                  4564  		DC	0x6	;; DW_LNS_negate_stmt
0000091d  000502              4565  		DC	0x0,0x5,0x2	;; DW_LNE_set_address
00000920  00000000          + 4566  		DD	.DWLopt281	;;     operand
00000924  0E                  4567  		DC	0xe	;; SPECIAL 14
00000925  000502              4568  		DC	0x0,0x5,0x2	;; DW_LNE_set_address
00000928  00000000          + 4569  		DD	.DWLopt282	;;     operand
0000092c  11                  4570  		DC	0x11	;; SPECIAL 17
0000092d  000502              4571  		DC	0x0,0x5,0x2	;; DW_LNE_set_address
00000930  00000000          + 4572  		DD	.DWLopt283	;;     operand
00000934  0D                  4573  		DC	0xd	;; SPECIAL 13
00000935  000502              4574  		DC	0x0,0x5,0x2	;; DW_LNE_set_address
00000938  00000000          + 4575  		DD	.DWLopt284	;;     operand
0000093c  0D                  4576  		DC	0xd	;; SPECIAL 13
0000093d  000502              4577  		DC	0x0,0x5,0x2	;; DW_LNE_set_address
00000940  00000000          + 4578  		DD	.DWLopt285	;;     operand
00000944  0D                  4579  		DC	0xd	;; SPECIAL 13
00000945  000502              4580  		DC	0x0,0x5,0x2	;; DW_LNE_set_address
00000948  00000000          + 4581  		DD	.DWLopt286	;;     operand
0000094c  0D                  4582  		DC	0xd	;; SPECIAL 13
0000094d  000502              4583  		DC	0x0,0x5,0x2	;; DW_LNE_set_address
00000950  00000000          + 4584  		DD	.DWLopt287	;;     operand
00000954  0D                  4585  		DC	0xd	;; SPECIAL 13
00000955  000502              4586  		DC	0x0,0x5,0x2	;; DW_LNE_set_address
00000958  00000000          + 4587  		DD	.DWLopt288	;;     operand
0000095c  0D                  4588  		DC	0xd	;; SPECIAL 13
0000095d  000502              4589  		DC	0x0,0x5,0x2	;; DW_LNE_set_address
00000960  00000000          + 4590  		DD	.DWLopt289	;;     operand
00000964  0D                  4591  		DC	0xd	;; SPECIAL 13
00000965  000502              4592  		DC	0x0,0x5,0x2	;; DW_LNE_set_address
00000968  00000000          + 4593  		DD	.DWLopt290	;;     operand
0000096c  0D                  4594  		DC	0xd	;; SPECIAL 13
0000096d  000502              4595  		DC	0x0,0x5,0x2	;; DW_LNE_set_address
00000970  00000000          + 4596  		DD	.DWLopt291	;;     operand
00000974  0D                  4597  		DC	0xd	;; SPECIAL 13
00000975  000502              4598  		DC	0x0,0x5,0x2	;; DW_LNE_set_address
00000978  00000000          + 4599  		DD	.DWLopt292	;;     operand
0000097c  0D                  4600  		DC	0xd	;; SPECIAL 13
0000097d  000502              4601  		DC	0x0,0x5,0x2	;; DW_LNE_set_address
00000980  00000000          + 4602  		DD	.DWLopt293	;;     operand
00000984  0D                  4603  		DC	0xd	;; SPECIAL 13
00000985  000502              4604  		DC	0x0,0x5,0x2	;; DW_LNE_set_address
00000988  00000000          + 4605  		DD	.DWLopt294	;;     operand
0000098c  0D                  4606  		DC	0xd	;; SPECIAL 13
0000098d  06                  4607  		DC	0x6	;; DW_LNS_negate_stmt
0000098e  000502              4608  		DC	0x0,0x5,0x2	;; DW_LNE_set_address
00000991  00000000          + 4609  		DD	.DWLopt295	;;     operand
00000995  03                  4610  		DC	0x3	;; DW_LNS_advance_line
00000996  6F                  4611  		DC	0x6f	;; -17
00000997  01                  4612  		DC	0x1	;; DW_LNS_copy
00000998  06                  4613  		DC	0x6	;; DW_LNS_negate_stmt
00000999  000502              4614  		DC	0x0,0x5,0x2	;; DW_LNE_set_address
0000099c  00000000          + 4615  		DD	.DWLopt296	;;     operand
000009a0  20                  4616  		DC	0x20	;; SPECIAL 32
000009a1  000502              4617  		DC	0x0,0x5,0x2	;; DW_LNE_set_address
000009a4  00000000          + 4618  		DD	.DWLopt297	;;     operand
000009a8  0C                  4619  		DC	0xc	;; SPECIAL 12
000009a9  06                  4620  		DC	0x6	;; DW_LNS_negate_stmt
000009aa  000502              4621  		DC	0x0,0x5,0x2	;; DW_LNE_set_address
000009ad  00000000          + 4622  		DD	.DWLopt298	;;     operand
000009b1  03                  4623  		DC	0x3	;; DW_LNS_advance_line
000009b2  C07A                4624  		DC	0xc0,0x7a	;; -704
000009b4  01                  4625  		DC	0x1	;; DW_LNS_copy
000009b5  06                  4626  		DC	0x6	;; DW_LNS_negate_stmt
000009b6  000502              4627  		DC	0x0,0x5,0x2	;; DW_LNE_set_address
000009b9  00000000          + 4628  		DD	.DWLopt299	;;     operand
000009bd  03                  4629  		DC	0x3	;; DW_LNS_advance_line
000009be  C205                4630  		DC	0xc2,0x5	;; 706
000009c0  01                  4631  		DC	0x1	;; DW_LNS_copy
000009c1  000502              4632  		DC	0x0,0x5,0x2	;; DW_LNE_set_address
000009c4  00000000          + 4633  		DD	.DWLopt300	;;     operand
000009c8  0A                  4634  		DC	0xa	;; SPECIAL 10
000009c9  000502              4635  		DC	0x0,0x5,0x2	;; DW_LNE_set_address
000009cc  00000000          + 4636  		DD	.DWLopt301	;;     operand
000009d0  0C                  4637  		DC	0xc	;; SPECIAL 12
000009d1  000502              4638  		DC	0x0,0x5,0x2	;; DW_LNE_set_address
000009d4  00000000          + 4639  		DD	.DWLopt302	;;     operand
000009d8  10                  4640  		DC	0x10	;; SPECIAL 16
000009d9  000502              4641  		DC	0x0,0x5,0x2	;; DW_LNE_set_address
000009dc  00000000          + 4642  		DD	.DWLopt303	;;     operand
000009e0  0D                  4643  		DC	0xd	;; SPECIAL 13
000009e1  06                  4644  		DC	0x6	;; DW_LNS_negate_stmt
000009e2  000502              4645  		DC	0x0,0x5,0x2	;; DW_LNE_set_address
000009e5  00000000          + 4646  		DD	.LDW41	;;     operand
000009e9  000101              4647  		DC	0x0,0x1,0x1	;; DW_LNE_end_sequence
000009ec  000502              4648  		DC	0x0,0x5,0x2	;; DW_LNE_set_address
000009ef  00000000          + 4649  		DD	.DWLopt308	;;     operand
000009f3  03                  4650  		DC	0x3	;; DW_LNS_advance_line
000009f4  CC05                4651  		DC	0xcc,0x5	;; 716
000009f6  01                  4652  		DC	0x1	;; DW_LNS_copy
000009f7  000502              4653  		DC	0x0,0x5,0x2	;; DW_LNE_set_address
000009fa  00000000          + 4654  		DD	.DWLopt309	;;     operand
000009fe  0E                  4655  		DC	0xe	;; SPECIAL 14
000009ff  000502              4656  		DC	0x0,0x5,0x2	;; DW_LNE_set_address
00000a02  00000000          + 4657  		DD	.DWLopt310	;;     operand
00000a06  03                  4658  		DC	0x3	;; DW_LNS_advance_line
00000a07  7A                  4659  		DC	0x7a	;; -6
00000a08  01                  4660  		DC	0x1	;; DW_LNS_copy
00000a09  06                  4661  		DC	0x6	;; DW_LNS_negate_stmt
00000a0a  000502              4662  		DC	0x0,0x5,0x2	;; DW_LNE_set_address
00000a0d  00000000          + 4663  		DD	.DWLopt311	;;     operand
00000a11  12                  4664  		DC	0x12	;; SPECIAL 18
00000a12  06                  4665  		DC	0x6	;; DW_LNS_negate_stmt
00000a13  000502              4666  		DC	0x0,0x5,0x2	;; DW_LNE_set_address
00000a16  00000000          + 4667  		DD	.DWLopt312	;;     operand
00000a1a  0D                  4668  		DC	0xd	;; SPECIAL 13
00000a1b  000502              4669  		DC	0x0,0x5,0x2	;; DW_LNE_set_address
00000a1e  00000000          + 4670  		DD	.DWLopt313	;;     operand
00000a22  0E                  4671  		DC	0xe	;; SPECIAL 14
00000a23  000502              4672  		DC	0x0,0x5,0x2	;; DW_LNE_set_address
00000a26  00000000          + 4673  		DD	.DWLopt314	;;     operand
00000a2a  0E                  4674  		DC	0xe	;; SPECIAL 14
00000a2b  000502              4675  		DC	0x0,0x5,0x2	;; DW_LNE_set_address
00000a2e  00000000          + 4676  		DD	.DWLopt315	;;     operand
00000a32  0E                  4677  		DC	0xe	;; SPECIAL 14
00000a33  000502              4678  		DC	0x0,0x5,0x2	;; DW_LNE_set_address
00000a36  00000000          + 4679  		DD	.DWLopt316	;;     operand
00000a3a  0F                  4680  		DC	0xf	;; SPECIAL 15
00000a3b  000502              4681  		DC	0x0,0x5,0x2	;; DW_LNE_set_address
00000a3e  00000000          + 4682  		DD	.DWLopt317	;;     operand
00000a42  0E                  4683  		DC	0xe	;; SPECIAL 14
00000a43  000502              4684  		DC	0x0,0x5,0x2	;; DW_LNE_set_address
00000a46  00000000          + 4685  		DD	.DWLopt318	;;     operand
00000a4a  0E                  4686  		DC	0xe	;; SPECIAL 14
00000a4b  000502              4687  		DC	0x0,0x5,0x2	;; DW_LNE_set_address
00000a4e  00000000          + 4688  		DD	.DWLopt319	;;     operand
00000a52  0D                  4689  		DC	0xd	;; SPECIAL 13
00000a53  000502              4690  		DC	0x0,0x5,0x2	;; DW_LNE_set_address
00000a56  00000000          + 4691  		DD	.DWLopt320	;;     operand
00000a5a  10                  4692  		DC	0x10	;; SPECIAL 16
00000a5b  000502              4693  		DC	0x0,0x5,0x2	;; DW_LNE_set_address
00000a5e  00000000          + 4694  		DD	.DWLopt321	;;     operand
00000a62  0A                  4695  		DC	0xa	;; SPECIAL 10
00000a63  000502              4696  		DC	0x0,0x5,0x2	;; DW_LNE_set_address
00000a66  00000000          + 4697  		DD	.DWLopt322	;;     operand
00000a6a  13                  4698  		DC	0x13	;; SPECIAL 19
00000a6b  000502              4699  		DC	0x0,0x5,0x2	;; DW_LNE_set_address
00000a6e  00000000          + 4700  		DD	.DWLopt323	;;     operand
00000a72  0D                  4701  		DC	0xd	;; SPECIAL 13
00000a73  000502              4702  		DC	0x0,0x5,0x2	;; DW_LNE_set_address
00000a76  00000000          + 4703  		DD	.DWLopt324	;;     operand
00000a7a  0D                  4704  		DC	0xd	;; SPECIAL 13
00000a7b  000502              4705  		DC	0x0,0x5,0x2	;; DW_LNE_set_address
00000a7e  00000000          + 4706  		DD	.DWLopt325	;;     operand
00000a82  0E                  4707  		DC	0xe	;; SPECIAL 14
00000a83  06                  4708  		DC	0x6	;; DW_LNS_negate_stmt
00000a84  000502              4709  		DC	0x0,0x5,0x2	;; DW_LNE_set_address
00000a87  00000000          + 4710  		DD	.DWLopt326	;;     operand
00000a8b  03                  4711  		DC	0x3	;; DW_LNS_advance_line
00000a8c  7C                  4712  		DC	0x7c	;; -4
00000a8d  01                  4713  		DC	0x1	;; DW_LNS_copy
00000a8e  000502              4714  		DC	0x0,0x5,0x2	;; DW_LNE_set_address
00000a91  00000000          + 4715  		DD	.DWLopt327	;;     operand
00000a95  10                  4716  		DC	0x10	;; SPECIAL 16
00000a96  06                  4717  		DC	0x6	;; DW_LNS_negate_stmt
00000a97  000502              4718  		DC	0x0,0x5,0x2	;; DW_LNE_set_address
00000a9a  00000000          + 4719  		DD	.DWLopt328	;;     operand
00000a9e  0D                  4720  		DC	0xd	;; SPECIAL 13
00000a9f  000502              4721  		DC	0x0,0x5,0x2	;; DW_LNE_set_address
00000aa2  00000000          + 4722  		DD	.DWLopt329	;;     operand
00000aa6  0D                  4723  		DC	0xd	;; SPECIAL 13
00000aa7  000502              4724  		DC	0x0,0x5,0x2	;; DW_LNE_set_address
00000aaa  00000000          + 4725  		DD	.DWLopt330	;;     operand
00000aae  10                  4726  		DC	0x10	;; SPECIAL 16
00000aaf  000502              4727  		DC	0x0,0x5,0x2	;; DW_LNE_set_address
00000ab2  00000000          + 4728  		DD	.DWLopt331	;;     operand
00000ab6  0D                  4729  		DC	0xd	;; SPECIAL 13
00000ab7  000502              4730  		DC	0x0,0x5,0x2	;; DW_LNE_set_address
00000aba  00000000          + 4731  		DD	.DWLopt332	;;     operand
00000abe  0D                  4732  		DC	0xd	;; SPECIAL 13
00000abf  000502              4733  		DC	0x0,0x5,0x2	;; DW_LNE_set_address
00000ac2  00000000          + 4734  		DD	.DWLopt333	;;     operand
00000ac6  0E                  4735  		DC	0xe	;; SPECIAL 14
00000ac7  000502              4736  		DC	0x0,0x5,0x2	;; DW_LNE_set_address
00000aca  00000000          + 4737  		DD	.DWLopt334	;;     operand
00000ace  0D                  4738  		DC	0xd	;; SPECIAL 13
00000acf  000502              4739  		DC	0x0,0x5,0x2	;; DW_LNE_set_address
00000ad2  00000000          + 4740  		DD	.DWLopt335	;;     operand
00000ad6  0D                  4741  		DC	0xd	;; SPECIAL 13
00000ad7  000502              4742  		DC	0x0,0x5,0x2	;; DW_LNE_set_address
00000ada  00000000          + 4743  		DD	.DWLopt336	;;     operand
00000ade  0E                  4744  		DC	0xe	;; SPECIAL 14
00000adf  000502              4745  		DC	0x0,0x5,0x2	;; DW_LNE_set_address
00000ae2  00000000          + 4746  		DD	.DWLopt337	;;     operand
00000ae6  0E                  4747  		DC	0xe	;; SPECIAL 14
00000ae7  000502              4748  		DC	0x0,0x5,0x2	;; DW_LNE_set_address
00000aea  00000000          + 4749  		DD	.DWLopt338	;;     operand
00000aee  0D                  4750  		DC	0xd	;; SPECIAL 13
00000aef  000502              4751  		DC	0x0,0x5,0x2	;; DW_LNE_set_address
00000af2  00000000          + 4752  		DD	.DWLopt339	;;     operand
00000af6  10                  4753  		DC	0x10	;; SPECIAL 16
00000af7  000502              4754  		DC	0x0,0x5,0x2	;; DW_LNE_set_address
00000afa  00000000          + 4755  		DD	.DWLopt340	;;     operand
00000afe  0D                  4756  		DC	0xd	;; SPECIAL 13
00000aff  000502              4757  		DC	0x0,0x5,0x2	;; DW_LNE_set_address
00000b02  00000000          + 4758  		DD	.DWLopt341	;;     operand
00000b06  0D                  4759  		DC	0xd	;; SPECIAL 13
00000b07  000502              4760  		DC	0x0,0x5,0x2	;; DW_LNE_set_address
00000b0a  00000000          + 4761  		DD	.DWLopt342	;;     operand
00000b0e  0E                  4762  		DC	0xe	;; SPECIAL 14
00000b0f  000502              4763  		DC	0x0,0x5,0x2	;; DW_LNE_set_address
00000b12  00000000          + 4764  		DD	.DWLopt343	;;     operand
00000b16  0E                  4765  		DC	0xe	;; SPECIAL 14
00000b17  000502              4766  		DC	0x0,0x5,0x2	;; DW_LNE_set_address
00000b1a  00000000          + 4767  		DD	.DWLopt344	;;     operand
00000b1e  12                  4768  		DC	0x12	;; SPECIAL 18
00000b1f  000502              4769  		DC	0x0,0x5,0x2	;; DW_LNE_set_address
00000b22  00000000          + 4770  		DD	.DWLopt345	;;     operand
00000b26  0E                  4771  		DC	0xe	;; SPECIAL 14
00000b27  000502              4772  		DC	0x0,0x5,0x2	;; DW_LNE_set_address
00000b2a  00000000          + 4773  		DD	.DWLopt346	;;     operand
00000b2e  0E                  4774  		DC	0xe	;; SPECIAL 14
00000b2f  000502              4775  		DC	0x0,0x5,0x2	;; DW_LNE_set_address
00000b32  00000000          + 4776  		DD	.DWLopt347	;;     operand
00000b36  0D                  4777  		DC	0xd	;; SPECIAL 13
00000b37  000502              4778  		DC	0x0,0x5,0x2	;; DW_LNE_set_address
00000b3a  00000000          + 4779  		DD	.DWLopt348	;;     operand
00000b3e  0C                  4780  		DC	0xc	;; SPECIAL 12
00000b3f  06                  4781  		DC	0x6	;; DW_LNS_negate_stmt
00000b40  000502              4782  		DC	0x0,0x5,0x2	;; DW_LNE_set_address
00000b43  00000000          + 4783  		DD	.DWLopt349	;;     operand
00000b47  03                  4784  		DC	0x3	;; DW_LNS_advance_line
00000b48  EF79                4785  		DC	0xef,0x79	;; -785
00000b4a  01                  4786  		DC	0x1	;; DW_LNS_copy
00000b4b  06                  4787  		DC	0x6	;; DW_LNS_negate_stmt
00000b4c  000502              4788  		DC	0x0,0x5,0x2	;; DW_LNE_set_address
00000b4f  00000000          + 4789  		DD	.DWLopt350	;;     operand
00000b53  03                  4790  		DC	0x3	;; DW_LNS_advance_line
00000b54  9506                4791  		DC	0x95,0x6	;; 789
00000b56  01                  4792  		DC	0x1	;; DW_LNS_copy
00000b57  000502              4793  		DC	0x0,0x5,0x2	;; DW_LNE_set_address
00000b5a  00000000          + 4794  		DD	.DWLopt351	;;     operand
00000b5e  0F                  4795  		DC	0xf	;; SPECIAL 15
00000b5f  000502              4796  		DC	0x0,0x5,0x2	;; DW_LNE_set_address
00000b62  00000000          + 4797  		DD	.DWLopt352	;;     operand
00000b66  0E                  4798  		DC	0xe	;; SPECIAL 14
00000b67  06                  4799  		DC	0x6	;; DW_LNS_negate_stmt
00000b68  000502              4800  		DC	0x0,0x5,0x2	;; DW_LNE_set_address
00000b6b  00000000          + 4801  		DD	.DWLopt353	;;     operand
00000b6f  0A                  4802  		DC	0xa	;; SPECIAL 10
00000b70  06                  4803  		DC	0x6	;; DW_LNS_negate_stmt
00000b71  000502              4804  		DC	0x0,0x5,0x2	;; DW_LNE_set_address
00000b74  00000000          + 4805  		DD	.DWLopt354	;;     operand
00000b78  0E                  4806  		DC	0xe	;; SPECIAL 14
00000b79  06                  4807  		DC	0x6	;; DW_LNS_negate_stmt
00000b7a  000502              4808  		DC	0x0,0x5,0x2	;; DW_LNE_set_address
00000b7d  00000000          + 4809  		DD	.DWLopt355	;;     operand
00000b81  03                  4810  		DC	0x3	;; DW_LNS_advance_line
00000b82  E679                4811  		DC	0xe6,0x79	;; -794
00000b84  01                  4812  		DC	0x1	;; DW_LNS_copy
00000b85  06                  4813  		DC	0x6	;; DW_LNS_negate_stmt
00000b86  000502              4814  		DC	0x0,0x5,0x2	;; DW_LNE_set_address
00000b89  00000000          + 4815  		DD	.DWLopt356	;;     operand
00000b8d  03                  4816  		DC	0x3	;; DW_LNS_advance_line
00000b8e  9C06                4817  		DC	0x9c,0x6	;; 796
00000b90  01                  4818  		DC	0x1	;; DW_LNS_copy
00000b91  000502              4819  		DC	0x0,0x5,0x2	;; DW_LNE_set_address
00000b94  00000000          + 4820  		DD	.DWLopt357	;;     operand
00000b98  0A                  4821  		DC	0xa	;; SPECIAL 10
00000b99  000502              4822  		DC	0x0,0x5,0x2	;; DW_LNE_set_address
00000b9c  00000000          + 4823  		DD	.DWLopt358	;;     operand
00000ba0  0C                  4824  		DC	0xc	;; SPECIAL 12
00000ba1  000502              4825  		DC	0x0,0x5,0x2	;; DW_LNE_set_address
00000ba4  00000000          + 4826  		DD	.DWLopt359	;;     operand
00000ba8  10                  4827  		DC	0x10	;; SPECIAL 16
00000ba9  000502              4828  		DC	0x0,0x5,0x2	;; DW_LNE_set_address
00000bac  00000000          + 4829  		DD	.DWLopt360	;;     operand
00000bb0  0D                  4830  		DC	0xd	;; SPECIAL 13
00000bb1  06                  4831  		DC	0x6	;; DW_LNS_negate_stmt
00000bb2  000502              4832  		DC	0x0,0x5,0x2	;; DW_LNE_set_address
00000bb5  00000000          + 4833  		DD	.LDW42	;;     operand
00000bb9  000101              4834  		DC	0x0,0x1,0x1	;; DW_LNE_end_sequence
00000bbc  000502              4835  		DC	0x0,0x5,0x2	;; DW_LNE_set_address
00000bbf  00000000          + 4836  		DD	.DWLopt361	;;     operand
00000bc3  03                  4837  		DC	0x3	;; DW_LNS_advance_line
00000bc4  A206                4838  		DC	0xa2,0x6	;; 802
00000bc6  01                  4839  		DC	0x1	;; DW_LNS_copy
00000bc7  000502              4840  		DC	0x0,0x5,0x2	;; DW_LNE_set_address
00000bca  00000000          + 4841  		DD	.DWLopt362	;;     operand
00000bce  23                  4842  		DC	0x23	;; SPECIAL 35
00000bcf  000502              4843  		DC	0x0,0x5,0x2	;; DW_LNE_set_address
00000bd2  00000000          + 4844  		DD	.DWLopt363	;;     operand
00000bd6  03                  4845  		DC	0x3	;; DW_LNS_advance_line
00000bd7  6B                  4846  		DC	0x6b	;; -21
00000bd8  01                  4847  		DC	0x1	;; DW_LNS_copy
00000bd9  06                  4848  		DC	0x6	;; DW_LNS_negate_stmt
00000bda  000502              4849  		DC	0x0,0x5,0x2	;; DW_LNE_set_address
00000bdd  00000000          + 4850  		DD	.DWLopt364	;;     operand
00000be1  21                  4851  		DC	0x21	;; SPECIAL 33
00000be2  06                  4852  		DC	0x6	;; DW_LNS_negate_stmt
00000be3  000502              4853  		DC	0x0,0x5,0x2	;; DW_LNE_set_address
00000be6  00000000          + 4854  		DD	.DWLopt365	;;     operand
00000bea  03                  4855  		DC	0x3	;; DW_LNS_advance_line
00000beb  6D                  4856  		DC	0x6d	;; -19
00000bec  01                  4857  		DC	0x1	;; DW_LNS_copy
00000bed  000502              4858  		DC	0x0,0x5,0x2	;; DW_LNE_set_address
00000bf0  00000000          + 4859  		DD	.DWLopt366	;;     operand
00000bf4  0D                  4860  		DC	0xd	;; SPECIAL 13
00000bf5  000502              4861  		DC	0x0,0x5,0x2	;; DW_LNE_set_address
00000bf8  00000000          + 4862  		DD	.DWLopt367	;;     operand
00000bfc  0E                  4863  		DC	0xe	;; SPECIAL 14
00000bfd  000502              4864  		DC	0x0,0x5,0x2	;; DW_LNE_set_address
00000c00  00000000          + 4865  		DD	.DWLopt368	;;     operand
00000c04  0D                  4866  		DC	0xd	;; SPECIAL 13
00000c05  000502              4867  		DC	0x0,0x5,0x2	;; DW_LNE_set_address
00000c08  00000000          + 4868  		DD	.DWLopt369	;;     operand
00000c0c  0D                  4869  		DC	0xd	;; SPECIAL 13
00000c0d  000502              4870  		DC	0x0,0x5,0x2	;; DW_LNE_set_address
00000c10  00000000          + 4871  		DD	.DWLopt370	;;     operand
00000c14  0D                  4872  		DC	0xd	;; SPECIAL 13
00000c15  000502              4873  		DC	0x0,0x5,0x2	;; DW_LNE_set_address
00000c18  00000000          + 4874  		DD	.DWLopt371	;;     operand
00000c1c  0E                  4875  		DC	0xe	;; SPECIAL 14
00000c1d  000502              4876  		DC	0x0,0x5,0x2	;; DW_LNE_set_address
00000c20  00000000          + 4877  		DD	.DWLopt372	;;     operand
00000c24  0D                  4878  		DC	0xd	;; SPECIAL 13
00000c25  000502              4879  		DC	0x0,0x5,0x2	;; DW_LNE_set_address
00000c28  00000000          + 4880  		DD	.DWLopt373	;;     operand
00000c2c  0E                  4881  		DC	0xe	;; SPECIAL 14
00000c2d  000502              4882  		DC	0x0,0x5,0x2	;; DW_LNE_set_address
00000c30  00000000          + 4883  		DD	.DWLopt374	;;     operand
00000c34  0D                  4884  		DC	0xd	;; SPECIAL 13
00000c35  000502              4885  		DC	0x0,0x5,0x2	;; DW_LNE_set_address
00000c38  00000000          + 4886  		DD	.DWLopt375	;;     operand
00000c3c  0D                  4887  		DC	0xd	;; SPECIAL 13
00000c3d  000502              4888  		DC	0x0,0x5,0x2	;; DW_LNE_set_address
00000c40  00000000          + 4889  		DD	.DWLopt376	;;     operand
00000c44  0D                  4890  		DC	0xd	;; SPECIAL 13
00000c45  06                  4891  		DC	0x6	;; DW_LNS_negate_stmt
00000c46  000502              4892  		DC	0x0,0x5,0x2	;; DW_LNE_set_address
00000c49  00000000          + 4893  		DD	.DWLopt377	;;     operand
00000c4d  11                  4894  		DC	0x11	;; SPECIAL 17
00000c4e  000502              4895  		DC	0x0,0x5,0x2	;; DW_LNE_set_address
00000c51  00000000          + 4896  		DD	.LDW43	;;     operand
00000c55  000101              4897  		DC	0x0,0x1,0x1	;; DW_LNE_end_sequence
00000c58  000502              4898  		DC	0x0,0x5,0x2	;; DW_LNE_set_address
00000c5b  00000000          + 4899  		DD	.DWLopt378	;;     operand
00000c5f  03                  4900  		DC	0x3	;; DW_LNS_advance_line
00000c60  BD06                4901  		DC	0xbd,0x6	;; 829
00000c62  01                  4902  		DC	0x1	;; DW_LNS_copy
00000c63  000502              4903  		DC	0x0,0x5,0x2	;; DW_LNE_set_address
00000c66  00000000          + 4904  		DD	.DWLopt379	;;     operand
00000c6a  0E                  4905  		DC	0xe	;; SPECIAL 14
00000c6b  000502              4906  		DC	0x0,0x5,0x2	;; DW_LNE_set_address
00000c6e  00000000          + 4907  		DD	.DWLopt380	;;     operand
00000c72  0E                  4908  		DC	0xe	;; SPECIAL 14
00000c73  000502              4909  		DC	0x0,0x5,0x2	;; DW_LNE_set_address
00000c76  00000000          + 4910  		DD	.DWLopt381	;;     operand
00000c7a  0E                  4911  		DC	0xe	;; SPECIAL 14
00000c7b  000502              4912  		DC	0x0,0x5,0x2	;; DW_LNE_set_address
00000c7e  00000000          + 4913  		DD	.DWLopt382	;;     operand
00000c82  0D                  4914  		DC	0xd	;; SPECIAL 13
00000c83  000502              4915  		DC	0x0,0x5,0x2	;; DW_LNE_set_address
00000c86  00000000          + 4916  		DD	.DWLopt383	;;     operand
00000c8a  10                  4917  		DC	0x10	;; SPECIAL 16
00000c8b  000502              4918  		DC	0x0,0x5,0x2	;; DW_LNE_set_address
00000c8e  00000000          + 4919  		DD	.DWLopt384	;;     operand
00000c92  0D                  4920  		DC	0xd	;; SPECIAL 13
00000c93  000502              4921  		DC	0x0,0x5,0x2	;; DW_LNE_set_address
00000c96  00000000          + 4922  		DD	.DWLopt385	;;     operand
00000c9a  0F                  4923  		DC	0xf	;; SPECIAL 15
00000c9b  000502              4924  		DC	0x0,0x5,0x2	;; DW_LNE_set_address
00000c9e  00000000          + 4925  		DD	.DWLopt386	;;     operand
00000ca2  0E                  4926  		DC	0xe	;; SPECIAL 14
00000ca3  000502              4927  		DC	0x0,0x5,0x2	;; DW_LNE_set_address
00000ca6  00000000          + 4928  		DD	.DWLopt387	;;     operand
00000caa  0D                  4929  		DC	0xd	;; SPECIAL 13
00000cab  000502              4930  		DC	0x0,0x5,0x2	;; DW_LNE_set_address
00000cae  00000000          + 4931  		DD	.DWLopt388	;;     operand
00000cb2  10                  4932  		DC	0x10	;; SPECIAL 16
00000cb3  06                  4933  		DC	0x6	;; DW_LNS_negate_stmt
00000cb4  000502              4934  		DC	0x0,0x5,0x2	;; DW_LNE_set_address
00000cb7  00000000          + 4935  		DD	.LDW44	;;     operand
00000cbb  000101              4936  		DC	0x0,0x1,0x1	;; DW_LNE_end_sequence
00000cbe                      4937  	.LLN_E
                              4938  	.debug_aranges		SECTION
                              4939  	;; Aranges Information
00000000  00000000          + 4940  		DD	.LAR_E-.LAR_B	;; length
00000004                      4941  	.LAR_B
00000004  0200                4942  		DW	0x2	;; version
00000006  00000000          + 4943  		DD	.LI_TOP	;; debug_info section
0000000a  04                  4944  		DC	0x4	;; address size
0000000b  00                  4945  		DC	0x0	;; segment size
0000000c  00000000            4946  		DD	0x0	;; padding
                              4947  		;; Address Range Table
00000010  0000000002000000  + 4948  		DD	_gus_SCI1rx_delay_timer,0x2	;; address, size
00000018  0000000002000000  + 4949  		DD	_gus_SCI1tx_delay_timer,0x2	;; address, size
00000020  0000000002000000  + 4950  		DD	_gus_SCI1comm_abend_timer,0x2	;; address, size
00000028  0000000002000000  + 4951  		DD	_gus_SCI1rx_ctrl_abend_timer,0x2	;; address, size
00000030  0000000002000000  + 4952  		DD	_gus_SCI1rx_end_timer,0x2	;; address, size
00000038  0000000002000000  + 4953  		DD	_gus_SCI1tx_cnt,0x2	;; address, size
00000040  0000000002000000  + 4954  		DD	_gus_SCI1rx_cnt,0x2	;; address, size
00000048  0000000001000000  + 4955  		DD	_guc_SCI1rx_byte,0x1	;; address, size
00000050  0000000011000000  + 4956  		DD	_guc_SCI1tx_buffer,0x11	;; address, size
00000058  0000000008000000  + 4957  		DD	_guc_SCI1rx_buffer,0x8	;; address, size
00000060  0000000002000000  + 4958  		DD	_gus_lcd_setfreq,0x2	;; address, size
00000068  0000000001000000  + 4959  		DD	_gus_tmppin,0x1	;; address, size
00000070  0000000000000000  + 4960  		DD	_SCI1_configure,.LDW27-_SCI1_configure	;; address, size
00000078  0000000000000000  + 4961  		DD	_SCI1comm_reset,.LDW28-_SCI1comm_reset	;; address, size
00000080  0000000000000000  + 4962  		DD	_SCI1rx_on_dealtime,.LDW29-_SCI1rx_on_dealtime	;; address, size
00000088  0000000000000000  + 4963  		DD	_SCI1_rx_int,.LDW30-_SCI1_rx_int	;; address, size
00000090  0000000000000000  + 4964  		DD	_SCI1rx_end_delaytimer,.LDW31-_SCI1rx_end_delaytimer	;; address, size
00000098  0000000000000000  + 4965  		DD	_SCI1comm_abend_dealtime,.LDW32-_SCI1comm_abend_dealtime	;; address, size
000000a0  0000000000000000  + 4966  		DD	_SCI1rx_ctrl_abend_dealtime,.LDW33-_SCI1rx_ctrl_abend_dealtime	;; address, size
000000a8  0000000000000000  + 4967  		DD	_SCI1rx_data_deal,.LDW34-_SCI1rx_data_deal	;; address, size
000000b0  0000000000000000  + 4968  		DD	_SCI1_handshake_info_deal,.LDW39-_SCI1_handshake_info_deal	;; address, size
000000b8  0000000000000000  + 4969  		DD	_SCI1_wrcmd_info_deal,.LDW40-_SCI1_wrcmd_info_deal	;; address, size
000000c0  0000000000000000  + 4970  		DD	_SCI1_rdcmd_info_deal,.LDW41-_SCI1_rdcmd_info_deal	;; address, size
000000c8  0000000000000000  + 4971  		DD	_SCI1_ctrl_info_deal,.LDW42-_SCI1_ctrl_info_deal	;; address, size
000000d0  0000000000000000  + 4972  		DD	_SCI1tx_on_dealtime,.LDW43-_SCI1tx_on_dealtime	;; address, size
000000d8  0000000000000000  + 4973  		DD	_SCI1_tx_int,.LDW44-_SCI1_tx_int	;; address, size
                              4974  		;; end
000000e0  00000000            4975  		DD	0x0
000000e4  00000000            4976  		DD	0x0
000000e8                      4977  	.LAR_E
                              4978  	;; End of Aranges Information
                              4979  		END
                              4980  	;;ENDFILE 
                                                OP00.lst	Page 2
*** Symbol Table ***
Address/Value	Class	Section			  Symbol

00000000	L	.debug_frame              .LFR_TOP
00000024	L	.debug_frame              .LFR_C_E
00000004	L	.debug_frame              .LFR_C_B
00000000	L	.text                     .LPC_TOP
00000000	G				  _flg_ctrl
00000000	G				  _flg_theta
00000000	G				  _flg_SCI1
00000000	G				  _EEPROM_InitData
00000000	G				  _ram_para
00000000	G				  _0get_eeppara_limit
00000000	G				  _0init_all_para
00000000	G				  _0clear_trip_cause
00000000	G				  _0writeword_to_eeprom
00000000	G				  _gus_Iout_for_disp
00000000	G				  _gus_Udc_for_disp
00000000	G				  _gss_Tm
00000000	G				  _gus_freq_real
00000000	G				  _gus_MAX_setfreq
00000000	G				  _gus_Uout_real
00000000	G				  _flg_fault
00000000	G				  _guc_trip_code
00000000	G				  _guc_lamp_trip_code
00000000	G				  _guc_state_code
00000000	G				  _gus_trip_release_cnt
00000000	G				  _gss_stop_space_delaytimer
00000000	G				  _gus_phase_adv_degree
00000000	G	.text                     _SCI1_configure
00000003	G	.text                     _0SCI1_configure
00000003	L	.text                     .DWLopt1
00000009	L	.text                     .DWLopt2
00000014	L	.text                     .DWLopt3
0000001c	L	.text                     .DWLopt4
00000021	L	.text                     .DWLopt5
00000026	L	.text                     .DWLopt6
0000002b	L	.text                     .DWLopt7
00000031	L	.text                     .DWLopt8
0000003b	L	.text                     .DWLopt9
00000046	L	.text                     .DWLopt10
0000004c	L	.text                     .DWLopt11
00000050	L	.text                     .DWLopt12
00000054	L	.text                     .DWLopt13
00000059	L	.text                     .DWLopt14
00000061	L	.text                     .DWLopt15
00000069	L	.text                     .DWLopt16
00000071	L	.text                     .DWLopt17
0000007d	G	.text                     _0SCI1comm_reset
00000078	L	.text                     .DWLopt18
0000007b	L	.text                     .LDW27
00000038	L	.debug_frame              .LDW64
00000028	L	.debug_frame              .LDW63
0000007b	G	.text                     _SCI1comm_reset
0000007d	L	.text                     .DWLopt25
00000083	L	.text                     .DWLopt26
00000084	L	.text                     .DWLopt27
0000008e	L	.text                     .DWLopt28
0000008f	L	.text                     .DWLopt21
00000002	G	.bss                      _gus_SCI1tx_delay_timer
00000095	L	.text                     .DWLopt29
0000000a	G	.bss                      _gus_SCI1tx_cnt
0000009b	L	.text                     .DWLopt30
0000000c	G	.bss                      _gus_SCI1rx_cnt
000000a1	L	.text                     .DWLopt31
00000020	G	.bss                      _guc_SCI1rx_buffer
000000a7	L	.text                     .DWLopt32
000000a8	L	.text                     .DWLopt33
000000ac	L	.text                     .DWLopt22
000000ac	L	.text                     .DWLopt34
000000ae	L	.text                     .DWLopt35
000000b2	L	.text                     .DWLopt36
000000b3	L	.text                     .DWLopt23
000000b3	L	.text                     .DWLopt37
000000b4	L	.text                     .DWLopt38
0000000f	G	.bss                      _guc_SCI1tx_buffer
000000ba	L	.text                     .DWLopt39
000000bb	L	.text                     .DWLopt40
000000be	L	.text                     .DWLopt24
000000be	L	.text                     .DWLopt41
000000c0	L	.text                     .DWLopt42
000000c4	L	.text                     .DWLopt43
000000d4	L	.text                     .DWLopt44
00000028	G	.bss                      _gus_lcd_setfreq
000000db	L	.text                     .DWLopt45
00000000	G	.bss                      _gus_SCI1rx_delay_timer
000000e3	L	.text                     .DWLopt46
000000e6	L	.text                     .LDW28
00000000	L	.debug_MN_rsc             .LDW65
0000004e	L	.debug_frame              .LDW91
0000003c	L	.debug_frame              .LDW90
000000e6	G	.text                     _SCI1rx_on_dealtime
000000e6	G	.text                     _0SCI1rx_on_dealtime
000000e6	L	.text                     .DWLopt47
00000143	L	.text                     L00017
000000f7	L	.text                     .DWLopt48
00000105	L	.text                     .DWLopt49
0000010f	L	.text                     .DWLopt50
0000011f	L	.text                     .DWLopt51
00000126	L	.text                     .DWLopt52
0000012d	L	.text                     .DWLopt53
00000136	L	.text                     .DWLopt54
0000013a	L	.text                     .DWLopt55
00000143	L	.text                     .DWLopt56
00000146	L	.text                     .LDW29
00000062	L	.debug_frame              .LDW103
00000052	L	.debug_frame              .LDW102
00000146	G	.text                     _SCI1_rx_int
00000148	G	.text                     _0SCI1_rx_int
00000148	L	.text                     .DWLopt58
0000000e	G	.bss                      _guc_SCI1rx_byte
00000151	L	.text                     .DWLopt59
00000008	G	.bss                      _gus_SCI1rx_end_timer
00000158	L	.text                     .DWLopt60
0000019e	L	.text                     L00024
00000179	L	.text                     .DWLopt61
00000187	L	.text                     .DWLopt62
00000193	L	.text                     .DWLopt63
0000019b	L	.text                     .DWLopt64
0000019e	L	.text                     .DWLopt65
000001b0	L	.text                     Lcb0005
000001ad	L	.text                     .DWLopt66
000001b0	L	.text                     .DWLopt67
000001d6	L	.text                     L00030
000001bf	L	.text                     .DWLopt68
000001d1	L	.text                     .DWLopt69
00000201	L	.text                     Lopt000003
000001d6	L	.text                     .DWLopt70
0000020f	L	.text                     L00032
000001f5	L	.text                     .DWLopt71
00000201	L	.text                     .DWLopt72
00000201	L	.text                     .DWLopt73
00000203	L	.text                     .DWLopt74
00000203	L	.text                     .DWLopt75
0000020a	L	.text                     .DWLopt76
00000238	L	.text                     L00028
0000020f	L	.text                     .DWLopt77
0000021d	L	.text                     .DWLopt78
00000224	L	.text                     .DWLopt79
0000022a	L	.text                     .DWLopt80
00000238	L	.text                     .DWLopt81
0000023b	L	.text                     .LDW30
00000078	L	.debug_frame              .LDW123
00000066	L	.debug_frame              .LDW122
0000023b	G	.text                     _SCI1rx_end_delaytimer
0000023b	G	.text                     _0SCI1rx_end_delaytimer
0000023b	L	.text                     .DWLopt82
0000028e	L	.text                     L00035
0000024c	L	.text                     .DWLopt83
00000259	L	.text                     .DWLopt84
00000263	L	.text                     .DWLopt85
0000026a	L	.text                     .DWLopt86
00000270	L	.text                     .DWLopt87
0000027a	L	.text                     .DWLopt88
00000281	L	.text                     .DWLopt89
00000285	L	.text                     .DWLopt90
0000028e	L	.text                     .DWLopt91
00000291	L	.text                     .LDW31
0000008c	L	.debug_frame              .LDW135
0000007c	L	.debug_frame              .LDW134
00000291	G	.text                     _SCI1comm_abend_dealtime
00000294	G	.text                     _0SCI1comm_abend_dealtime
00000294	L	.text                     .DWLopt92
00000004	G	.bss                      _gus_SCI1comm_abend_timer
000002a1	L	.text                     .DWLopt93
000002b7	L	.text                     L00042
000002ab	L	.text                     .DWLopt94
000002b2	L	.text                     .DWLopt95
000002b7	L	.text                     .DWLopt96
000002ba	L	.text                     .LDW32
000000a0	L	.debug_frame              .LDW142
00000090	L	.debug_frame              .LDW141
000002ba	G	.text                     _SCI1rx_ctrl_abend_dealtime
000002bd	G	.text                     _0SCI1rx_ctrl_abend_dealtime
000002bd	L	.text                     .DWLopt97
00000006	G	.bss                      _gus_SCI1rx_ctrl_abend_timer
000002ca	L	.text                     .DWLopt98
000002e0	L	.text                     L00046
000002d4	L	.text                     .DWLopt99
000002db	L	.text                     .DWLopt100
000002e0	L	.text                     .DWLopt101
000002e3	L	.text                     .LDW33
000000b4	L	.debug_frame              .LDW149
000000a4	L	.debug_frame              .LDW148
000002e3	G	.text                     _SCI1rx_data_deal
000002e8	G	.text                     _0SCI1rx_data_deal
000002e8	L	.text                     .DWLopt110
000002fc	L	.text                     Lcb000d
000002f9	L	.text                     .DWLopt111
000002fc	L	.text                     .LDW35
000002fc	L	.text                     .DWLopt112
00000306	L	.text                     .DWLopt113
0000031e	L	.text                     Lcb000e
0000031b	L	.text                     .DWLopt114
0000031e	L	.text                     .LDW37
0000031e	L	.text                     .DWLopt115
00000324	L	.text                     .DWLopt116
00000325	L	.text                     .DWLopt108
00000325	L	.text                     .DWLopt117
00000327	L	.text                     .DWLopt106
00000327	L	.text                     .DWLopt118
00000328	L	.text                     .DWLopt104
00000328	L	.text                     .DWLopt119
0000033e	L	.text                     L00057
00000333	L	.text                     .DWLopt120
00000334	L	.text                     .DWLopt121
00000337	L	.text                     .DWLopt105
00000339	L	.text                     .DWLopt122
0000033b	L	.text                     .DWLopt123
0000033e	L	.text                     .DWLopt124
00000340	L	.text                     .DWLopt107
00000340	L	.text                     .DWLopt102
00000340	L	.text                     .DWLopt125
00000344	L	.text                     .DWLopt109
00000344	L	.text                     .DWLopt103
0000034e	L	.text                     Lcb0010
0000034b	L	.text                     .DWLopt126
0000034e	L	.text                     .DWLopt127
00000355	L	.text                     .DWLopt128
0000038c	L	.text                     L00063
00000398	L	.text                     L00065
000003a4	L	.text                     L00067
000003b0	L	.text                     L00069
000003b7	L	.text                     L00061
0000038c	L	.text                     .DWLopt129
000003d4	G	.text                     _0SCI1_handshake_info_deal
00000393	L	.text                     .DWLopt130
00000398	L	.text                     .DWLopt131
00000421	G	.text                     _0SCI1_wrcmd_info_deal
0000039f	L	.text                     .DWLopt132
000003a4	L	.text                     .DWLopt133
000006d6	G	.text                     _0SCI1_rdcmd_info_deal
000003ab	L	.text                     .DWLopt134
000003b0	L	.text                     .DWLopt135
0000084a	G	.text                     _0SCI1_ctrl_info_deal
000003b7	L	.text                     .DWLopt136
000003c7	L	.text                     .DWLopt137
000003cf	L	.text                     .LDW38
000003cf	L	.text                     .LDW36
000003cf	L	.text                     .DWLopt138
000003d2	L	.text                     .LDW34
0000001d	L	.debug_MN_rsc             .LDW150
0000002e	L	.debug_MN_rsc             .LDW153
0000003f	L	.debug_MN_rsc             .LDW156
00000050	L	.debug_MN_rsc             .LDW159
000000cc	L	.debug_frame              .LDW188
000000b8	L	.debug_frame              .LDW187
000003d2	G	.text                     _SCI1_handshake_info_deal
000003d4	L	.text                     .DWLopt143
000003d5	L	.text                     .DWLopt141
000003d5	L	.text                     .DWLopt144
000003e4	L	.text                     .DWLopt145
000003ed	L	.text                     .DWLopt146
000003f5	L	.text                     .DWLopt147
000003fd	L	.text                     .DWLopt148
000003fe	L	.text                     .DWLopt139
00000404	L	.text                     .DWLopt149
00000405	L	.text                     .DWLopt150
00000406	L	.text                     .DWLopt151
00000409	L	.text                     .DWLopt140
0000040b	L	.text                     .DWLopt152
0000040d	L	.text                     .DWLopt153
00000411	L	.text                     .DWLopt154
00000419	L	.text                     .DWLopt142
00000419	L	.text                     .DWLopt155
0000041c	L	.text                     .LDW39
00000061	L	.debug_MN_rsc             .LDW189
00000072	L	.debug_MN_rsc             .LDW192
000000e2	L	.debug_frame              .LDW209
000000d0	L	.debug_frame              .LDW208
0000041c	G	.text                     _SCI1_wrcmd_info_deal
00000421	L	.text                     .DWLopt163
00000427	L	.text                     .DWLopt164
00000428	L	.text                     .DWLopt161
00000428	L	.text                     .DWLopt165
0000042b	L	.text                     .DWLopt166
00000431	L	.text                     .DWLopt167
00000437	L	.text                     .DWLopt168
0000043a	L	.text                     .DWLopt169
00000443	L	.text                     .DWLopt170
0000044c	L	.text                     .DWLopt171
000004ab	L	.text                     L00083
00000462	L	.text                     .DWLopt172
00000477	L	.text                     Lcb0017
00000674	L	.text                     L00088
0000049c	L	.text                     L00222
0000049c	L	.text                     Lcb0019
0000049c	L	.text                     .DWLopt173
000004a2	L	.text                     .DWLopt174
000004a6	L	.text                     .DWLopt175
000004ab	L	.text                     .DWLopt176
000004bc	L	.text                     Lcb001a
000004bc	L	.text                     .DWLopt177
000004c8	L	.text                     .DWLopt178
000004e0	L	.text                     L00093
000004d8	L	.text                     .DWLopt179
000004f3	L	.text                     Lopt000006
000004e0	L	.text                     .DWLopt180
000004f6	L	.text                     L00094
000004f0	L	.text                     .DWLopt181
000004f3	L	.text                     .DWLopt182
000004f3	L	.text                     .DWLopt183
000004f6	L	.text                     .DWLopt184
0000050b	L	.text                     Lcb001d
00000664	L	.text                     L00096
0000051a	L	.text                     Lcb001e
0000051a	L	.text                     .DWLopt185
0000056e	L	.text                     L00097
00000531	L	.text                     .DWLopt186
0000053b	L	.text                     .DWLopt187
0000054a	L	.text                     .DWLopt188
00000559	L	.text                     .DWLopt189
00000569	L	.text                     L00099
00000564	L	.text                     .DWLopt190
00000627	L	.text                     L00231
00000569	L	.text                     .DWLopt191
00000645	L	.text                     L00113
0000056e	L	.text                     .DWLopt192
000005aa	L	.text                     L00104
00000586	L	.text                     .DWLopt193
0000058d	L	.text                     .DWLopt194
0000059c	L	.text                     .DWLopt195
000005a5	L	.text                     .DWLopt196
0000064f	L	.text                     Lopt000004
000005aa	L	.text                     .DWLopt197
000005c7	L	.text                     Lcb0024
000005c7	L	.text                     .DWLopt198
000005d1	L	.text                     .DWLopt199
000005d4	L	.text                     .DWLopt200
000005db	L	.text                     .DWLopt201
000005e5	L	.text                     .DWLopt202
000005e6	L	.text                     .DWLopt203
000005e8	L	.text                     .DWLopt204
000005f3	L	.text                     .DWLopt205
00000602	L	.text                     .DWLopt206
00000611	L	.text                     .DWLopt207
00000627	L	.text                     .DWLopt208
00000627	L	.text                     .DWLopt209
00000636	L	.text                     .DWLopt210
00000636	L	.text                     .DWLopt211
0000063e	L	.text                     .DWLopt212
0000063e	L	.text                     .DWLopt213
00000640	L	.text                     .DWLopt214
0000065e	L	.text                     Lopt000005
00000645	L	.text                     .DWLopt215
00000645	L	.text                     .DWLopt216
0000064f	L	.text                     .DWLopt217
0000064f	L	.text                     .DWLopt218
0000064f	L	.text                     .DWLopt219
00000655	L	.text                     .DWLopt220
00000655	L	.text                     .DWLopt221
00000655	L	.text                     .DWLopt222
0000065d	L	.text                     .DWLopt223
0000065d	L	.text                     .DWLopt224
0000065d	L	.text                     .DWLopt225
0000065e	L	.text                     .DWLopt226
0000065e	L	.text                     .DWLopt227
0000065e	L	.text                     .DWLopt228
0000065e	L	.text                     .DWLopt229
0000065e	L	.text                     .DWLopt230
00000664	L	.text                     .DWLopt231
00000674	L	.text                     .DWLopt232
00000677	L	.text                     .DWLopt233
0000067d	L	.text                     .DWLopt234
00000683	L	.text                     .DWLopt235
00000686	L	.text                     .DWLopt236
00000687	L	.text                     .DWLopt237
0000068d	L	.text                     .DWLopt238
00000696	L	.text                     .DWLopt239
0000069f	L	.text                     .DWLopt240
000006a8	L	.text                     .DWLopt241
000006b1	L	.text                     .DWLopt242
000006b9	L	.text                     .DWLopt243
000006ba	L	.text                     .DWLopt159
000006ba	L	.text                     .DWLopt244
000006bb	L	.text                     .DWLopt245
000006be	L	.text                     .DWLopt160
000006c0	L	.text                     .DWLopt246
000006c2	L	.text                     .DWLopt247
000006c6	L	.text                     .DWLopt248
000006ce	L	.text                     .DWLopt162
000006ce	L	.text                     .DWLopt249
000006d1	L	.text                     .LDW40
00000083	L	.debug_MN_rsc             .LDW210
00000094	L	.debug_MN_rsc             .LDW213
000000fa	L	.debug_frame              .LDW284
000000e6	L	.debug_frame              .LDW283
000006d1	G	.text                     _SCI1_rdcmd_info_deal
000006d6	L	.text                     .DWLopt255
000006dc	L	.text                     .DWLopt256
000006dd	L	.text                     .DWLopt253
000006dd	L	.text                     .DWLopt257
000006e0	L	.text                     .DWLopt258
000006e9	L	.text                     .DWLopt259
000006fb	L	.text                     Lcb0027
000007cd	L	.text                     L00123
000006fb	L	.text                     .DWLopt260
00000708	L	.text                     .DWLopt261
0000070e	L	.text                     .DWLopt262
00000711	L	.text                     .DWLopt263
0000071a	L	.text                     .DWLopt264
00000723	L	.text                     .DWLopt265
0000072b	L	.text                     .DWLopt266
00000734	L	.text                     .DWLopt267
0000073d	L	.text                     .DWLopt268
00000746	L	.text                     .DWLopt269
0000074f	L	.text                     .DWLopt270
00000772	L	.text                     L00127
0000075b	L	.text                     .DWLopt271
00000764	L	.text                     .DWLopt272
0000077e	L	.text                     L00129
00000772	L	.text                     .DWLopt273
0000077e	L	.text                     .DWLopt274
00000781	L	.text                     .DWLopt275
00000787	L	.text                     .DWLopt276
0000078d	L	.text                     .DWLopt277
00000796	L	.text                     .DWLopt278
0000079f	L	.text                     .DWLopt279
000007a8	L	.text                     .DWLopt280
000007bc	L	.text                     .DWLopt281
00000826	L	.text                     Lopt000007
000007cd	L	.text                     .DWLopt282
000007dc	L	.text                     .DWLopt283
000007e5	L	.text                     .DWLopt284
000007ed	L	.text                     .DWLopt285
000007f6	L	.text                     .DWLopt286
000007fc	L	.text                     .DWLopt287
00000802	L	.text                     .DWLopt288
00000808	L	.text                     .DWLopt289
0000080e	L	.text                     .DWLopt290
00000814	L	.text                     .DWLopt291
0000081a	L	.text                     .DWLopt292
00000820	L	.text                     .DWLopt293
00000826	L	.text                     .DWLopt294
00000826	L	.text                     .DWLopt295
0000082c	L	.text                     .DWLopt296
0000082d	L	.text                     .DWLopt251
0000082d	L	.text                     .DWLopt297
0000082e	L	.text                     .DWLopt298
0000082f	L	.text                     .DWLopt299
00000832	L	.text                     .DWLopt252
00000834	L	.text                     .DWLopt300
00000836	L	.text                     .DWLopt301
0000083a	L	.text                     .DWLopt302
00000842	L	.text                     .DWLopt254
00000842	L	.text                     .DWLopt303
00000845	L	.text                     .LDW41
000000a5	L	.debug_MN_rsc             .LDW285
000000b6	L	.debug_MN_rsc             .LDW288
00000112	L	.debug_frame              .LDW335
000000fe	L	.debug_frame              .LDW334
00000845	G	.text                     _SCI1_ctrl_info_deal
0000084a	L	.text                     .DWLopt308
00000851	L	.text                     .DWLopt309
00000857	L	.text                     .DWLopt310
00000858	L	.text                     .DWLopt306
00000858	L	.text                     .DWLopt311
0000085b	L	.text                     .DWLopt312
00000864	L	.text                     .DWLopt313
0000086d	L	.text                     .DWLopt314
00000887	L	.text                     L00143
00000881	L	.text                     .DWLopt315
00000887	L	.text                     .DWLopt316
000008e2	L	.text                     L00145
000008a5	L	.text                     .DWLopt317
000008b5	L	.text                     .DWLopt318
000008c2	L	.text                     .DWLopt319
000008cc	L	.text                     .DWLopt320
000008db	L	.text                     .DWLopt321
000008e2	L	.text                     .DWLopt322
000008eb	L	.text                     .DWLopt323
000008f4	L	.text                     .DWLopt324
000008fc	L	.text                     .DWLopt325
00000902	L	.text                     .DWLopt326
00000908	L	.text                     .DWLopt327
0000090b	L	.text                     .DWLopt328
00000914	L	.text                     .DWLopt329
0000091d	L	.text                     .DWLopt330
00000926	L	.text                     .DWLopt331
0000092f	L	.text                     .DWLopt332
00000938	L	.text                     .DWLopt333
00000941	L	.text                     .DWLopt334
0000094a	L	.text                     .DWLopt335
00000953	L	.text                     .DWLopt336
0000095c	L	.text                     .DWLopt337
00000965	L	.text                     .DWLopt338
0000096e	L	.text                     .DWLopt339
00000977	L	.text                     .DWLopt340
00000980	L	.text                     .DWLopt341
00000989	L	.text                     .DWLopt342
000009a3	L	.text                     L00157
00000998	L	.text                     .DWLopt343
000009a3	L	.text                     .DWLopt344
000009ac	L	.text                     .DWLopt345
000009e4	L	.text                     L00160
000009bc	L	.text                     .DWLopt346
000009c8	L	.text                     .DWLopt347
000009f0	L	.text                     L00163
000009d8	L	.text                     .DWLopt348
000009df	L	.text                     .DWLopt349
000009e4	L	.text                     .DWLopt350
000009f0	L	.text                     .DWLopt351
000009f6	L	.text                     .DWLopt352
000009f7	L	.text                     .DWLopt353
000009fd	L	.text                     .DWLopt354
000009fe	L	.text                     .DWLopt304
000009fe	L	.text                     .DWLopt355
000009ff	L	.text                     .DWLopt356
00000a02	L	.text                     .DWLopt305
00000a04	L	.text                     .DWLopt357
00000a06	L	.text                     .DWLopt358
00000a0a	L	.text                     .DWLopt359
00000a12	L	.text                     .DWLopt307
00000a12	L	.text                     .DWLopt360
00000a15	L	.text                     .LDW42
000000c7	L	.debug_MN_rsc             .LDW336
000000d8	L	.debug_MN_rsc             .LDW339
00000128	L	.debug_frame              .LDW392
00000116	L	.debug_frame              .LDW391
00000a15	G	.text                     _SCI1tx_on_dealtime
00000a15	G	.text                     _0SCI1tx_on_dealtime
00000a15	L	.text                     .DWLopt361
00000a29	L	.text                     Lcb0031
00000a26	L	.text                     .DWLopt362
00000a29	L	.text                     .DWLopt363
00000a37	L	.text                     Lcb0032
00000a34	L	.text                     .DWLopt364
00000a37	L	.text                     .DWLopt365
00000a45	L	.text                     .DWLopt366
00000ab0	L	.text                     L00170
00000a4f	L	.text                     .DWLopt367
00000a5f	L	.text                     .DWLopt368
00000a66	L	.text                     .DWLopt369
00000a76	L	.text                     .DWLopt370
00000a7d	L	.text                     .DWLopt371
00000a84	L	.text                     .DWLopt372
00000a8d	L	.text                     .DWLopt373
00000a91	L	.text                     .DWLopt374
00000a9a	L	.text                     .DWLopt375
00000aa7	L	.text                     .DWLopt376
00000ab0	L	.text                     .DWLopt377
00000ab3	L	.text                     .LDW43
0000013c	L	.debug_frame              .LDW409
0000012c	L	.debug_frame              .LDW408
00000ab3	G	.text                     _SCI1_tx_int
00000ab3	G	.text                     _0SCI1_tx_int
00000ab3	L	.text                     .DWLopt378
00000aba	L	.text                     .DWLopt379
00000b3d	L	.text                     L00179
00000acb	L	.text                     .DWLopt380
00000b04	L	.text                     L00181
00000ae7	L	.text                     .DWLopt381
00000af2	L	.text                     .DWLopt382
00000b04	L	.text                     .DWLopt383
00000b14	L	.text                     .DWLopt384
00000b1b	L	.text                     .DWLopt385
00000b25	L	.text                     .DWLopt386
00000b35	L	.text                     .DWLopt387
00000b3d	L	.text                     .DWLopt388
00000b40	L	.text                     .LDW44
00000150	L	.debug_frame              .LDW422
00000140	L	.debug_frame              .LDW421
0000002a	G	.bss                      _gus_tmppin
00000b40	L	.text                     .LPC_END
00000000	L	.debug_abbrev             .LAB_TOP
00000000	L	.debug_info               .LI_TOP
00000a1f	L	.debug_info               .LI_E
00000004	L	.debug_info               .LI_B
00000000	L	.debug_line               .LLN_TOP
0000009d	L	.debug_info               .LDW10
000000a8	L	.debug_info               .LDW9
000000b2	L	.debug_info               .LDW8
000000c0	L	.debug_info               .LDW7
000000c9	L	.debug_info               .LDW6
000000d3	L	.debug_info               .LDW5
000000dc	L	.debug_info               .LDW26
000000e6	L	.debug_info               .LDW25
000000f0	L	.debug_info               .LDW4
000000fe	L	.debug_info               .LDW3
00000107	L	.debug_info               .LDW2
00000111	L	.debug_info               .LDW1
000001ae	L	.debug_info               .LDW11
000001ca	L	.debug_info               .LDW12
000001e6	L	.debug_info               .LDW13
00000236	L	.debug_info               .LDW14
00000252	L	.debug_info               .LDW15
00000281	L	.debug_info               .LDW16
0000029d	L	.debug_info               .LDW17
000002cc	L	.debug_info               .LDW18
00000332	L	.debug_info               .LDW19
0000034e	L	.debug_info               .LDW20
0000036a	L	.debug_info               .LDW21
000003b2	L	.debug_info               .LDW22
000004bb	L	.debug_info               .LDW23
000004e8	L	.debug_info               .LDW24
00000cbe	L	.debug_line               .LLN_E
00000004	L	.debug_line               .LLN_B
0000002f	L	.debug_line               .LLN_P_E
0000000a	L	.debug_line               .LLN_P_B
000000e8	L	.debug_aranges            .LAR_E
00000004	L	.debug_aranges            .LAR_B
