                                                OP0k.lst	Page 1
***   PanaX Series MN103S/MN103L Cross Assembler   ***
Loc       Object            Line        Source

                              1  		NOTATION	CLANG
                              2  		FILE	"PWM_CTRL.c"
                              3  		IDENT	"cc: MN103S Windows V5.4R1 PWM_CTRL.c"
                              4  		IDENT	"-O -fenable-asm -fchar-bfield -flong-bfield -fc9x-comment -mmulq -mdivs -fenable-longlong -ffile-sjis -ffile-ascii"
                              5  	;;BGNFILE code\PWM_CTRL.c
                              6  	.text			SECTION	"ax",PROGBITS,PUBLIC
                              7  	.rodata			SECTION	"a",PROGBITS,PUBLIC
                              8  		ALIGN	4
                              9  	.MN.data		SECTION	"aw",NOBITS,PUBLIC
                              10  		ALIGN	4
                              11  	.MN.romdata		SECTION	"a",PROGBITS,PUBLIC
                              12  		ALIGN	4
                              13  	.MN.romdataend		SECTION	"a",NOBITS,PUBLIC
                              14  		ALIGN	4
                              15  	.bss			SECTION	"aw",NOBITS,PUBLIC
                              16  		ALIGN	4
                              17  	.MN.bssend		SECTION	"aw",NOBITS,PUBLIC
                              18  		ALIGN	4
                              19  	.debug_info		SECTION	"n",PROGBITS,PUBLIC
                              20  	.debug_abbrev		SECTION	"n",PROGBITS,PUBLIC
                              21  	.debug_MN_rsc		SECTION	"n",PROGBITS,PUBLIC
                              22  	.debug_line		SECTION	"n",PROGBITS,PUBLIC
                              23  	.debug_frame		SECTION	"n",PROGBITS,PUBLIC
                              24  	.debug_aranges		SECTION	"n",PROGBITS,PUBLIC
                              25  	.debug_frame		SECTION
                              26  	;; Common Information Entry(CIE)
00000000                      27  	.LFR_TOP
00000000  00000000          + 28  		DD	.LFR_C_E-.LFR_C_B	;; length
00000004                      29  	.LFR_C_B
00000004  FFFFFFFF            30  		DD	0xffffffff	;; CIE_id
00000008  01                  31  		DC	0x1	;; version
00000009  00                  32  		DC	0x0	;; augmentation
0000000a  01                  33  		DC	0x1	;; code_alignment_factor
0000000b  7C                  34  		DC	0x7c	;; data_alignment_factor
0000000c  0A                  35  		DC	0xa	;; return_address_register
                              36  		;; initial_instructions
0000000d  0C0900              37  		DC	0xc,0x9,0x0	;; DW_CFA_def_cfa(SP,0)
00000010  8A00                38  		DC	0x8a,0x0	;; DW_CFA_offset(RET,0)
00000012  0700                39  		DC	0x7,0x0	;; DW_CFA_undefined(D0)
00000014  0701                40  		DC	0x7,0x1	;; DW_CFA_undefined(D1)
00000016  0802                41  		DC	0x8,0x2	;; DW_CFA_same_value(D2)
00000018  0803                42  		DC	0x8,0x3	;; DW_CFA_same_value(D3)
0000001a  0704                43  		DC	0x7,0x4	;; DW_CFA_undefined(A0)
0000001c  0705                44  		DC	0x7,0x5	;; DW_CFA_undefined(A1)
0000001e  0806                45  		DC	0x8,0x6	;; DW_CFA_same_value(A2)
00000020  0807                46  		DC	0x8,0x7	;; DW_CFA_same_value(A3)
00000022  0809                47  		DC	0x8,0x9	;; DW_CFA_same_value(SP)
00000024                      48  	.LFR_C_E
                              49  	;; End of Common Information Entry
                              50  	.text		SECTION
00000000                      51  	.LPC_TOP
                              52  		GLOBAL	_flg_ctrl
                              53  		GLOBAL	_flg_theta
                              54  		GLOBAL	_ram_para
                              55  		GLOBAL	_get_Udc_ad
                              56  		GLOBAL	_0get_Udc_ad
                              57  		GLOBAL	_flg_ADC
                              58  		GLOBAL	_gus_Udc_ad
                              59  		GLOBAL	_gus_Udc_for_disp
                              60  		GLOBAL	_gus_Udc_tmp
                              61  		GLOBAL	_sin_table
                              62  		GLOBAL	_prot_ALM_deal
                              63  		GLOBAL	_0prot_ALM_deal
                              64  		GLOBAL	_gus_prot_Iout_stall_amp
                              65  		GLOBAL	_gus_prot_Udc_stall_amp
                              66  		GLOBAL	_gus_prot_Tm_stall_amp
                              67  		GLOBAL	_flg_Hall
                              68  		GLOBAL	_gus_Hall_freq
                              69  		GLOBAL	_gus_phase_adv_degree
                              70  	;;FUNC S _PWM_configure
                              71  	.text		SECTION
                              72  		GLOBAL	_PWM_configure
                              73  		GLOBAL	_0PWM_configure
00000000                      74  	_PWM_configure
                              75  	;;PROLOG 0x10
00000000  CFF0                76  		movm	[D2,D3,A2,A3],(SP)
                              77  	_0PWM_configure		FUNCINFO _PWM_configure,16,[D2,D3,A2,A3]
                              78  	;;LINE 150, 1, 1
00000002                      79  	.DWLopt8
00000002  FCAC00000000      @ 80  		movhu	(_ram_para+166),D0
00000008  FCCD400D0300        81  		mov	200000,D1
0000000e  18                  82  		exth	D0
0000000f  F621                83  		udf02	D0,D1
00000011  84                  84  		mov	D1,D0
00000012  28FF                85  		add	-1,D0
00000014  FC8300000000      @ 86  		movhu	D0,(_gus_peak_pwm)
                              87  	;;LINE 151, 1, 1
0000001a                      88  	.DWLopt9
0000001a  FCAE00000000      @ 89  		movhu	(_gus_peak_pwm),D2
                              90  	;;LINE 160, 1, 1
00000020                      91  	.DWLopt10
00000020  FCAD00000000      @ 92  		movhu	(_ram_para+170),D1
00000026  FCAC00000000      @ 93  		movhu	(_ram_para+168),D0
                              94  	;;LINE 168, 1, 1
0000002c                      95  	.DWLopt11
0000002c  FCAF00000000      @ 96  		movhu	(_ram_para+166),D3
                              97  	;;LINE 160, 0, 1
00000032                      98  	.DWLopt12
00000032  E1                  99  		add	D0,D1
                              100  	;;LINE 151, 0, 1
00000033                      101  	.DWLopt13
00000033  88                  102  		mov	D2,D0
00000034  F8C801              103  		asr	1,D0
00000037  FC8300000000      @ 104  		movhu	D0,(_gus_half_pwm)
                              105  	;;LINE 152, 1, 1
0000003d                      106  	.DWLopt14
0000003d  1C                  107  		exthu	D0
0000003e  F92064              108  		udf02	100,D0
00000041  40                  109  		inc	D0
00000042  FC8300000000      @ 110  		movhu	D0,(_gus_centi_half_pwm)
                              111  	;;LINE 160, 0, 1
00000048                      112  	.DWLopt15
00000048  84                  113  		mov	D1,D0
00000049  E4                  114  		add	D1,D0
0000004a  28FF                115  		add	-1,D0
0000004c  FC8300000000      @ 116  		movhu	D0,(_gss_min_pwm)
                              117  	;;LINE 161, 1, 1
00000052                      118  	.DWLopt16
00000052  89                  119  		mov	D2,D1
00000053  F101                120  		sub	D0,D1
                              121  	;;LINE 167, 1, 1
00000055                      122  	.DWLopt17
00000055  FCAC00000000      @ 123  		movhu	(_ram_para+168),D0
                              124  	;;LINE 161, 0, 1
0000005b                      125  	.DWLopt18
0000005b  FC8700000000      @ 126  		movhu	D1,(_gss_max_pwm)
                              127  	;;LINE 167, 0, 1
00000061                      128  	.DWLopt19
00000061  18                  129  		exth	D0
00000062  FCAD00000000      @ 130  		movhu	(_ram_para+170),D1
                              131  	;;LINE 168, 0, 1
00000068                      132  	.DWLopt20
00000068  1B                  133  		exth	D3
                              134  	;;LINE 167, 0, 1
00000069                      135  	.DWLopt21
00000069  19                  136  		exth	D1
                              137  	;;LINE 170, 1, 1
0000006a                      138  	.DWLopt22
0000006a  E1                  139  		add	D0,D1
                              140  	;;LINE 172, 1, 1
0000006b                      141  	.DWLopt23
0000006b  FCAC00000000      @ 142  		movhu	(_ram_para+164),D0
                              143  	;;LINE 170, 0, 1
00000071                      144  	.DWLopt24
00000071  F61D                145  		udf01	D3,D1
00000073  F8C107              146  		asl	7,D1
00000076  FB35350C            147  		udfu03	3125,D1
0000007a                      148  	.DWLopt2
                              149  	;;LINE 171, 1, 1
0000007a                      150  	.DWLopt25
0000007a  87                  151  		mov	D1,D3
0000007b  E7                  152  		add	D1,D3
0000007c  FC8F00000000      @ 153  		movhu	D3,(_gus_min_percent)
                              154  	;;LINE 172, 0, 1
00000082                      155  	.DWLopt26
00000082  A000                156  		cmp	0,D0
00000084  C807DC00000000    @ 157  		bne	L00009
                              158  	;;LINE 174, 1, 1
0000008b                      159  	.DWLopt27
0000008b  2C0010              160  		mov	4096,D0
0000008e  F1E0                161  		mov	D0,A0
00000090  F124                162  		sub	D1,A0
00000092                      163  	.DWLopt3
00000092  F1D1                164  		mov	A0,D1
00000094  FC8700000000      @ 165  		movhu	D1,(_gus_max_percent)
                              166  	;;LINE 175, 1, 1
0000009a                      167  	.DWLopt28
0000009a  F10C                168  		sub	D3,D0
0000009c  DC00000000        @ 169  		bra	Lopt000001
000000a1                      170  	L00009
                              171  	;;LINE 177, 1, 1
000000a1                      172  	.DWLopt29
000000a1  A001                173  		cmp	1,D0
000000a3  C807DC00000000    @ 174  		bne	L00012
                              175  	;;LINE 179, 1, 1
000000aa                      176  	.DWLopt30
000000aa  2C0010              177  		mov	4096,D0
000000ad  FC8300000000      @ 178  		movhu	D0,(_gus_max_percent)
000000b3                      179  	Lopt000001
                              180  	;;LINE 180, 1, 1
000000b3                      181  	.DWLopt31
                              182  	;;LINE 175, 0, 1
000000b3                      183  	.DWLopt32
000000b3  FC8300000000      @ 184  		movhu	D0,(_gus_max_percent_gu)
000000b9                      185  	L00012
                              186  	;;LINE 187, 1, 1
000000b9                      187  	.DWLopt33
000000b9  FCAC00000000      @ 188  		movhu	(_ram_para+178),D0
000000bf  18                  189  		exth	D0
000000c0  FCCD00000010        190  		mov	268435456,D1
000000c6  F621                191  		udf02	D0,D1
000000c8  FC8500000000      @ 192  		mov	D1,(_gul_percent_pwm_unit)
                              193  	;;LINE 193, 1, 1
000000ce                      194  	.DWLopt34
000000ce  FCAC00000000      @ 195  		movhu	(_ram_para+170),D0
000000d4  E0                  196  		add	D0,D0
000000d5  FC8300000000      @ 197  		movhu	D0,(_gus_Td)
                              198  	;;LINE 197, 1, 1
000000db                      199  	.DWLopt35
000000db  48                  200  		inc	D2
000000dc  FC8B00000000      @ 201  		movhu	D2,(_gus_val_a)
                              202  	;;LINE 198, 1, 1
000000e2                      203  	.DWLopt36
000000e2  FC8B00000000      @ 204  		movhu	D2,(_gus_val_b)
                              205  	;;LINE 199, 1, 1
000000e8                      206  	.DWLopt37
000000e8  FC8B00000000      @ 207  		movhu	D2,(_gus_val_c)
                              208  	;;LINE 202, 1, 1
000000ee                      209  	.DWLopt38
000000ee  FCAC00000000      @ 210  		movhu	(_gus_half_pwm),D0
000000f4  FC8300000000      @ 211  		movhu	D0,(_gus_max_comp_val)
                              212  	;;LINE 203, 1, 1
000000fa                      213  	.DWLopt39
000000fa  FC8300000000      @ 214  		movhu	D0,(_gus_mid_comp_val)
                              215  	;;LINE 204, 1, 1
00000100                      216  	.DWLopt40
00000100  FC8300000000      @ 217  		movhu	D0,(_gus_min_comp_val)
                              218  	;;LINE 210, 1, 1
00000106                      219  	.DWLopt41
00000106  FCAC00000000      @ 220  		movhu	(_ram_para+166),D0
0000010c  18                  221  		exth	D0
                              222  	;;LINE 211, 1, 1
0000010d                      223  	.DWLopt42
0000010d  2D285C              224  		mov	23592,D1
00000110  F631                225  		udf03	D0,D1
00000112  FC8700000000      @ 226  		movhu	D1,(_gus_rate_per)
                              227  	;;LINE 214, 1, 1
00000118                      228  	.DWLopt43
00000118  00                  229  		clr	D0
00000119  FC8100000000      @ 230  		mov	D0,(_theta)
                              231  	;;LINE 215, 1, 1
0000011f                      232  	.DWLopt44
0000011f  FC8300000000      @ 233  		movhu	D0,(_gus_percent_k)
                              234  	;;LINE 216, 1, 1
00000125                      235  	.DWLopt45
00000125  FC8300000000      @ 236  		movhu	D0,(_gus_percent_pwm)
                              237  	;;LINE 218, 1, 1
0000012b                      238  	.DWLopt46
0000012b  FC8300000000      @ 239  		movhu	D0,(_gus_now_theta)
                              240  	;;LINE 219, 1, 1
00000131                      241  	.DWLopt47
00000131  FC8300000000      @ 242  		movhu	D0,(_gus_next_theta)
                              243  	;;LINE 223, 1, 1
00000137                      244  	.DWLopt48
00000137  FCAC00000000      @ 245  		movhu	(_ram_para+174),D0
                              246  	;;LINE 225, 1, 1
0000013d                      247  	.DWLopt49
0000013d  54                  248  		asl2	D0
0000013e                      249  	.DWLopt4
0000013e  FC8300000000      @ 250  		movhu	D0,(_gus_ADtrigger_repair_val)
00000144                      251  	.DWLopt5
                              252  	;;LINE 229, 1, 1
00000144                      253  	.DWLopt50
00000144  FCAC00000000      @ 254  		movhu	(_ram_para+176),D0
0000014a  18                  255  		exth	D0
0000014b                      256  	.DWLopt6
                              257  	;;LINE 231, 1, 1
0000014b                      258  	.DWLopt51
0000014b  F91406              259  		udfu01	6,D0
0000014e  FC8300000000      @ 260  		movhu	D0,(_gus_AD_SH_val)
00000154                      261  	.DWLopt7
                              262  	;;LINE 233, 1, 1
00000154                      263  	.DWLopt52
00000154  FCAC00000000      @ 264  		movhu	(_gus_half_pwm),D0
0000015a  FC8300000000      @ 265  		movhu	D0,(_gus_TUP_ADtrigger)
                              266  	;;LINE 234, 1, 1
00000160                      267  	.DWLopt53
00000160  FC8300000000      @ 268  		movhu	D0,(_gus_TDW_ADtrigger)
                              269  	;;LINE 237, 1, 1
00000166                      270  	.DWLopt54
00000166  038CA3              271  		movhu	D0,(41868)
                              272  	;;LINE 238, 1, 1
00000169                      273  	.DWLopt55
00000169  FCAC00000000      @ 274  		movhu	(_gus_peak_pwm),D0
0000016f  E0                  275  		add	D0,D0
00000170  FCAD00000000      @ 276  		movhu	(_gus_TDW_ADtrigger),D1
00000176  F104                277  		sub	D1,D0
00000178  0388A3              278  		movhu	D0,(41864)
                              279  	;;LINE 256, 1, 1
0000017b                      280  	.DWLopt56
0000017b  2C0030              281  		mov	12288,D0
0000017e  244089              282  		mov	35136,A0
00000181  F070                283  		movhu	D0,(A0)
                              284  	;;LINE 284, 1, 1
00000183                      285  	.DWLopt57
00000183  2500A5              286  		mov	42240,A1
00000186  00                  287  		clr	D0
00000187  F071                288  		movhu	D0,(A1)
                              289  	;;LINE 286, 1, 1
00000189                      290  	.DWLopt58
00000189  3800A5              291  		movhu	(42240),D0
0000018c  FAE40010            292  		or	4096,D0
00000190  F071                293  		movhu	D0,(A1)
                              294  	;;LINE 287, 1, 1
00000192                      295  	.DWLopt59
00000192  3800A5              296  		movhu	(42240),D0
00000195  FAE40008            297  		or	2048,D0
00000199  F071                298  		movhu	D0,(A1)
                              299  	;;LINE 288, 1, 1
0000019b                      300  	.DWLopt60
0000019b  3800A5              301  		movhu	(42240),D0
0000019e  2E0001              302  		mov	256,D2
000001a1  F218                303  		or	D2,D0
000001a3  F071                304  		movhu	D0,(A1)
                              305  	;;LINE 289, 1, 1
000001a5                      306  	.DWLopt61
000001a5  3800A5              307  		movhu	(42240),D0
000001a8  F8E480              308  		or	128,D0
000001ab  F071                309  		movhu	D0,(A1)
                              310  	;;LINE 290, 1, 1
000001ad                      311  	.DWLopt62
000001ad  3800A5              312  		movhu	(42240),D0
000001b0  F8E420              313  		or	32,D0
000001b3  F071                314  		movhu	D0,(A1)
                              315  	;;LINE 291, 1, 1
000001b5                      316  	.DWLopt63
000001b5  3800A5              317  		movhu	(42240),D0
000001b8  FAE0FBFF            318  		and	65531,D0
000001bc  F071                319  		movhu	D0,(A1)
                              320  	;;LINE 293, 1, 1
000001be                      321  	.DWLopt64
000001be  3800A5              322  		movhu	(42240),D0
000001c1  FAE0FCFF            323  		and	65532,D0
000001c5  F071                324  		movhu	D0,(A1)
                              325  	;;LINE 295, 1, 1
000001c7                      326  	.DWLopt65
000001c7  FCAC00000000      @ 327  		movhu	(_gus_Td),D0
000001cd  A000                328  		cmp	0,D0
000001cf  C907DC00000000    @ 329  		beq	L00032
                              330  	;;LINE 297, 1, 1
000001d6                      331  	.DWLopt66
000001d6  3800A5              332  		movhu	(42240),D0
000001d9  F8E408              333  		or	8,D0
000001dc  F071                334  		movhu	D0,(A1)
000001de  DC00000000        @ 335  		bra	L00033
000001e3                      336  	L00032
                              337  	;;LINE 301, 1, 1
000001e3                      338  	.DWLopt67
000001e3  3800A5              339  		movhu	(42240),D0
000001e6  FAE0F7FF            340  		and	65527,D0
000001ea  F071                341  		movhu	D0,(A1)
000001ec                      342  	L00033
                              343  	;;LINE 317, 1, 1
000001ec                      344  	.DWLopt68
000001ec  803F                345  		mov	63,D0
000001ee  0308A5              346  		movhu	D0,(42248)
                              347  	;;LINE 337, 1, 1
000001f1                      348  	.DWLopt69
000001f1  FCAC00000000      @ 349  		movhu	(_gus_peak_pwm),D0
000001f7  0310A5              350  		movhu	D0,(42256)
                              351  	;;LINE 340, 1, 1
000001fa                      352  	.DWLopt70
000001fa  FCAC00000000      @ 353  		movhu	(_gus_val_a),D0
00000200  0314A5              354  		movhu	D0,(42260)
                              355  	;;LINE 341, 1, 1
00000203                      356  	.DWLopt71
00000203  FCAC00000000      @ 357  		movhu	(_gus_val_b),D0
00000209  0318A5              358  		movhu	D0,(42264)
                              359  	;;LINE 342, 1, 1
0000020c                      360  	.DWLopt72
0000020c  FCAC00000000      @ 361  		movhu	(_gus_val_c),D0
00000212  031CA5              362  		movhu	D0,(42268)
                              363  	;;LINE 356, 1, 1
00000215                      364  	.DWLopt73
00000215  FCAC00000000      @ 365  		movhu	(_gus_Td),D0
0000021b  0320A5              366  		movhu	D0,(42272)
                              367  	;;LINE 372, 1, 1
0000021e                      368  	.DWLopt74
0000021e  FCAC00000000      @ 369  		movhu	(_gus_Td),D0
00000224  F218                370  		or	D2,D0
00000226  0322A5              371  		movhu	D0,(42274)
                              372  	;;LINE 396, 1, 1
00000229                      373  	.DWLopt75
00000229  266089              374  		mov	35168,A2
0000022c  00                  375  		clr	D0
0000022d  F072                376  		movhu	D0,(A2)
                              377  	;;LINE 413, 1, 1
0000022f                      378  	.DWLopt76
0000022f  032CA5              379  		movhu	D0,(42284)
                              380  	;;LINE 433, 1, 1
00000232                      381  	.DWLopt77
00000232  2734A5              382  		mov	42292,A3
00000235  F073                383  		movhu	D0,(A3)
                              384  	;;LINE 444, 1, 1
00000237                      385  	.DWLopt78
00000237  8001                386  		mov	1,D0
00000239  0336A5              387  		movhu	D0,(42294)
                              388  	;;LINE 467, 1, 1
0000023c                      389  	.DWLopt79
0000023c  00                  390  		clr	D0
0000023d  0338A5              391  		movhu	D0,(42296)
                              392  	;;LINE 495, 1, 1
00000240                      393  	.DWLopt80
00000240  3860A0              394  		movhu	(41056),D0
00000243  F8E480              395  		or	128,D0
00000246  0360A0              396  		movhu	D0,(41056)
                              397  	;;LINE 496, 1, 1
00000249                      398  	.DWLopt81
00000249  3880A0              399  		movhu	(41088),D0
0000024c  F8E408              400  		or	8,D0
0000024f  0380A0              401  		movhu	D0,(41088)
                              402  	;;LINE 499, 1, 1
00000252                      403  	.DWLopt82
00000252  24808A              404  		mov	35456,A0
00000255  38808A              405  		movhu	(35456),D0
00000258  FAE03FFF            406  		and	65343,D0
0000025c  F070                407  		movhu	D0,(A0)
                              408  	;;LINE 500, 1, 1
0000025e                      409  	.DWLopt83
0000025e  38808A              410  		movhu	(35456),D0
00000261  F8E440              411  		or	64,D0
00000264  F070                412  		movhu	D0,(A0)
                              413  	;;LINE 519, 1, 1
00000266                      414  	.DWLopt84
00000266  8001                415  		mov	1,D0
00000268  F052                416  		movbu	D0,(A2)
                              417  	;;LINE 537, 1, 1
0000026a                      418  	.DWLopt85
0000026a  00                  419  		clr	D0
0000026b  0344A5              420  		movhu	D0,(42308)
                              421  	;;LINE 540, 1, 1
0000026e                      422  	.DWLopt86
0000026e  0348A5              423  		movhu	D0,(42312)
                              424  	;;LINE 543, 1, 1
00000271                      425  	.DWLopt87
00000271  034CA5              426  		movhu	D0,(42316)
                              427  	;;LINE 546, 1, 1
00000274                      428  	.DWLopt88
00000274  8003                429  		mov	3,D0
00000276  244089              430  		mov	35136,A0
00000279  F050                431  		movbu	D0,(A0)
                              432  	;;LINE 547, 1, 1
0000027b                      433  	.DWLopt89
0000027b  384089              434  		movhu	(35136),D0
0000027e  F218                435  		or	D2,D0
00000280  F070                436  		movhu	D0,(A0)
                              437  	;;LINE 549, 1, 1
00000282                      438  	.DWLopt90
00000282  2CC00F              439  		mov	4032,D0
00000285  030CA5              440  		movhu	D0,(42252)
                              441  	;;LINE 550, 1, 1
00000288                      442  	.DWLopt91
00000288  3834A5              443  		movhu	(42292),D0
0000028b  F8E401              444  		or	1,D0
0000028e  F073                445  		movhu	D0,(A3)
                              446  	;;LINE 553, 1, 1
00000290                      447  	.DWLopt92
00000290  FE8038A03F          448  		bset	63,(41016)
                              449  	;;LINE 555, 1, 1
00000295                      450  	.DWLopt93
00000295  3800A5              451  		movhu	(42240),D0
00000298  F8E402              452  		or	2,D0
0000029b  F071                453  		movhu	D0,(A1)
                              454  	;;LINE 557, 1, 1
0000029d                      455  	.DWLopt94
0000029d  DEF010              456  		retf
000002a0                      457  	.LDW26
                              458  		FUNCTION	_0PWM_configure,.LDW26-_0PWM_configure
                              459  		FUNCTION	_PWM_configure,.LDW26-_PWM_configure
                              460  	.debug_MN_rsc		SECTION
                              461  	;; Resource Information
                              462  	;; resource_list  1
00000000                      463  	.LDW40
                              464  		;; loc_data  1
00000000  00000000          + 465  		DD	.DWLopt2	;; address
00000004  01                  466  		DC	0x1	;;   size of loc_exp
00000005  51                  467  		DC	0x51	;;   DW_OP_reg1
                              468  		;; loc_data  2
00000006  00000000          + 469  		DD	.DWLopt3	;; address
0000000a  01                  470  		DC	0x1	;;   size of loc_exp
0000000b  E1                  471  		DC	0xe1	;;   DW_OP_MN_void
                              472  		;; loc_data  3
0000000c  00000000          + 473  		DD	.DWLopt4	;; address
00000010  01                  474  		DC	0x1	;;   size of loc_exp
00000011  50                  475  		DC	0x50	;;   DW_OP_reg0
                              476  		;; loc_data  4
00000012  00000000          + 477  		DD	.DWLopt5	;; address
00000016  01                  478  		DC	0x1	;;   size of loc_exp
00000017  E1                  479  		DC	0xe1	;;   DW_OP_MN_void
                              480  		;; loc_data  5
00000018  00000000          + 481  		DD	.DWLopt6	;; address
0000001c  01                  482  		DC	0x1	;;   size of loc_exp
0000001d  50                  483  		DC	0x50	;;   DW_OP_reg0
                              484  		;; loc_data  6
0000001e  00000000          + 485  		DD	.DWLopt7	;; address
00000022  01                  486  		DC	0x1	;;   size of loc_exp
00000023  E1                  487  		DC	0xe1	;;   DW_OP_MN_void
                              488  		;; end
00000024  00000000            489  		DD	0x0
00000028  00                  490  		DC	0x0
                              491  	;; End of Resource Information
                              492  	.debug_frame		SECTION
                              493  	;; Frame Description Entry(FDE)
00000024  00000000          + 494  		DD	.LDW125-.LDW124	;; length
00000028                      495  	.LDW124
00000028  00000000          + 496  		DD	.LFR_TOP	;; CIE_pointer
0000002c  00000000          + 497  		DD	_PWM_configure	;; initial location
00000030  00000000          + 498  		DD	.LDW26-_PWM_configure	;; address_range
                              499  		;; Prologue
00000034  02                  500  		DC	0x2	;; DW_CFA_advance_loc1(_0PWM_configure-_PWM_configure)
00000035  00                + 501  		DC	_0PWM_configure-_PWM_configure
00000036  0E10                502  		DC	0xe,0x10	;; DW_CFA_def_cfa_offset(16)
00000038  8201                503  		DC	0x82,0x1	;; DW_CFA_offset(D2,1)
0000003a  8302                504  		DC	0x83,0x2	;; DW_CFA_offset(D3,2)
0000003c  8603                505  		DC	0x86,0x3	;; DW_CFA_offset(A2,3)
0000003e  8704                506  		DC	0x87,0x4	;; DW_CFA_offset(A3,4)
                              507  		;; Epilogue
00000040                      508  	.LDW125
                              509  	;; End of Frame Description Entry
                              510  	;;FUNC E _PWM_configure
                              511  	;;FUNC S _freq_rate_init
                              512  	.text		SECTION
                              513  		GLOBAL	_freq_rate_init
                              514  		GLOBAL	_0freq_rate_init
000002a0                      515  	_freq_rate_init
                              516  	;;PROLOG 0x4
000002a0  F8FEFC              517  		add	-4,SP
                              518  	_0freq_rate_init		FUNCINFO _freq_rate_init,4,[]
                              519  	;;LINE 567, 1, 1
000002a3                      520  	.DWLopt95
000002a3  FCCC00000032        521  		mov	838860800,D0
000002a9  4200                522  		mov	D0,(SP)
                              523  	;;LINE 569, 1, 1
000002ab                      524  	.DWLopt96
000002ab  FCAD00000000      @ 525  		movhu	(_ram_para+8),D1
000002b1  19                  526  		exth	D1
000002b2  F634                527  		udf03	D1,D0
                              528  	;;LINE 570, 1, 1
000002b4                      529  	.DWLopt97
000002b4  5900                530  		mov	(SP),D1
                              531  	;;LINE 569, 0, 1
000002b6                      532  	.DWLopt98
000002b6  FC8100000000      @ 533  		mov	D0,(_freq_rate)
                              534  	;;LINE 570, 0, 1
000002bc                      535  	.DWLopt99
000002bc  FCAC00000000      @ 536  		movhu	(_ram_para+10),D0
000002c2  18                  537  		exth	D0
000002c3  F631                538  		udf03	D0,D1
000002c5  FC8500000000      @ 539  		mov	D1,(_freq_rate+4)
                              540  	;;LINE 572, 1, 1
000002cb                      541  	.DWLopt100
000002cb  00                  542  		clr	D0
000002cc  FC8100000000      @ 543  		mov	D0,(_freq_rate+8)
                              544  	;;LINE 573, 1, 1
000002d2                      545  	.DWLopt101
000002d2  FC8100000000      @ 546  		mov	D0,(_freq_rate+12)
                              547  	;;LINE 575, 1, 1
000002d8                      548  	.DWLopt102
000002d8  DE0004              549  		retf
000002db                      550  	.LDW27
                              551  		FUNCTION	_0freq_rate_init,.LDW27-_0freq_rate_init
                              552  		FUNCTION	_freq_rate_init,.LDW27-_freq_rate_init
                              553  	;; Resource Information
                              554  		;; No Information
                              555  	.debug_frame		SECTION
                              556  	;; Frame Description Entry(FDE)
00000040  00000000          + 557  		DD	.LDW133-.LDW132	;; length
00000044                      558  	.LDW132
00000044  00000000          + 559  		DD	.LFR_TOP	;; CIE_pointer
00000048  00000000          + 560  		DD	_freq_rate_init	;; initial location
0000004c  00000000          + 561  		DD	.LDW27-_freq_rate_init	;; address_range
                              562  		;; Prologue
00000050  02                  563  		DC	0x2	;; DW_CFA_advance_loc1(_0freq_rate_init-_freq_rate_init)
00000051  00                + 564  		DC	_0freq_rate_init-_freq_rate_init
00000052  0E04                565  		DC	0xe,0x4	;; DW_CFA_def_cfa_offset(4)
                              566  		;; Epilogue
00000054                      567  	.LDW133
                              568  	;; End of Frame Description Entry
                              569  	;;FUNC E _freq_rate_init
                              570  	;;FUNC S _open_pwm
                              571  	.text		SECTION
                              572  		GLOBAL	_open_pwm
                              573  		GLOBAL	_0open_pwm
000002db                      574  	_open_pwm
                              575  	;;PROLOG 0x0
                              576  	_0open_pwm		FUNCINFO _open_pwm,0,[]
                              577  	;;LINE 580, 1, 1
000002db                      578  	.DWLopt103
000002db  FCAC00000000      @ 579  		movhu	(_gus_half_pwm),D0
000002e1  FC8300000000      @ 580  		movhu	D0,(_gus_max_comp_val)
                              581  	;;LINE 581, 1, 1
000002e7                      582  	.DWLopt104
000002e7  FC8300000000      @ 583  		movhu	D0,(_gus_mid_comp_val)
                              584  	;;LINE 582, 1, 1
000002ed                      585  	.DWLopt105
000002ed  FC8300000000      @ 586  		movhu	D0,(_gus_min_comp_val)
                              587  	;;LINE 585, 1, 1
000002f3                      588  	.DWLopt106
000002f3  FC8300000000      @ 589  		movhu	D0,(_gus_val_a)
                              590  	;;LINE 586, 1, 1
000002f9                      591  	.DWLopt107
000002f9  FC8300000000      @ 592  		movhu	D0,(_gus_val_b)
                              593  	;;LINE 587, 1, 1
000002ff                      594  	.DWLopt108
000002ff  FC8300000000      @ 595  		movhu	D0,(_gus_val_c)
                              596  	;;LINE 590, 1, 1
00000305                      597  	.DWLopt109
00000305  0314A5              598  		movhu	D0,(42260)
                              599  	;;LINE 591, 1, 1
00000308                      600  	.DWLopt110
00000308  FCAC00000000      @ 601  		movhu	(_gus_val_b),D0
0000030e  0318A5              602  		movhu	D0,(42264)
                              603  	;;LINE 592, 1, 1
00000311                      604  	.DWLopt111
00000311  FCAC00000000      @ 605  		movhu	(_gus_val_c),D0
00000317  031CA5              606  		movhu	D0,(42268)
                              607  	;;LINE 609, 1, 1
0000031a                      608  	.DWLopt112
0000031a  803F                609  		mov	63,D0
0000031c  030CA5              610  		movhu	D0,(42252)
                              611  	;;LINE 611, 1, 1
0000031f                      612  	.DWLopt113
0000031f  DE0000              613  		retf
00000322                      614  	.LDW28
                              615  		FUNCTION	_0open_pwm,.LDW28-_0open_pwm
                              616  		FUNCTION	_open_pwm,.LDW28-_open_pwm
                              617  	;; Resource Information
                              618  		;; No Information
                              619  	.debug_frame		SECTION
                              620  	;; Frame Description Entry(FDE)
00000054  00000000          + 621  		DD	.LDW146-.LDW145	;; length
00000058                      622  	.LDW145
00000058  00000000          + 623  		DD	.LFR_TOP	;; CIE_pointer
0000005c  00000000          + 624  		DD	_open_pwm	;; initial location
00000060  00000000          + 625  		DD	.LDW28-_open_pwm	;; address_range
                              626  		;; Prologue
00000064  02                  627  		DC	0x2	;; DW_CFA_advance_loc1(_0open_pwm-_open_pwm)
00000065  00                + 628  		DC	_0open_pwm-_open_pwm
00000066  0E00                629  		DC	0xe,0x0	;; DW_CFA_def_cfa_offset(0)
                              630  		;; Epilogue
00000068                      631  	.LDW146
                              632  	;; End of Frame Description Entry
                              633  	;;FUNC E _open_pwm
                              634  	;;FUNC S _shut_pwm
                              635  	.text		SECTION
                              636  		GLOBAL	_shut_pwm
                              637  		GLOBAL	_0shut_pwm
00000322                      638  	_shut_pwm
                              639  	;;PROLOG 0x0
                              640  	_0shut_pwm		FUNCINFO _shut_pwm,0,[]
                              641  	;;LINE 616, 1, 1
00000322                      642  	.DWLopt114
00000322  2CC00F              643  		mov	4032,D0
00000325  030CA5              644  		movhu	D0,(42252)
                              645  	;;LINE 618, 1, 1
00000328                      646  	.DWLopt115
00000328  FCAC00000000      @ 647  		movhu	(_gus_peak_pwm),D0
0000032e  40                  648  		inc	D0
0000032f  FC8300000000      @ 649  		movhu	D0,(_gus_val_a)
                              650  	;;LINE 619, 1, 1
00000335                      651  	.DWLopt116
00000335  FCAC00000000      @ 652  		movhu	(_gus_peak_pwm),D0
0000033b  40                  653  		inc	D0
0000033c  FC8300000000      @ 654  		movhu	D0,(_gus_val_b)
                              655  	;;LINE 620, 1, 1
00000342                      656  	.DWLopt117
00000342  FCAC00000000      @ 657  		movhu	(_gus_peak_pwm),D0
00000348  40                  658  		inc	D0
00000349  FC8300000000      @ 659  		movhu	D0,(_gus_val_c)
                              660  	;;LINE 622, 1, 1
0000034f                      661  	.DWLopt118
0000034f  FCAC00000000      @ 662  		movhu	(_gus_val_a),D0
00000355  0314A5              663  		movhu	D0,(42260)
                              664  	;;LINE 623, 1, 1
00000358                      665  	.DWLopt119
00000358  FCAC00000000      @ 666  		movhu	(_gus_val_b),D0
0000035e  0318A5              667  		movhu	D0,(42264)
                              668  	;;LINE 624, 1, 1
00000361                      669  	.DWLopt120
00000361  FCAC00000000      @ 670  		movhu	(_gus_val_c),D0
00000367  031CA5              671  		movhu	D0,(42268)
                              672  	;;LINE 627, 1, 1
0000036a                      673  	.DWLopt121
0000036a  FCAC00000000      @ 674  		movhu	(_gus_half_pwm),D0
00000370  FC8300000000      @ 675  		movhu	D0,(_gus_max_comp_val)
                              676  	;;LINE 628, 1, 1
00000376                      677  	.DWLopt122
00000376  FC8300000000      @ 678  		movhu	D0,(_gus_mid_comp_val)
                              679  	;;LINE 629, 1, 1
0000037c                      680  	.DWLopt123
0000037c  FC8300000000      @ 681  		movhu	D0,(_gus_min_comp_val)
                              682  	;;LINE 631, 1, 1
00000382                      683  	.DWLopt124
00000382  00                  684  		clr	D0
00000383  FC8100000000      @ 685  		mov	D0,(_rate_theta_buf)
                              686  	;;LINE 632, 1, 1
00000389                      687  	.DWLopt125
00000389  FC8100000000      @ 688  		mov	D0,(_rate_theta)
                              689  	;;LINE 633, 1, 1
0000038f                      690  	.DWLopt126
0000038f  FC8100000000      @ 691  		mov	D0,(_theta)
                              692  	;;LINE 635, 1, 1
00000395                      693  	.DWLopt127
00000395  FC8300000000      @ 694  		movhu	D0,(_gus_now_theta)
                              695  	;;LINE 636, 1, 1
0000039b                      696  	.DWLopt128
0000039b  FC8300000000      @ 697  		movhu	D0,(_gus_next_theta)
                              698  	;;LINE 638, 1, 1
000003a1                      699  	.DWLopt129
000003a1  FC8300000000      @ 700  		movhu	D0,(_gus_percent_k)
                              701  	;;LINE 640, 1, 1
000003a7                      702  	.DWLopt130
000003a7  FC8300000000      @ 703  		movhu	D0,(_gus_percent_pwm_buf)
                              704  	;;LINE 641, 1, 1
000003ad                      705  	.DWLopt131
000003ad  FC8300000000      @ 706  		movhu	D0,(_gus_percent_pwm)
                              707  	;;LINE 643, 1, 1
000003b3                      708  	.DWLopt132
000003b3  FC8300000000      @ 709  		movhu	D0,(_gus_freq_set)
                              710  	;;LINE 645, 1, 1
000003b9                      711  	.DWLopt133
000003b9  FC8300000000      @ 712  		movhu	D0,(_gus_freq_out)
                              713  	;;LINE 652, 1, 1
000003bf                      714  	.DWLopt134
000003bf  FC8300000000      @ 715  		movhu	D0,(_gus_Uout_for_disp)
                              716  	;;LINE 653, 1, 1
000003c5                      717  	.DWLopt135
000003c5  FC8300000000      @ 718  		movhu	D0,(_gus_Uout_real)
                              719  	;;LINE 654, 1, 1
000003cb                      720  	.DWLopt136
000003cb  FC8100000000      @ 721  		mov	D0,(_gsl_FreqPI_integral)
                              722  	;;LINE 655, 1, 1
000003d1                      723  	.DWLopt137
000003d1  DE0000              724  		retf
000003d4                      725  	.LDW29
                              726  		FUNCTION	_0shut_pwm,.LDW29-_0shut_pwm
                              727  		FUNCTION	_shut_pwm,.LDW29-_shut_pwm
                              728  	;; Resource Information
                              729  		;; No Information
                              730  	.debug_frame		SECTION
                              731  	;; Frame Description Entry(FDE)
00000068  00000000          + 732  		DD	.LDW172-.LDW171	;; length
0000006c                      733  	.LDW171
0000006c  00000000          + 734  		DD	.LFR_TOP	;; CIE_pointer
00000070  00000000          + 735  		DD	_shut_pwm	;; initial location
00000074  00000000          + 736  		DD	.LDW29-_shut_pwm	;; address_range
                              737  		;; Prologue
00000078  02                  738  		DC	0x2	;; DW_CFA_advance_loc1(_0shut_pwm-_shut_pwm)
00000079  00                + 739  		DC	_0shut_pwm-_shut_pwm
0000007a  0E00                740  		DC	0xe,0x0	;; DW_CFA_def_cfa_offset(0)
                              741  		;; Epilogue
0000007c                      742  	.LDW172
                              743  	;; End of Frame Description Entry
                              744  	;;FUNC E _shut_pwm
                              745  	;;FUNC S _bootstrap_charger_delaytime
                              746  	.text		SECTION
                              747  		GLOBAL	_bootstrap_charger_delaytime
                              748  		GLOBAL	_0bootstrap_charger_delaytime
000003d4                      749  	_bootstrap_charger_delaytime
                              750  	;;PROLOG 0x0
                              751  	_0bootstrap_charger_delaytime		FUNCINFO _bootstrap_charger_delaytime,0,[]
                              752  	;;LINE 659, 1, 1
000003d4                      753  	.DWLopt138
000003d4  FCAC00000000      @ 754  		movhu	(_flg_PWM),D0
000003da  FAEC0040            755  		btst	16384,D0
000003de  C807DC00000000    @ 756  		bne	Lcb0004
                              757  	;;LINE 717, 1, 1
000003e5                      758  	.DWLopt139
000003e5  DE0000              759  		retf
000003e8                      760  	Lcb0004
                              761  	;;LINE 661, 1, 1
000003e8                      762  	.DWLopt140
000003e8  FCAC00000000      @ 763  		movhu	(_gss_bootstrap_charger_delaytimer),D0
000003ee  40                  764  		inc	D0
000003ef  FC8300000000      @ 765  		movhu	D0,(_gss_bootstrap_charger_delaytimer)
                              766  	;;LINE 663, 1, 1
000003f5                      767  	.DWLopt141
000003f5  18                  768  		exth	D0
000003f6  FAC8BC02            769  		cmp	700,D0
000003fa  C107DC00000000    @ 770  		ble	L00072
                              771  	;;LINE 665, 1, 1
00000401                      772  	.DWLopt142
00000401  FCAC00000000      @ 773  		movhu	(_flg_PWM),D0
00000407  FAE0FFBF            774  		and	49151,D0
0000040b  FC8300000000      @ 775  		movhu	D0,(_flg_PWM)
                              776  	;;LINE 666, 1, 1
00000411                      777  	.DWLopt143
00000411  00                  778  		clr	D0
00000412  FC8300000000      @ 779  		movhu	D0,(_gss_bootstrap_charger_delaytimer)
                              780  	;;LINE 717, 0, 1
00000418                      781  	.DWLopt144
00000418  DE0000              782  		retf
0000041b                      783  	L00072
                              784  	;;LINE 668, 1, 1
0000041b                      785  	.DWLopt145
0000041b  FAC89001            786  		cmp	400,D0
0000041f  C107DC00000000    @ 787  		ble	L00074
                              788  	;;LINE 670, 1, 1
00000426                      789  	.DWLopt146
00000426  FCAC00000000      @ 790  		movhu	(_gus_half_pwm),D0
0000042c  FC8300000000      @ 791  		movhu	D0,(_gus_val_a)
                              792  	;;LINE 671, 1, 1
00000432                      793  	.DWLopt147
00000432  FC8300000000      @ 794  		movhu	D0,(_gus_val_b)
                              795  	;;LINE 672, 1, 1
00000438                      796  	.DWLopt148
00000438  FC8300000000      @ 797  		movhu	D0,(_gus_val_c)
                              798  	;;LINE 674, 1, 1
0000043e                      799  	.DWLopt149
0000043e  0314A5              800  		movhu	D0,(42260)
                              801  	;;LINE 675, 1, 1
00000441                      802  	.DWLopt150
00000441  FCAC00000000      @ 803  		movhu	(_gus_val_b),D0
00000447  0318A5              804  		movhu	D0,(42264)
                              805  	;;LINE 676, 1, 1
0000044a                      806  	.DWLopt151
0000044a  FCAC00000000      @ 807  		movhu	(_gus_val_c),D0
00000450  031CA5              808  		movhu	D0,(42268)
                              809  	;;LINE 678, 1, 1
00000453                      810  	.DWLopt152
00000453  2C4005              811  		mov	1344,D0
00000456  030CA5              812  		movhu	D0,(42252)
                              813  	;;LINE 717, 0, 1
00000459                      814  	.DWLopt153
00000459  DE0000              815  		retf
0000045c                      816  	L00074
                              817  	;;LINE 680, 1, 1
0000045c                      818  	.DWLopt154
0000045c  FAC82C01            819  		cmp	300,D0
00000460  C107DC00000000    @ 820  		ble	L00080
                              821  	;;LINE 682, 1, 1
00000467                      822  	.DWLopt155
00000467  FCAC00000000      @ 823  		movhu	(_gus_half_pwm),D0
0000046d  FC8300000000      @ 824  		movhu	D0,(_gus_val_a)
                              825  	;;LINE 683, 1, 1
00000473                      826  	.DWLopt156
00000473  FC8300000000      @ 827  		movhu	D0,(_gus_val_b)
                              828  	;;LINE 684, 1, 1
00000479                      829  	.DWLopt157
00000479  FCAC00000000      @ 830  		movhu	(_gus_val_c),D0
0000047f  FCAD00000000      @ 831  		movhu	(_gus_centi_half_pwm),D1
00000485  F104                832  		sub	D1,D0
00000487  FC8300000000      @ 833  		movhu	D0,(_gus_val_c)
                              834  	;;LINE 686, 1, 1
0000048d                      835  	.DWLopt158
0000048d  FCAC00000000      @ 836  		movhu	(_gus_val_a),D0
00000493  0314A5              837  		movhu	D0,(42260)
                              838  	;;LINE 687, 1, 1
00000496                      839  	.DWLopt159
00000496  FCAC00000000      @ 840  		movhu	(_gus_val_b),D0
0000049c  0318A5              841  		movhu	D0,(42264)
                              842  	;;LINE 688, 1, 1
0000049f                      843  	.DWLopt160
0000049f  FCAC00000000      @ 844  		movhu	(_gus_val_c),D0
000004a5  031CA5              845  		movhu	D0,(42268)
                              846  	;;LINE 690, 1, 1
000004a8                      847  	.DWLopt161
000004a8  2C4005              848  		mov	1344,D0
000004ab  030CA5              849  		movhu	D0,(42252)
                              850  	;;LINE 717, 0, 1
000004ae                      851  	.DWLopt162
000004ae  DE0000              852  		retf
000004b1                      853  	L00080
                              854  	;;LINE 692, 1, 1
000004b1                      855  	.DWLopt163
000004b1  FAC8C800            856  		cmp	200,D0
000004b5  C107DC00000000    @ 857  		ble	L00083
                              858  	;;LINE 694, 1, 1
000004bc                      859  	.DWLopt164
000004bc  FCAC00000000      @ 860  		movhu	(_gus_half_pwm),D0
000004c2  FC8300000000      @ 861  		movhu	D0,(_gus_val_a)
                              862  	;;LINE 695, 1, 1
000004c8                      863  	.DWLopt165
000004c8  FCAC00000000      @ 864  		movhu	(_gus_val_b),D0
000004ce  FCAD00000000      @ 865  		movhu	(_gus_centi_half_pwm),D1
000004d4  F104                866  		sub	D1,D0
000004d6  FC8300000000      @ 867  		movhu	D0,(_gus_val_b)
                              868  	;;LINE 696, 1, 1
000004dc                      869  	.DWLopt166
000004dc  FCAC00000000      @ 870  		movhu	(_gus_peak_pwm),D0
000004e2  40                  871  		inc	D0
000004e3  FC8300000000      @ 872  		movhu	D0,(_gus_val_c)
                              873  	;;LINE 698, 1, 1
000004e9                      874  	.DWLopt167
000004e9  FCAC00000000      @ 875  		movhu	(_gus_val_a),D0
000004ef  0314A5              876  		movhu	D0,(42260)
                              877  	;;LINE 699, 1, 1
000004f2                      878  	.DWLopt168
000004f2  FCAC00000000      @ 879  		movhu	(_gus_val_b),D0
000004f8  0318A5              880  		movhu	D0,(42264)
                              881  	;;LINE 700, 1, 1
000004fb                      882  	.DWLopt169
000004fb  FCAC00000000      @ 883  		movhu	(_gus_val_c),D0
00000501  031CA5              884  		movhu	D0,(42268)
                              885  	;;LINE 702, 1, 1
00000504                      886  	.DWLopt170
00000504  2C400D              887  		mov	3392,D0
00000507  030CA5              888  		movhu	D0,(42252)
0000050a  DC00000000        @ 889  		bra	L00069
0000050f                      890  	L00083
                              891  	;;LINE 704, 1, 1
0000050f                      892  	.DWLopt171
0000050f  A064                893  		cmp	100,D0
00000511  C107DC00000000    @ 894  		ble	L00069
                              895  	;;LINE 706, 1, 1
00000518                      896  	.DWLopt172
00000518  FCAD00000000      @ 897  		movhu	(_gus_val_a),D1
0000051e  FCAC00000000      @ 898  		movhu	(_gus_centi_half_pwm),D0
00000524  F101                899  		sub	D0,D1
00000526  FC8700000000      @ 900  		movhu	D1,(_gus_val_a)
                              901  	;;LINE 707, 1, 1
0000052c                      902  	.DWLopt173
0000052c  FCAC00000000      @ 903  		movhu	(_gus_peak_pwm),D0
00000532  40                  904  		inc	D0
00000533  FC8300000000      @ 905  		movhu	D0,(_gus_val_b)
                              906  	;;LINE 708, 1, 1
00000539                      907  	.DWLopt174
00000539  FC8300000000      @ 908  		movhu	D0,(_gus_val_c)
                              909  	;;LINE 710, 1, 1
0000053f                      910  	.DWLopt175
0000053f  FCAC00000000      @ 911  		movhu	(_gus_val_a),D0
00000545  0314A5              912  		movhu	D0,(42260)
                              913  	;;LINE 711, 1, 1
00000548                      914  	.DWLopt176
00000548  FCAC00000000      @ 915  		movhu	(_gus_val_b),D0
0000054e  0318A5              916  		movhu	D0,(42264)
                              917  	;;LINE 712, 1, 1
00000551                      918  	.DWLopt177
00000551  FCAC00000000      @ 919  		movhu	(_gus_val_c),D0
00000557  031CA5              920  		movhu	D0,(42268)
                              921  	;;LINE 714, 1, 1
0000055a                      922  	.DWLopt178
0000055a  2C400F              923  		mov	3904,D0
0000055d  030CA5              924  		movhu	D0,(42252)
00000560                      925  	L00069
                              926  	;;LINE 717, 0, 1
00000560                      927  	.DWLopt179
00000560  DE0000              928  		retf
00000563                      929  	.LDW30
                              930  		FUNCTION	_0bootstrap_charger_delaytime,.LDW30-_0bootstrap_charger_delaytime
                              931  		FUNCTION	_bootstrap_charger_delaytime,.LDW30-_bootstrap_charger_delaytime
                              932  	;; Resource Information
                              933  		;; No Information
                              934  	.debug_frame		SECTION
                              935  	;; Frame Description Entry(FDE)
0000007c  00000000          + 936  		DD	.LDW212-.LDW211	;; length
00000080                      937  	.LDW211
00000080  00000000          + 938  		DD	.LFR_TOP	;; CIE_pointer
00000084  00000000          + 939  		DD	_bootstrap_charger_delaytime	;; initial location
00000088  00000000          + 940  		DD	.LDW30-_bootstrap_charger_delaytime	;; address_range
                              941  		;; Prologue
0000008c  02                  942  		DC	0x2	;; DW_CFA_advance_loc1(_0bootstrap_charger_delaytime-_bootstrap_charger_delaytime)
0000008d  00                + 943  		DC	_0bootstrap_charger_delaytime-_bootstrap_charger_delaytime
0000008e  0E00                944  		DC	0xe,0x0	;; DW_CFA_def_cfa_offset(0)
                              945  		;; Epilogue
00000090                      946  	.LDW212
                              947  	;; End of Frame Description Entry
                              948  	;;FUNC E _bootstrap_charger_delaytime
                              949  	;;FUNC S _check_freq_updata
                              950  	.text		SECTION
                              951  		GLOBAL	_check_freq_updata
                              952  		GLOBAL	_0check_freq_updata
00000563                      953  	_check_freq_updata
                              954  	;;PROLOG 0x8
00000563  CFC0                955  		movm	[D2,D3],(SP)
                              956  	_0check_freq_updata		FUNCINFO _check_freq_updata,8,[D2,D3]
                              957  	;;LINE 724, 1, 1
00000565                      958  	.DWLopt191
00000565  FCAC00000000      @ 959  		movhu	(_flg_ctrl),D0
0000056b  F8EC04              960  		btst	4,D0
0000056e  C807DC00000000    @ 961  		bne	Lcb000a
                              962  	;;LINE 857, 1, 1
00000575                      963  	.DWLopt192
00000575  DEC008              964  		retf
00000578                      965  	Lcb000a
                              966  	;;LINE 728, 1, 1
00000578                      967  	.DWLopt193
00000578  FCAD00000000      @ 968  		movhu	(_flg_ctrl),D1
0000057e  FCAC00000000      @ 969  		movhu	(_flg_Hall),D0
00000584  F8C906              970  		asr	6,D1
00000587  F8E101              971  		and	1,D1
0000058a  1D                  972  		exthu	D1
0000058b  F8C803              973  		asr	3,D0
0000058e  F8E001              974  		and	1,D0
00000591  1C                  975  		exthu	D0
00000592  A1                  976  		cmp	D0,D1
00000593  C907DC00000000    @ 977  		beq	Lcb000b
0000059a  DC00000000        @ 978  		jmp	L00090
0000059f                      979  	Lcb000b
                              980  	;;LINE 730, 1, 1
0000059f                      981  	.DWLopt194
0000059f  FCAF00000000      @ 982  		movhu	(_gus_freq_set),D3
000005a5  FCAC00000000      @ 983  		movhu	(_gus_freq_out),D0
000005ab  A3                  984  		cmp	D0,D3
000005ac  C107DC00000000    @ 985  		ble	L00092
                              986  	;;LINE 732, 1, 1
000005b3                      987  	.DWLopt195
000005b3  00                  988  		clr	D0
000005b4  FC8100000000      @ 989  		mov	D0,(_freq_rate+12)
                              990  	;;LINE 737, 1, 1
000005ba                      991  	.DWLopt196
000005ba  FCAE00000000      @ 992  		movhu	(_gus_prot_Iout_stall_amp),D2
000005c0  FCAD00000000      @ 993  		movhu	(_gus_prot_Tm_stall_amp),D1
000005c6  88                  994  		mov	D2,D0
000005c7  A6                  995  		cmp	D1,D2
000005c8  C307DC00000000    @ 996  		bgt	L00411
000005cf  84                  997  		mov	D1,D0
000005d0                      998  	L00411
                              999  	;;LINE 738, 1, 1
000005d0                      1000  	.DWLopt197
000005d0  1C                  1001  		exthu	D0
000005d1  FCAE00000000      @ 1002  		movhu	(_gus_prot_Udc_stall_amp),D2
000005d7  81                  1003  		mov	D0,D1
000005d8  A8                  1004  		cmp	D2,D0
000005d9  C307DC00000000    @ 1005  		bgt	L00413
000005e0  89                  1006  		mov	D2,D1
000005e1                      1007  	L00413
000005e1  FC8700000000      @ 1008  		movhu	D1,(_gus_stall_amp_accel)
                              1009  	;;LINE 740, 1, 1
000005e7                      1010  	.DWLopt198
000005e7  FCA400000000      @ 1011  		mov	(_freq_rate),D0
000005ed  FCA600000000      @ 1012  		mov	(_freq_rate+8),D2
000005f3  1D                  1013  		exthu	D1
000005f4  F2A4                1014  		lsr	D1,D0
000005f6  E8                  1015  		add	D2,D0
000005f7  FC8100000000      @ 1016  		mov	D0,(_freq_rate+8)
                              1017  	;;LINE 744, 1, 1
000005fd                      1018  	.DWLopt199
000005fd  FCA800000000      @ 1019  		movbu	(_freq_rate+11),D0
00000603  FCAD00000000      @ 1020  		movhu	(_gus_freq_out),D1
00000609  E1                  1021  		add	D0,D1
0000060a                      1022  	.DWLopt181
                              1023  	;;LINE 745, 1, 1
0000060a                      1024  	.DWLopt200
0000060a  00                  1025  		clr	D0
0000060b  FC8200000000      @ 1026  		movbu	D0,(_freq_rate+11)
                              1027  	;;LINE 747, 1, 1
00000611                      1028  	.DWLopt201
00000611  84                  1029  		mov	D1,D0
00000612  1C                  1030  		exthu	D0
00000613  A3                  1031  		cmp	D0,D3
00000614  C007DC00000000    @ 1032  		bge	L00102
                              1033  	;;LINE 749, 1, 1
0000061b                      1034  	.DWLopt202
0000061b  FCAD00000000      @ 1035  		movhu	(_gus_freq_set),D1
00000621                      1036  	.DWLopt182
00000621                      1037  	L00102
                              1038  	;;LINE 753, 1, 1
00000621                      1039  	.DWLopt203
00000621  FCAE00000000      @ 1040  		movhu	(_ram_para+16),D2
00000627  84                  1041  		mov	D1,D0
00000628  1A                  1042  		exth	D2
00000629  1C                  1043  		exthu	D0
0000062a  A8                  1044  		cmp	D2,D0
0000062b  C007DC00000000    @ 1045  		bge	L00103
                              1046  	;;LINE 755, 1, 1
00000632                      1047  	.DWLopt204
00000632  FCAD00000000      @ 1048  		movhu	(_ram_para+16),D1
00000638                      1049  	.DWLopt183
00000638                      1050  	L00103
                              1051  	;;LINE 758, 1, 1
00000638                      1052  	.DWLopt205
00000638  FC8700000000      @ 1053  		movhu	D1,(_gus_freq_out)
0000063e                      1054  	.DWLopt184
                              1055  	;;LINE 857, 0, 1
0000063e                      1056  	.DWLopt206
0000063e  DEC008              1057  		retf
00000641                      1058  	L00092
                              1059  	;;LINE 761, 1, 1
00000641                      1060  	.DWLopt207
00000641  A3                  1061  		cmp	D0,D3
00000642  C007DC00000000    @ 1062  		bge	L00106
                              1063  	;;LINE 763, 1, 1
00000649                      1064  	.DWLopt208
00000649  00                  1065  		clr	D0
0000064a  FC8100000000      @ 1066  		mov	D0,(_freq_rate+8)
                              1067  	;;LINE 768, 1, 1
00000650                      1068  	.DWLopt209
00000650  FCAC00000000      @ 1069  		movhu	(_gus_prot_Udc_stall_amp),D0
00000656  FC8300000000      @ 1070  		movhu	D0,(_gus_stall_amp_decel)
                              1071  	;;LINE 770, 1, 1
0000065c                      1072  	.DWLopt210
0000065c  FCA500000000      @ 1073  		mov	(_freq_rate+4),D1
00000662  FCA600000000      @ 1074  		mov	(_freq_rate+12),D2
00000668  F2A1                1075  		lsr	D0,D1
0000066a  E9                  1076  		add	D2,D1
0000066b  FC8500000000      @ 1077  		mov	D1,(_freq_rate+12)
                              1078  	;;LINE 774, 1, 1
00000671                      1079  	.DWLopt211
00000671  FCAE00000000      @ 1080  		movhu	(_gus_freq_out),D2
00000677  FCA900000000      @ 1081  		movbu	(_freq_rate+15),D1
                              1082  	;;LINE 780, 1, 1
0000067d                      1083  	.DWLopt212
0000067d  00                  1084  		clr	D0
0000067e                      1085  	.DWLopt185
                              1086  	;;LINE 774, 0, 1
0000067e                      1087  	.DWLopt213
0000067e  A6                  1088  		cmp	D1,D2
0000067f  C107DC00000000    @ 1089  		ble	L00109
                              1090  	;;LINE 776, 1, 1
00000686                      1091  	.DWLopt214
00000686  F106                1092  		sub	D1,D2
00000688  88                  1093  		mov	D2,D0
00000689                      1094  	.DWLopt186
00000689                      1095  	L00109
                              1096  	;;LINE 783, 1, 1
00000689                      1097  	.DWLopt215
00000689  04                  1098  		clr	D1
0000068a  FC8600000000      @ 1099  		movbu	D1,(_freq_rate+15)
                              1100  	;;LINE 785, 1, 1
00000690                      1101  	.DWLopt216
00000690  81                  1102  		mov	D0,D1
00000691  1D                  1103  		exthu	D1
00000692  A7                  1104  		cmp	D1,D3
00000693  C107DC00000000    @ 1105  		ble	Lopt000002
                              1106  	;;LINE 787, 1, 1
0000069a                      1107  	.DWLopt217
0000069a  FCAC00000000      @ 1108  		movhu	(_gus_freq_set),D0
000006a0                      1109  	.DWLopt187
000006a0  DC00000000        @ 1110  		bra	Lopt000002
000006a5                      1111  	L00106
                              1112  	;;LINE 800, 1, 1
000006a5                      1113  	.DWLopt218
000006a5  FCAC00000000      @ 1114  		movhu	(_gus_freq_set),D0
000006ab  FC8300000000      @ 1115  		movhu	D0,(_gus_freq_out)
                              1116  	;;LINE 797, 1, 1
000006b1                      1117  	.DWLopt219
000006b1  00                  1118  		clr	D0
000006b2  FC8100000000      @ 1119  		mov	D0,(_freq_rate+12)
                              1120  	;;LINE 798, 1, 1
000006b8                      1121  	.DWLopt220
000006b8  FC8100000000      @ 1122  		mov	D0,(_freq_rate+8)
                              1123  	;;LINE 802, 1, 1
000006be                      1124  	.DWLopt221
000006be  00                  1125  		clr	D0
000006bf  FC8300000000      @ 1126  		movhu	D0,(_gus_stall_amp_accel)
                              1127  	;;LINE 803, 1, 1
000006c5                      1128  	.DWLopt222
000006c5  FC8300000000      @ 1129  		movhu	D0,(_gus_stall_amp_decel)
                              1130  	;;LINE 0, 0, 1
000006cb                      1131  	.DWLopt223
000006cb  DC00000000        @ 1132  		bra	L00088
000006d0                      1133  	L00090
                              1134  	;;LINE 811, 1, 1
000006d0                      1135  	.DWLopt224
000006d0  00                  1136  		clr	D0
000006d1  FC8100000000      @ 1137  		mov	D0,(_freq_rate+8)
                              1138  	;;LINE 816, 1, 1
000006d7                      1139  	.DWLopt225
000006d7  FCAC00000000      @ 1140  		movhu	(_gus_prot_Udc_stall_amp),D0
000006dd  FC8300000000      @ 1141  		movhu	D0,(_gus_stall_amp_decel)
                              1142  	;;LINE 818, 1, 1
000006e3                      1143  	.DWLopt226
000006e3  FCA400000000      @ 1144  		mov	(_freq_rate+4),D0
000006e9  FCA600000000      @ 1145  		mov	(_freq_rate+12),D2
000006ef  FCAD00000000      @ 1146  		movhu	(_gus_stall_amp_decel),D1
000006f5  E5                  1147  		add	D1,D1
000006f6  F2A4                1148  		lsr	D1,D0
000006f8  E8                  1149  		add	D2,D0
000006f9  FC8100000000      @ 1150  		mov	D0,(_freq_rate+12)
                              1151  	;;LINE 822, 1, 1
000006ff                      1152  	.DWLopt227
000006ff  FCAE00000000      @ 1153  		movhu	(_gus_freq_out),D2
00000705  FCA900000000      @ 1154  		movbu	(_freq_rate+15),D1
                              1155  	;;LINE 828, 1, 1
0000070b                      1156  	.DWLopt228
0000070b  00                  1157  		clr	D0
0000070c                      1158  	.DWLopt188
                              1159  	;;LINE 822, 0, 1
0000070c                      1160  	.DWLopt229
0000070c  A6                  1161  		cmp	D1,D2
0000070d  C107DC00000000    @ 1162  		ble	L00114
                              1163  	;;LINE 824, 1, 1
00000714                      1164  	.DWLopt230
00000714  F106                1165  		sub	D1,D2
00000716  88                  1166  		mov	D2,D0
00000717                      1167  	.DWLopt189
00000717                      1168  	L00114
                              1169  	;;LINE 831, 1, 1
00000717                      1170  	.DWLopt231
00000717  04                  1171  		clr	D1
00000718  FC8600000000      @ 1172  		movbu	D1,(_freq_rate+15)
0000071e                      1173  	Lopt000002
                              1174  	;;LINE 838, 1, 1
0000071e                      1175  	.DWLopt232
                              1176  	;;LINE 790, 1, 1
0000071e                      1177  	.DWLopt233
0000071e  FC8300000000      @ 1178  		movhu	D0,(_gus_freq_out)
00000724                      1179  	.DWLopt190
00000724                      1180  	L00088
                              1181  	;;LINE 857, 0, 1
00000724                      1182  	.DWLopt234
00000724  DEC008              1183  		retf
00000727                      1184  	.LDW31
                              1185  		FUNCTION	_0check_freq_updata,.LDW31-_0check_freq_updata
                              1186  		FUNCTION	_check_freq_updata,.LDW31-_check_freq_updata
                              1187  	.debug_MN_rsc		SECTION
                              1188  	;; Resource Information
                              1189  	;; resource_list  1
00000029                      1190  	.LDW213
                              1191  		;; loc_data  1
00000029  00000000          + 1192  		DD	.DWLopt181	;; address
0000002d  01                  1193  		DC	0x1	;;   size of loc_exp
0000002e  51                  1194  		DC	0x51	;;   DW_OP_reg1
                              1195  		;; loc_data  2
0000002f  00000000          + 1196  		DD	.DWLopt182	;; address
00000033  01                  1197  		DC	0x1	;;   size of loc_exp
00000034  51                  1198  		DC	0x51	;;   DW_OP_reg1
                              1199  		;; loc_data  3
00000035  00000000          + 1200  		DD	.DWLopt183	;; address
00000039  01                  1201  		DC	0x1	;;   size of loc_exp
0000003a  51                  1202  		DC	0x51	;;   DW_OP_reg1
                              1203  		;; loc_data  4
0000003b  00000000          + 1204  		DD	.DWLopt184	;; address
0000003f  01                  1205  		DC	0x1	;;   size of loc_exp
00000040  E1                  1206  		DC	0xe1	;;   DW_OP_MN_void
                              1207  		;; loc_data  5
00000041  00000000          + 1208  		DD	.DWLopt185	;; address
00000045  01                  1209  		DC	0x1	;;   size of loc_exp
00000046  50                  1210  		DC	0x50	;;   DW_OP_reg0
                              1211  		;; loc_data  6
00000047  00000000          + 1212  		DD	.DWLopt186	;; address
0000004b  01                  1213  		DC	0x1	;;   size of loc_exp
0000004c  50                  1214  		DC	0x50	;;   DW_OP_reg0
                              1215  		;; loc_data  7
0000004d  00000000          + 1216  		DD	.DWLopt187	;; address
00000051  01                  1217  		DC	0x1	;;   size of loc_exp
00000052  50                  1218  		DC	0x50	;;   DW_OP_reg0
                              1219  		;; loc_data  8
00000053  00000000          + 1220  		DD	.DWLopt188	;; address
00000057  01                  1221  		DC	0x1	;;   size of loc_exp
00000058  50                  1222  		DC	0x50	;;   DW_OP_reg0
                              1223  		;; loc_data  9
00000059  00000000          + 1224  		DD	.DWLopt189	;; address
0000005d  01                  1225  		DC	0x1	;;   size of loc_exp
0000005e  50                  1226  		DC	0x50	;;   DW_OP_reg0
                              1227  		;; loc_data  10
0000005f  00000000          + 1228  		DD	.DWLopt190	;; address
00000063  01                  1229  		DC	0x1	;;   size of loc_exp
00000064  E1                  1230  		DC	0xe1	;;   DW_OP_MN_void
                              1231  		;; end
00000065  00000000            1232  		DD	0x0
00000069  00                  1233  		DC	0x0
                              1234  	;; End of Resource Information
                              1235  	.debug_frame		SECTION
                              1236  	;; Frame Description Entry(FDE)
00000090  00000000          + 1237  		DD	.LDW273-.LDW272	;; length
00000094                      1238  	.LDW272
00000094  00000000          + 1239  		DD	.LFR_TOP	;; CIE_pointer
00000098  00000000          + 1240  		DD	_check_freq_updata	;; initial location
0000009c  00000000          + 1241  		DD	.LDW31-_check_freq_updata	;; address_range
                              1242  		;; Prologue
000000a0  02                  1243  		DC	0x2	;; DW_CFA_advance_loc1(_0check_freq_updata-_check_freq_updata)
000000a1  00                + 1244  		DC	_0check_freq_updata-_check_freq_updata
000000a2  0E08                1245  		DC	0xe,0x8	;; DW_CFA_def_cfa_offset(8)
000000a4  8201                1246  		DC	0x82,0x1	;; DW_CFA_offset(D2,1)
000000a6  8302                1247  		DC	0x83,0x2	;; DW_CFA_offset(D3,2)
                              1248  		;; Epilogue
000000a8                      1249  	.LDW273
                              1250  	;; End of Frame Description Entry
                              1251  	;;FUNC E _check_freq_updata
                              1252  	;;FUNC S _Sensored_cale_Vout
                              1253  	.text		SECTION
                              1254  		GLOBAL	_Sensored_cale_Vout
                              1255  		GLOBAL	_0Sensored_cale_Vout
00000727                      1256  	_Sensored_cale_Vout
                              1257  	;;PROLOG 0x8
00000727  CFC0                1258  		movm	[D2,D3],(SP)
                              1259  	_0Sensored_cale_Vout		FUNCINFO _Sensored_cale_Vout,8,[D2,D3]
                              1260  	;;LINE 865, 1, 1
00000729                      1261  	.DWLopt244
00000729  FCAC00000000      @ 1262  		movhu	(_gus_PIctrl_delaytimer),D0
                              1263  	;;LINE 866, 1, 1
0000072f                      1264  	.DWLopt245
0000072f  FCAD00000000      @ 1265  		movhu	(_ram_para+180),D1
                              1266  	;;LINE 865, 0, 1
00000735                      1267  	.DWLopt246
00000735  40                  1268  		inc	D0
00000736  FC8300000000      @ 1269  		movhu	D0,(_gus_PIctrl_delaytimer)
                              1270  	;;LINE 866, 0, 1
0000073c                      1271  	.DWLopt247
0000073c  19                  1272  		exth	D1
0000073d  1C                  1273  		exthu	D0
0000073e  A4                  1274  		cmp	D1,D0
0000073f  C007DC00000000    @ 1275  		bge	Lcb0015
                              1276  	;;LINE 927, 1, 1
00000746                      1277  	.DWLopt248
00000746  DEC008              1278  		retf
00000749                      1279  	Lcb0015
                              1280  	;;LINE 868, 1, 1
00000749                      1281  	.DWLopt249
00000749  00                  1282  		clr	D0
0000074a  FC8300000000      @ 1283  		movhu	D0,(_gus_PIctrl_delaytimer)
                              1284  	;;LINE 872, 1, 1
00000750                      1285  	.DWLopt250
00000750  FCAD00000000      @ 1286  		movhu	(_flg_ctrl),D1
00000756  FCAC00000000      @ 1287  		movhu	(_flg_Hall),D0
0000075c  F8C906              1288  		asr	6,D1
0000075f  F8E101              1289  		and	1,D1
00000762  1D                  1290  		exthu	D1
00000763  F8C803              1291  		asr	3,D0
00000766  F8E001              1292  		and	1,D0
00000769  1C                  1293  		exthu	D0
0000076a  A1                  1294  		cmp	D0,D1
0000076b  C807DC00000000    @ 1295  		bne	L00119
                              1296  	;;LINE 874, 1, 1
00000772                      1297  	.DWLopt251
00000772  FCAC00000000      @ 1298  		movhu	(_gus_freq_out),D0
00000778  F1E1                1299  		mov	D0,A1
                              1300  	;;LINE 875, 1, 1
0000077a                      1301  	.DWLopt252
0000077a  FCAC00000000      @ 1302  		movhu	(_gus_Hall_freq),D0
00000780  F1D7                1303  		mov	A1,D3
00000782  F1E0                1304  		mov	D0,A0
00000784  F113                1305  		sub	A0,D3
00000786                      1306  	.DWLopt236
00000786  DC00000000        @ 1307  		bra	L00125
0000078b                      1308  	L00119
                              1309  	;;LINE 879, 1, 1
0000078b                      1310  	.DWLopt253
0000078b  FCAC00000000      @ 1311  		movhu	(_gus_Hall_freq),D0
00000791  F1E0                1312  		mov	D0,A0
                              1313  	;;LINE 880, 1, 1
00000793                      1314  	.DWLopt254
00000793  FCAC00000000      @ 1315  		movhu	(_gus_freq_out),D0
00000799  F1D3                1316  		mov	A0,D3
0000079b  F1E1                1317  		mov	D0,A1
0000079d  F117                1318  		sub	A1,D3
0000079f                      1319  	.DWLopt237
0000079f                      1320  	L00125
                              1321  	;;LINE 884, 1, 1
0000079f                      1322  	.DWLopt255
0000079f  FCAD00000000      @ 1323  		movhu	(_ram_para+184),D1
                              1324  	;;LINE 885, 1, 1
000007a5                      1325  	.DWLopt256
000007a5  FCA400000000      @ 1326  		mov	(_gsl_FreqPI_integral),D0
                              1327  	;;LINE 884, 0, 1
000007ab                      1328  	.DWLopt257
000007ab  19                  1329  		exth	D1
                              1330  	;;LINE 885, 0, 1
000007ac                      1331  	.DWLopt258
000007ac  F607                1332  		udf00	D1,D3
000007ae  E3                  1333  		add	D0,D3
000007af                      1334  	.DWLopt238
000007af  FC8D00000000      @ 1335  		mov	D3,(_gsl_FreqPI_integral)
                              1336  	;;LINE 886, 1, 1
000007b5                      1337  	.DWLopt259
000007b5  AF00                1338  		cmp	0,D3
000007b7  C007DC00000000    @ 1339  		bge	L00127
                              1340  	;;LINE 888, 1, 1
000007be                      1341  	.DWLopt260
000007be  0C                  1342  		clr	D3
000007bf  DC00000000        @ 1343  		bra	Lopt000003
000007c4                      1344  	L00127
                              1345  	;;LINE 890, 1, 1
000007c4                      1346  	.DWLopt261
000007c4  FCCE00008000        1347  		mov	8388608,D2
000007ca  AB                  1348  		cmp	D2,D3
000007cb  C107DC00000000    @ 1349  		ble	L00128
                              1350  	;;LINE 892, 1, 1
000007d2                      1351  	.DWLopt262
000007d2  8B                  1352  		mov	D2,D3
000007d3                      1353  	Lopt000003
                              1354  	;;LINE 892, 0, 1
000007d3                      1355  	.DWLopt263
                              1356  	;;LINE 888, 0, 1
000007d3                      1357  	.DWLopt264
000007d3  FC8D00000000      @ 1358  		mov	D3,(_gsl_FreqPI_integral)
000007d9                      1359  	L00128
                              1360  	;;LINE 896, 1, 1
000007d9                      1361  	.DWLopt265
000007d9  FCAD00000000      @ 1362  		movhu	(_flg_ctrl),D1
000007df  FCAC00000000      @ 1363  		movhu	(_flg_Hall),D0
                              1364  	;;LINE 899, 1, 1
000007e5                      1365  	.DWLopt266
000007e5  F1D6                1366  		mov	A1,D2
000007e7  F112                1367  		sub	A0,D2
000007e9                      1368  	.DWLopt239
                              1369  	;;LINE 896, 0, 1
000007e9                      1370  	.DWLopt267
000007e9  F8C906              1371  		asr	6,D1
000007ec  F8E101              1372  		and	1,D1
000007ef  1D                  1373  		exthu	D1
000007f0  F8C803              1374  		asr	3,D0
000007f3  F8E001              1375  		and	1,D0
000007f6  1C                  1376  		exthu	D0
000007f7  A1                  1377  		cmp	D0,D1
000007f8  C907DC00000000    @ 1378  		beq	L00131
                              1379  	;;LINE 904, 1, 1
000007ff                      1380  	.DWLopt268
000007ff  F1D2                1381  		mov	A0,D2
00000801  F116                1382  		sub	A1,D2
00000803                      1383  	.DWLopt240
00000803                      1384  	L00131
                              1385  	;;LINE 908, 1, 1
00000803                      1386  	.DWLopt269
00000803  FCAC00000000      @ 1387  		movhu	(_ram_para+182),D0
00000809  18                  1388  		exth	D0
                              1389  	;;LINE 909, 1, 1
0000080a                      1390  	.DWLopt270
0000080a  F602                1391  		udf00	D0,D2
0000080c  EE                  1392  		add	D3,D2
                              1393  	;;LINE 911, 1, 1
0000080d                      1394  	.DWLopt271
0000080d  AA00                1395  		cmp	0,D2
0000080f  C007DC00000000    @ 1396  		bge	L00132
                              1397  	;;LINE 913, 1, 1
00000816                      1398  	.DWLopt272
00000816  08                  1399  		clr	D2
00000817                      1400  	.DWLopt241
00000817  DC00000000        @ 1401  		bra	L00133
0000081c                      1402  	L00132
                              1403  	;;LINE 915, 1, 1
0000081c                      1404  	.DWLopt273
0000081c  FCCC00008000        1405  		mov	8388608,D0
00000822  A2                  1406  		cmp	D0,D2
00000823  C107DC00000000    @ 1407  		ble	L00133
                              1408  	;;LINE 917, 1, 1
0000082a                      1409  	.DWLopt274
0000082a  82                  1410  		mov	D0,D2
0000082b                      1411  	.DWLopt242
0000082b                      1412  	L00133
                              1413  	;;LINE 922, 1, 1
0000082b                      1414  	.DWLopt275
0000082b  FCAC00000000      @ 1415  		movhu	(_ram_para+188),D0
                              1416  	;;LINE 925, 1, 1
00000831                      1417  	.DWLopt276
00000831  89                  1418  		mov	D2,D1
00000832                      1419  	.DWLopt243
                              1420  	;;LINE 922, 0, 1
00000832                      1421  	.DWLopt277
00000832  18                  1422  		exth	D0
                              1423  	;;LINE 925, 0, 1
00000833                      1424  	.DWLopt278
00000833  F8C908              1425  		asr	8,D1
00000836  F601                1426  		udf00	D0,D1
00000838  F8C90F              1427  		asr	15,D1
0000083b  FC8700000000      @ 1428  		movhu	D1,(_gus_Uout_real)
                              1429  	;;LINE 927, 0, 1
00000841                      1430  	.DWLopt279
00000841  DEC008              1431  		retf
00000844                      1432  	.LDW32
                              1433  		FUNCTION	_0Sensored_cale_Vout,.LDW32-_0Sensored_cale_Vout
                              1434  		FUNCTION	_Sensored_cale_Vout,.LDW32-_Sensored_cale_Vout
                              1435  	.debug_MN_rsc		SECTION
                              1436  	;; Resource Information
                              1437  	;; resource_list  1
0000006a                      1438  	.LDW274
                              1439  		;; loc_data  1
0000006a  00000000          + 1440  		DD	.DWLopt236	;; address
0000006e  01                  1441  		DC	0x1	;;   size of loc_exp
0000006f  53                  1442  		DC	0x53	;;   DW_OP_reg3
                              1443  		;; loc_data  2
00000070  00000000          + 1444  		DD	.DWLopt237	;; address
00000074  01                  1445  		DC	0x1	;;   size of loc_exp
00000075  53                  1446  		DC	0x53	;;   DW_OP_reg3
                              1447  		;; loc_data  3
00000076  00000000          + 1448  		DD	.DWLopt238	;; address
0000007a  01                  1449  		DC	0x1	;;   size of loc_exp
0000007b  E1                  1450  		DC	0xe1	;;   DW_OP_MN_void
                              1451  		;; loc_data  4
0000007c  00000000          + 1452  		DD	.DWLopt239	;; address
00000080  01                  1453  		DC	0x1	;;   size of loc_exp
00000081  52                  1454  		DC	0x52	;;   DW_OP_reg2
                              1455  		;; loc_data  5
00000082  00000000          + 1456  		DD	.DWLopt240	;; address
00000086  01                  1457  		DC	0x1	;;   size of loc_exp
00000087  52                  1458  		DC	0x52	;;   DW_OP_reg2
                              1459  		;; loc_data  6
00000088  00000000          + 1460  		DD	.DWLopt241	;; address
0000008c  01                  1461  		DC	0x1	;;   size of loc_exp
0000008d  52                  1462  		DC	0x52	;;   DW_OP_reg2
                              1463  		;; loc_data  7
0000008e  00000000          + 1464  		DD	.DWLopt242	;; address
00000092  01                  1465  		DC	0x1	;;   size of loc_exp
00000093  52                  1466  		DC	0x52	;;   DW_OP_reg2
                              1467  		;; loc_data  8
00000094  00000000          + 1468  		DD	.DWLopt243	;; address
00000098  01                  1469  		DC	0x1	;;   size of loc_exp
00000099  E1                  1470  		DC	0xe1	;;   DW_OP_MN_void
                              1471  		;; end
0000009a  00000000            1472  		DD	0x0
0000009e  00                  1473  		DC	0x0
                              1474  	;; End of Resource Information
                              1475  	.debug_frame		SECTION
                              1476  	;; Frame Description Entry(FDE)
000000a8  00000000          + 1477  		DD	.LDW317-.LDW316	;; length
000000ac                      1478  	.LDW316
000000ac  00000000          + 1479  		DD	.LFR_TOP	;; CIE_pointer
000000b0  00000000          + 1480  		DD	_Sensored_cale_Vout	;; initial location
000000b4  00000000          + 1481  		DD	.LDW32-_Sensored_cale_Vout	;; address_range
                              1482  		;; Prologue
000000b8  02                  1483  		DC	0x2	;; DW_CFA_advance_loc1(_0Sensored_cale_Vout-_Sensored_cale_Vout)
000000b9  00                + 1484  		DC	_0Sensored_cale_Vout-_Sensored_cale_Vout
000000ba  0E08                1485  		DC	0xe,0x8	;; DW_CFA_def_cfa_offset(8)
000000bc  8201                1486  		DC	0x82,0x1	;; DW_CFA_offset(D2,1)
000000be  8302                1487  		DC	0x83,0x2	;; DW_CFA_offset(D3,2)
                              1488  		;; Epilogue
000000c0                      1489  	.LDW317
                              1490  	;; End of Frame Description Entry
                              1491  	;;FUNC E _Sensored_cale_Vout
                              1492  	;;FUNC S _calc_percent_theta
                              1493  	.text		SECTION
                              1494  		GLOBAL	_calc_percent_theta
                              1495  		GLOBAL	_0calc_percent_theta
00000844                      1496  	_calc_percent_theta
                              1497  	;;PROLOG 0x4
00000844  F8FEFC              1498  		add	-4,SP
                              1499  	_0calc_percent_theta		FUNCINFO _calc_percent_theta,4,[]
                              1500  	;;LINE 935, 1, 1
00000847                      1501  	.DWLopt287
00000847  FCAC00000000      @ 1502  		movhu	(_ram_para+144),D0
                              1503  	;;LINE 936, 1, 1
0000084d                      1504  	.DWLopt288
0000084d  FCAD00000000      @ 1505  		movhu	(_gus_Udc_ad),D1
                              1506  	;;LINE 935, 0, 1
00000853                      1507  	.DWLopt289
00000853  18                  1508  		exth	D0
                              1509  	;;LINE 936, 0, 1
00000854                      1510  	.DWLopt290
00000854  F101                1511  		sub	D0,D1
                              1512  	;;LINE 937, 1, 1
00000856                      1513  	.DWLopt291
00000856  FCAC00000000      @ 1514  		movhu	(_ram_para+138),D0
                              1515  	;;LINE 936, 0, 1
0000085c                      1516  	.DWLopt292
0000085c  F9010A              1517  		udf00	10,D1
0000085f                      1518  	.DWLopt282
                              1519  	;;LINE 937, 0, 1
0000085f                      1520  	.DWLopt293
0000085f  18                  1521  		exth	D0
00000860  F601                1522  		udf00	D0,D1
                              1523  	;;LINE 938, 1, 1
00000862                      1524  	.DWLopt294
00000862  FCAC00000000      @ 1525  		movhu	(_ram_para+140),D0
00000868  18                  1526  		exth	D0
00000869  F2B1                1527  		asr	D0,D1
                              1528  	;;LINE 939, 1, 1
0000086b                      1529  	.DWLopt295
0000086b  FCAC00000000      @ 1530  		movhu	(_ram_para+142),D0
00000871  18                  1531  		exth	D0
00000872  F9000A              1532  		udf00	10,D0
00000875  E4                  1533  		add	D1,D0
00000876                      1534  	.DWLopt284
00000876                      1535  	.DWLopt283
                              1536  	;;LINE 941, 1, 1
00000876                      1537  	.DWLopt296
00000876  2DE803              1538  		mov	1000,D1
00000879  A4                  1539  		cmp	D1,D0
0000087a  C007DC00000000    @ 1540  		bge	L00140
                              1541  	;;LINE 941, 1, 1
00000881                      1542  	.DWLopt297
00000881  84                  1543  		mov	D1,D0
00000882                      1544  	.DWLopt285
00000882                      1545  	L00140
                              1546  	;;LINE 943, 1, 1
00000882                      1547  	.DWLopt298
00000882  FC8300000000      @ 1548  		movhu	D0,(_gus_Udc_tmp)
00000888                      1549  	.DWLopt286
                              1550  	;;LINE 947, 1, 1
00000888                      1551  	.DWLopt299
00000888  1C                  1552  		exthu	D0
00000889  FCCD669EA016        1553  		mov	379625062,D1
0000088f  F621                1554  		udf02	D0,D1
                              1555  	;;LINE 951, 1, 1
00000891                      1556  	.DWLopt300
00000891  FCAC00000000      @ 1557  		movhu	(_gus_Uout_real),D0
                              1558  	;;LINE 947, 0, 1
00000897                      1559  	.DWLopt301
00000897  FC8500000000      @ 1560  		mov	D1,(_gul_percent_pwm_unit)
                              1561  	;;LINE 951, 0, 1
0000089d                      1562  	.DWLopt302
0000089d  F614                1563  		udf01	D1,D0
0000089f  4200                1564  		mov	D0,(SP)
                              1565  	;;LINE 953, 1, 1
000008a1                      1566  	.DWLopt303
000008a1  FCAC00000000      @ 1567  		movhu	(_ram_para+162),D0
000008a7  A000                1568  		cmp	0,D0
000008a9  C807DC00000000    @ 1569  		bne	L00145
                              1570  	;;LINE 955, 1, 1
000008b0                      1571  	.DWLopt304
000008b0  FCAC00000000      @ 1572  		movhu	(_flg_PWM),D0
000008b6  FAE0FFF7            1573  		and	63487,D0
000008ba  DC00000000        @ 1574  		bra	Lopt000005
000008bf                      1575  	L00145
                              1576  	;;LINE 960, 1, 1
000008bf                      1577  	.DWLopt305
000008bf  FCAC00000000      @ 1578  		movhu	(_flg_PWM),D0
000008c5  FAEC0008            1579  		btst	2048,D0
000008c9  C807DC00000000    @ 1580  		bne	L00148
                              1581  	;;LINE 963, 1, 1
000008d0                      1582  	.DWLopt306
000008d0  F8BD02              1583  		movhu	(2,SP),D1
000008d3  FCAC00000000      @ 1584  		movhu	(_gus_max_percent_gu),D0
000008d9  A1                  1585  		cmp	D0,D1
000008da  C107DC00000000    @ 1586  		ble	L00147
                              1587  	;;LINE 965, 1, 1
000008e1                      1588  	.DWLopt307
000008e1  FCAC00000000      @ 1589  		movhu	(_flg_PWM),D0
                              1590  	;;LINE 966, 1, 1
000008e7                      1591  	.DWLopt308
000008e7  FAE0FFFB            1592  		and	64511,D0
000008eb  1C                  1593  		exthu	D0
000008ec  FAE40002            1594  		or	512,D0
                              1595  	;;LINE 0, 0, 1
000008f0                      1596  	.DWLopt309
000008f0  DC00000000        @ 1597  		bra	Lopt000005
000008f5                      1598  	L00148
                              1599  	;;LINE 972, 1, 1
000008f5                      1600  	.DWLopt310
000008f5  F8BD02              1601  		movhu	(2,SP),D1
000008f8  FCAC00000000      @ 1602  		movhu	(_gus_max_percent_gu),D0
000008fe  FAC038FF            1603  		add	-200,D0
00000902  A1                  1604  		cmp	D0,D1
00000903  C007DC00000000    @ 1605  		bge	L00147
                              1606  	;;LINE 974, 1, 1
0000090a                      1607  	.DWLopt311
0000090a  FCAC00000000      @ 1608  		movhu	(_flg_PWM),D0
                              1609  	;;LINE 975, 1, 1
00000910                      1610  	.DWLopt312
00000910  FAE0FFFD            1611  		and	65023,D0
00000914  1C                  1612  		exthu	D0
00000915  FAE40004            1613  		or	1024,D0
00000919                      1614  	Lopt000005
                              1615  	;;LINE 975, 0, 1
00000919                      1616  	.DWLopt313
                              1617  	;;LINE 955, 0, 1
00000919                      1618  	.DWLopt314
                              1619  	;;LINE 966, 0, 1
00000919                      1620  	.DWLopt315
00000919  FC8300000000      @ 1621  		movhu	D0,(_flg_PWM)
0000091f                      1622  	L00147
                              1623  	;;LINE 980, 1, 1
0000091f                      1624  	.DWLopt316
0000091f  FCAC00000000      @ 1625  		movhu	(_flg_PWM),D0
00000925  FAEC0008            1626  		btst	2048,D0
00000929  C907DC00000000    @ 1627  		beq	L00430
00000930  FAEC0004            1628  		btst	1024,D0
00000934  C907DC00000000    @ 1629  		beq	L00429
0000093b                      1630  	L00430
0000093b  FCAC00000000      @ 1631  		movhu	(_flg_PWM),D0
00000941  FAEC0002            1632  		btst	512,D0
00000945  C907DC00000000    @ 1633  		beq	L00153
0000094c                      1634  	L00429
                              1635  	;;LINE 983, 1, 1
0000094c                      1636  	.DWLopt317
0000094c  F8BD02              1637  		movhu	(2,SP),D1
0000094f  FCAC00000000      @ 1638  		movhu	(_gus_max_percent),D0
00000955  A1                  1639  		cmp	D0,D1
00000956  C107DC00000000    @ 1640  		ble	L00154
                              1641  	;;LINE 985, 1, 1
0000095d                      1642  	.DWLopt318
0000095d  F89302              1643  		movhu	D0,(2,SP)
00000960                      1644  	L00154
                              1645  	;;LINE 988, 1, 1
00000960                      1646  	.DWLopt319
00000960  F8BD02              1647  		movhu	(2,SP),D1
00000963  FCAC00000000      @ 1648  		movhu	(_gus_min_percent),D0
00000969  A1                  1649  		cmp	D0,D1
0000096a  C007DC00000000    @ 1650  		bge	L00156
                              1651  	;;LINE 990, 1, 1
00000971                      1652  	.DWLopt320
00000971  F89302              1653  		movhu	D0,(2,SP)
00000974                      1654  	L00156
                              1655  	;;LINE 993, 1, 1
00000974                      1656  	.DWLopt321
00000974  F8BC02              1657  		movhu	(2,SP),D0
                              1658  	;;LINE 995, 1, 1
00000977                      1659  	.DWLopt322
00000977  F8BD02              1660  		movhu	(2,SP),D1
                              1661  	;;LINE 993, 0, 1
0000097a                      1662  	.DWLopt323
0000097a  FC8300000000      @ 1663  		movhu	D0,(_gus_percent_k)
                              1664  	;;LINE 997, 1, 1
00000980                      1665  	.DWLopt324
00000980  FCAC00000000      @ 1666  		movhu	(_gus_peak_pwm),D0
                              1667  	;;LINE 998, 1, 1
00000986                      1668  	.DWLopt325
00000986  DC00000000        @ 1669  		bra	Lopt000004
0000098b                      1670  	L00153
                              1671  	;;LINE 1003, 1, 1
0000098b                      1672  	.DWLopt326
0000098b  F8BD02              1673  		movhu	(2,SP),D1
0000098e  FCAC00000000      @ 1674  		movhu	(_gus_max_percent_gu),D0
00000994  A1                  1675  		cmp	D0,D1
00000995  C107DC00000000    @ 1676  		ble	L00162
                              1677  	;;LINE 1005, 1, 1
0000099c                      1678  	.DWLopt327
0000099c  F89302              1679  		movhu	D0,(2,SP)
0000099f                      1680  	L00162
                              1681  	;;LINE 1008, 1, 1
0000099f                      1682  	.DWLopt328
0000099f  F8BC02              1683  		movhu	(2,SP),D0
                              1684  	;;LINE 1010, 1, 1
000009a2                      1685  	.DWLopt329
000009a2  F8BD02              1686  		movhu	(2,SP),D1
                              1687  	;;LINE 1008, 0, 1
000009a5                      1688  	.DWLopt330
000009a5  FC8300000000      @ 1689  		movhu	D0,(_gus_percent_k)
                              1690  	;;LINE 1012, 1, 1
000009ab                      1691  	.DWLopt331
000009ab  FCAC00000000      @ 1692  		movhu	(_gus_half_pwm),D0
000009b1                      1693  	Lopt000004
                              1694  	;;LINE 1012, 0, 1
000009b1                      1695  	.DWLopt332
                              1696  	;;LINE 997, 0, 1
000009b1                      1697  	.DWLopt333
000009b1  F614                1698  		udf01	D1,D0
000009b3  F8C40A              1699  		lsr	10,D0
                              1700  	;;LINE 1013, 1, 1
000009b6                      1701  	.DWLopt334
                              1702  	;;LINE 998, 0, 1
000009b6                      1703  	.DWLopt335
000009b6  FC8300000000      @ 1704  		movhu	D0,(_gus_percent_pwm_buf)
                              1705  	;;LINE 1021, 1, 1
000009bc                      1706  	.DWLopt336
000009bc  FCAD00000000      @ 1707  		movhu	(_gus_Udc_for_disp),D1
000009c2  FCAC00000000      @ 1708  		movhu	(_gus_percent_k),D0
000009c8  F611                1709  		udf01	D0,D1
000009ca  84                  1710  		mov	D1,D0
000009cb  F914B5              1711  		udfu01	181,D0
000009ce  F8C40C              1712  		lsr	12,D0
000009d1  F8C408              1713  		lsr	8,D0
000009d4  4200                1714  		mov	D0,(SP)
                              1715  	;;LINE 1022, 1, 1
000009d6                      1716  	.DWLopt337
000009d6  FC8300000000      @ 1717  		movhu	D0,(_gus_Uout_for_disp)
                              1718  	;;LINE 1031, 1, 1
000009dc                      1719  	.DWLopt338
000009dc  FCAC00000000      @ 1720  		movhu	(_flg_theta),D0
000009e2  F8EC02              1721  		btst	2,D0
000009e5  C807DC00000000    @ 1722  		bne	L00166
                              1723  	;;LINE 1033, 1, 1
000009ec                      1724  	.DWLopt339
000009ec  00                  1725  		clr	D0
000009ed  FC8100000000      @ 1726  		mov	D0,(_rate_theta_buf)
000009f3  DC00000000        @ 1727  		bra	L00169
000009f8                      1728  	L00166
                              1729  	;;LINE 1038, 1, 1
000009f8                      1730  	.DWLopt340
000009f8  FCAD00000000      @ 1731  		movhu	(_gus_Hall_freq),D1
000009fe  FCAC00000000      @ 1732  		movhu	(_gus_rate_per),D0
00000a04  F611                1733  		udf01	D0,D1
00000a06  FC8500000000      @ 1734  		mov	D1,(_rate_theta_buf)
00000a0c                      1735  	L00169
                              1736  	;;LINE 1044, 1, 1
00000a0c                      1737  	.DWLopt341
00000a0c  FCAC00000000      @ 1738  		movhu	(_flg_PWM),D0
00000a12  FAE40020            1739  		or	8192,D0
00000a16  FC8300000000      @ 1740  		movhu	D0,(_flg_PWM)
                              1741  	;;LINE 1045, 1, 1
00000a1c                      1742  	.DWLopt342
00000a1c  DE0004              1743  		retf
00000a1f                      1744  	.LDW33
                              1745  		FUNCTION	_0calc_percent_theta,.LDW33-_0calc_percent_theta
                              1746  		FUNCTION	_calc_percent_theta,.LDW33-_calc_percent_theta
                              1747  	.debug_MN_rsc		SECTION
                              1748  	;; Resource Information
                              1749  	;; resource_list  1
0000009f                      1750  	.LDW318
                              1751  		;; loc_data  1
0000009f  00000000          + 1752  		DD	.DWLopt282	;; address
000000a3  01                  1753  		DC	0x1	;;   size of loc_exp
000000a4  51                  1754  		DC	0x51	;;   DW_OP_reg1
                              1755  		;; loc_data  2
000000a5  00000000          + 1756  		DD	.DWLopt283	;; address
000000a9  01                  1757  		DC	0x1	;;   size of loc_exp
000000aa  E1                  1758  		DC	0xe1	;;   DW_OP_MN_void
                              1759  		;; loc_data  3
000000ab  00000000          + 1760  		DD	.DWLopt284	;; address
000000af  01                  1761  		DC	0x1	;;   size of loc_exp
000000b0  50                  1762  		DC	0x50	;;   DW_OP_reg0
                              1763  		;; loc_data  4
000000b1  00000000          + 1764  		DD	.DWLopt285	;; address
000000b5  01                  1765  		DC	0x1	;;   size of loc_exp
000000b6  50                  1766  		DC	0x50	;;   DW_OP_reg0
                              1767  		;; loc_data  5
000000b7  00000000          + 1768  		DD	.DWLopt286	;; address
000000bb  01                  1769  		DC	0x1	;;   size of loc_exp
000000bc  E1                  1770  		DC	0xe1	;;   DW_OP_MN_void
                              1771  		;; end
000000bd  00000000            1772  		DD	0x0
000000c1  00                  1773  		DC	0x0
                              1774  	;; End of Resource Information
                              1775  	.debug_frame		SECTION
                              1776  	;; Frame Description Entry(FDE)
000000c0  00000000          + 1777  		DD	.LDW372-.LDW371	;; length
000000c4                      1778  	.LDW371
000000c4  00000000          + 1779  		DD	.LFR_TOP	;; CIE_pointer
000000c8  00000000          + 1780  		DD	_calc_percent_theta	;; initial location
000000cc  00000000          + 1781  		DD	.LDW33-_calc_percent_theta	;; address_range
                              1782  		;; Prologue
000000d0  02                  1783  		DC	0x2	;; DW_CFA_advance_loc1(_0calc_percent_theta-_calc_percent_theta)
000000d1  00                + 1784  		DC	_0calc_percent_theta-_calc_percent_theta
000000d2  0E04                1785  		DC	0xe,0x4	;; DW_CFA_def_cfa_offset(4)
                              1786  		;; Epilogue
000000d4                      1787  	.LDW372
                              1788  	;; End of Frame Description Entry
                              1789  	;;FUNC E _calc_percent_theta
                              1790  	;;FUNC S _calc_comp_val
                              1791  	.text		SECTION
                              1792  		GLOBAL	_calc_comp_val
                              1793  		GLOBAL	_0calc_comp_val
00000a1f                      1794  	_calc_comp_val
                              1795  	;;PROLOG 0xc
00000a1f  CF80                1796  		movm	[D2],(SP)
00000a21  F8FEF8              1797  		add	-8,SP
                              1798  	_0calc_comp_val		FUNCINFO _calc_comp_val,12,[D2]
                              1799  	;;LINE 1057, 1, 1
00000a24                      1800  	.DWLopt346
00000a24  FCA500000000      @ 1801  		mov	(_theta),D1
00000a2a  FCA400000000      @ 1802  		mov	(_rate_theta),D0
                              1803  	;;LINE 1058, 1, 1
00000a30                      1804  	.DWLopt347
00000a30  2E100E              1805  		mov	3600,D2
                              1806  	;;LINE 1057, 0, 1
00000a33                      1807  	.DWLopt348
00000a33  E1                  1808  		add	D0,D1
00000a34  FC8500000000      @ 1809  		mov	D1,(_theta)
                              1810  	;;LINE 1058, 0, 1
00000a3a                      1811  	.DWLopt349
00000a3a  FCAC00000000      @ 1812  		movhu	(_theta+2),D0
00000a40  A8                  1813  		cmp	D2,D0
00000a41  C207DC00000000    @ 1814  		blt	L00175
                              1815  	;;LINE 0, 0, 1
00000a48                      1816  	.DWLopt350
00000a48  DB                  1817  		setlb
                              1818  	;;LINE 1060, 1, 1
00000a49                      1819  	.DWLopt351
00000a49  FCAC00000000      @ 1820  		movhu	(_theta+2),D0
00000a4f  F108                1821  		sub	D2,D0
00000a51  FC8300000000      @ 1822  		movhu	D0,(_theta+2)
                              1823  	;;LINE 1058, 1, 1
00000a57                      1824  	.DWLopt352
00000a57  1C                  1825  		exthu	D0
00000a58  A8                  1826  		cmp	D2,D0
00000a59  D2                  1827  		lge
00000a5a                      1828  	L00175
                              1829  	;;LINE 1063, 1, 1
00000a5a                      1830  	.DWLopt353
00000a5a  FCA400000000      @ 1831  		mov	(_theta),D0
00000a60  4204                1832  		mov	D0,(4,SP)
                              1833  	;;LINE 1064, 1, 1
00000a62                      1834  	.DWLopt354
00000a62  F8BD06              1835  		movhu	(6,SP),D1
00000a65  FCAC00000000      @ 1836  		movhu	(_gus_phase_adv_degree),D0
00000a6b  E4                  1837  		add	D1,D0
00000a6c  F89306              1838  		movhu	D0,(6,SP)
                              1839  	;;LINE 1065, 1, 1
00000a6f                      1840  	.DWLopt355
00000a6f  1C                  1841  		exthu	D0
00000a70  A8                  1842  		cmp	D2,D0
00000a71  C207DC00000000    @ 1843  		blt	L00179
                              1844  	;;LINE 0, 0, 1
00000a78                      1845  	.DWLopt356
00000a78  DB                  1846  		setlb
                              1847  	;;LINE 1067, 1, 1
00000a79                      1848  	.DWLopt357
00000a79  F8BC06              1849  		movhu	(6,SP),D0
00000a7c  F108                1850  		sub	D2,D0
00000a7e  F89306              1851  		movhu	D0,(6,SP)
                              1852  	;;LINE 1065, 1, 1
00000a81                      1853  	.DWLopt358
00000a81  1C                  1854  		exthu	D0
00000a82  A8                  1855  		cmp	D2,D0
00000a83  D2                  1856  		lge
00000a84                      1857  	L00179
                              1858  	;;LINE 1070, 1, 1
00000a84                      1859  	.DWLopt359
00000a84  FCAC00000000      @ 1860  		movhu	(_flg_PWM),D0
00000a8a  FAEC0008            1861  		btst	2048,D0
00000a8e  C907DC00000000    @ 1862  		beq	L00181
                              1863  	;;LINE 1072, 1, 1
00000a95                      1864  	.DWLopt360
00000a95  F8BC06              1865  		movhu	(6,SP),D0
00000a98                      1866  	.DWLopt344
                              1867  	;;LINE 1073, 1, 1
00000a98                      1868  	.DWLopt361
00000a98  DD000000000000    @ 1869  		call	_0get_tai_comp_value
00000a9f  FC8300000000      @ 1870  		movhu	D0,(_gus_val_a)
                              1871  	;;LINE 1075, 1, 1
00000aa5                      1872  	.DWLopt362
00000aa5  F8BC06              1873  		movhu	(6,SP),D0
                              1874  	;;LINE 1076, 1, 1
00000aa8                      1875  	.DWLopt363
00000aa8  FAC06009            1876  		add	2400,D0
00000aac  1C                  1877  		exthu	D0
00000aad  DD000000000000    @ 1878  		call	_0get_tai_comp_value
00000ab4  FC8300000000      @ 1879  		movhu	D0,(_gus_val_b)
                              1880  	;;LINE 1078, 1, 1
00000aba                      1881  	.DWLopt364
00000aba  F8BC06              1882  		movhu	(6,SP),D0
                              1883  	;;LINE 1079, 1, 1
00000abd                      1884  	.DWLopt365
00000abd  FAC0B004            1885  		add	1200,D0
00000ac1  1C                  1886  		exthu	D0
00000ac2  DD000000000000    @ 1887  		call	_0get_tai_comp_value
00000ac9  DC00000000        @ 1888  		bra	Lopt000006
00000ace                      1889  	L00181
                              1890  	;;LINE 1083, 1, 1
00000ace                      1891  	.DWLopt366
00000ace  F8BC06              1892  		movhu	(6,SP),D0
00000ad1                      1893  	.DWLopt345
                              1894  	;;LINE 1084, 1, 1
00000ad1                      1895  	.DWLopt367
00000ad1  DD000000000000    @ 1896  		call	_0get_svpwm_comp_value
00000ad8  FC8300000000      @ 1897  		movhu	D0,(_gus_val_a)
                              1898  	;;LINE 1086, 1, 1
00000ade                      1899  	.DWLopt368
00000ade  F8BC06              1900  		movhu	(6,SP),D0
                              1901  	;;LINE 1087, 1, 1
00000ae1                      1902  	.DWLopt369
00000ae1  FAC06009            1903  		add	2400,D0
00000ae5  1C                  1904  		exthu	D0
00000ae6  DD000000000000    @ 1905  		call	_0get_svpwm_comp_value
00000aed  FC8300000000      @ 1906  		movhu	D0,(_gus_val_b)
                              1907  	;;LINE 1089, 1, 1
00000af3                      1908  	.DWLopt370
00000af3  F8BC06              1909  		movhu	(6,SP),D0
                              1910  	;;LINE 1090, 1, 1
00000af6                      1911  	.DWLopt371
00000af6  FAC0B004            1912  		add	1200,D0
00000afa  1C                  1913  		exthu	D0
00000afb  DD000000000000    @ 1914  		call	_0get_svpwm_comp_value
00000b02                      1915  	Lopt000006
                              1916  	;;LINE 1090, 0, 1
00000b02                      1917  	.DWLopt372
                              1918  	;;LINE 1079, 0, 1
00000b02                      1919  	.DWLopt373
00000b02  FC8300000000      @ 1920  		movhu	D0,(_gus_val_c)
                              1921  	;;LINE 1092, 1, 1
00000b08                      1922  	.DWLopt374
00000b08  DF800C              1923  		ret
00000b0b                      1924  	.LDW34
                              1925  		FUNCTION	_0calc_comp_val,.LDW34-_0calc_comp_val
                              1926  		FUNCTION	_calc_comp_val,.LDW34-_calc_comp_val
                              1927  	.debug_MN_rsc		SECTION
                              1928  	;; Resource Information
                              1929  	;; resource_list  1
000000c2                      1930  	.LDW373
                              1931  		;; loc_data  1
000000c2  00000000          + 1932  		DD	.DWLopt344	;; address
000000c6  01                  1933  		DC	0x1	;;   size of loc_exp
000000c7  50                  1934  		DC	0x50	;;   DW_OP_reg0
                              1935  		;; loc_data  2
000000c8  00000000          + 1936  		DD	.DWLopt345	;; address
000000cc  01                  1937  		DC	0x1	;;   size of loc_exp
000000cd  50                  1938  		DC	0x50	;;   DW_OP_reg0
                              1939  		;; end
000000ce  00000000            1940  		DD	0x0
000000d2  00                  1941  		DC	0x0
                              1942  	;; End of Resource Information
                              1943  	.debug_frame		SECTION
                              1944  	;; Frame Description Entry(FDE)
000000d4  00000000          + 1945  		DD	.LDW404-.LDW403	;; length
000000d8                      1946  	.LDW403
000000d8  00000000          + 1947  		DD	.LFR_TOP	;; CIE_pointer
000000dc  00000000          + 1948  		DD	_calc_comp_val	;; initial location
000000e0  00000000          + 1949  		DD	.LDW34-_calc_comp_val	;; address_range
                              1950  		;; Prologue
000000e4  02                  1951  		DC	0x2	;; DW_CFA_advance_loc1(_0calc_comp_val-_calc_comp_val)
000000e5  00                + 1952  		DC	_0calc_comp_val-_calc_comp_val
000000e6  0E0C                1953  		DC	0xe,0xc	;; DW_CFA_def_cfa_offset(12)
000000e8  8201                1954  		DC	0x82,0x1	;; DW_CFA_offset(D2,1)
                              1955  		;; Epilogue
000000ea                      1956  	.LDW404
                              1957  	;; End of Frame Description Entry
                              1958  	;;FUNC E _calc_comp_val
                              1959  	;;FUNC S _get_sin_value
                              1960  	.text		SECTION
                              1961  		GLOBAL	_get_sin_value
                              1962  		GLOBAL	_0get_sin_value
00000b0b                      1963  	_get_sin_value
                              1964  	;;PROLOG 0x8
00000b0b  CFC0                1965  		movm	[D2,D3],(SP)
                              1966  	_0get_sin_value		FUNCINFO _get_sin_value,8,[D2,D3]
00000b0d                      1967  	.DWLopt376
                              1968  	;;LINE 0, 0, 1
00000b0d                      1969  	.DWLopt392
00000b0d  82                  1970  		mov	D0,D2
00000b0e                      1971  	.DWLopt379
00000b0e                      1972  	.DWLopt377
                              1973  	;;LINE 1098, 1, 1
00000b0e                      1974  	.DWLopt393
00000b0e  1C                  1975  		exthu	D0
00000b0f  2F100E              1976  		mov	3600,D3
00000b12  AC                  1977  		cmp	D3,D0
00000b13  C207DC00000000    @ 1978  		blt	L00198
                              1979  	;;LINE 0, 0, 1
00000b1a                      1980  	.DWLopt394
00000b1a  DB                  1981  		setlb
                              1982  	;;LINE 1100, 1, 1
00000b1b                      1983  	.DWLopt395
00000b1b  82                  1984  		mov	D0,D2
00000b1c  F10E                1985  		sub	D3,D2
00000b1e                      1986  	.DWLopt380
                              1987  	;;LINE 1098, 1, 1
00000b1e                      1988  	.DWLopt396
00000b1e  88                  1989  		mov	D2,D0
00000b1f  1C                  1990  		exthu	D0
00000b20  AC                  1991  		cmp	D3,D0
00000b21  D2                  1992  		lge
00000b22                      1993  	L00198
                              1994  	;;LINE 1103, 1, 1
00000b22                      1995  	.DWLopt397
00000b22  FAC88403            1996  		cmp	900,D0
00000b26  C007DC00000000    @ 1997  		bge	L00200
                              1998  	;;LINE 1105, 1, 1
00000b2d                      1999  	.DWLopt398
00000b2d  1E                  2000  		exthu	D2
00000b2e  88                  2001  		mov	D2,D0
00000b2f                      2002  	.DWLopt381
00000b2f  E0                  2003  		add	D0,D0
00000b30  FCDC00000000      @ 2004  		mov	_sin_table,A0
00000b36  F480                2005  		movhu	(D0,A0),D0
00000b38                      2006  	.DWLopt388
00000b38  DC00000000        @ 2007  		bra	L00203
00000b3d                      2008  	L00200
                              2009  	;;LINE 1107, 1, 1
00000b3d                      2010  	.DWLopt399
00000b3d  2D0807              2011  		mov	1800,D1
00000b40  A4                  2012  		cmp	D1,D0
00000b41  C007DC00000000    @ 2013  		bge	L00204
                              2014  	;;LINE 1109, 1, 1
00000b48                      2015  	.DWLopt400
00000b48  F101                2016  		sub	D0,D1
00000b4a                      2017  	.DWLopt382
                              2018  	;;LINE 1110, 1, 1
00000b4a                      2019  	.DWLopt401
00000b4a  1D                  2020  		exthu	D1
00000b4b                      2021  	.DWLopt383
00000b4b  E5                  2022  		add	D1,D1
00000b4c  FCDC00000000      @ 2023  		mov	_sin_table,A0
00000b52  F484                2024  		movhu	(D1,A0),D0
00000b54                      2025  	.DWLopt389
00000b54  DC00000000        @ 2026  		bra	L00203
00000b59                      2027  	L00204
                              2028  	;;LINE 1112, 1, 1
00000b59                      2029  	.DWLopt402
00000b59  FAC88C0A            2030  		cmp	2700,D0
00000b5d  C007DC00000000    @ 2031  		bge	L00206
                              2032  	;;LINE 1114, 1, 1
00000b64                      2033  	.DWLopt403
00000b64  F104                2034  		sub	D1,D0
00000b66                      2035  	.DWLopt384
                              2036  	;;LINE 1115, 1, 1
00000b66                      2037  	.DWLopt404
00000b66  1C                  2038  		exthu	D0
00000b67                      2039  	.DWLopt385
00000b67                      2040  	.DWLopt378
00000b67  E0                  2041  		add	D0,D0
00000b68  FCDC00000000      @ 2042  		mov	_sin_table,A0
00000b6e  F480                2043  		movhu	(D0,A0),D0
00000b70  DC00000000        @ 2044  		bra	Lopt000007
00000b75                      2045  	L00206
                              2046  	;;LINE 1119, 1, 1
00000b75                      2047  	.DWLopt405
00000b75  F103                2048  		sub	D0,D3
00000b77                      2049  	.DWLopt386
                              2050  	;;LINE 1120, 1, 1
00000b77                      2051  	.DWLopt406
00000b77  1F                  2052  		exthu	D3
00000b78                      2053  	.DWLopt387
00000b78  8D                  2054  		mov	D3,D1
00000b79  ED                  2055  		add	D3,D1
00000b7a  FCDC00000000      @ 2056  		mov	_sin_table,A0
00000b80  F484                2057  		movhu	(D1,A0),D0
00000b82                      2058  	Lopt000007
                              2059  	;;LINE 1120, 0, 1
00000b82                      2060  	.DWLopt407
                              2061  	;;LINE 1115, 0, 1
00000b82                      2062  	.DWLopt408
00000b82  18                  2063  		exth	D0
00000b83  F230                2064  		not	D0
00000b85  40                  2065  		inc	D0
00000b86                      2066  	.DWLopt390
00000b86                      2067  	L00203
                              2068  	;;LINE 1123, 1, 1
00000b86                      2069  	.DWLopt409
00000b86  18                  2070  		exth	D0
00000b87                      2071  	.DWLopt391
                              2072  	;;LINE 1124, 1, 1
00000b87                      2073  	.DWLopt410
00000b87  DEC008              2074  		retf
00000b8a                      2075  	.LDW35
                              2076  		FUNCTION	_0get_sin_value,.LDW35-_0get_sin_value
                              2077  		FUNCTION	_get_sin_value,.LDW35-_get_sin_value
                              2078  	.debug_MN_rsc		SECTION
                              2079  	;; Resource Information
                              2080  	;; resource_list  1
000000d3                      2081  	.LDW405
                              2082  		;; loc_data  1
000000d3  00000000          + 2083  		DD	.DWLopt388	;; address
000000d7  01                  2084  		DC	0x1	;;   size of loc_exp
000000d8  50                  2085  		DC	0x50	;;   DW_OP_reg0
                              2086  		;; loc_data  2
000000d9  00000000          + 2087  		DD	.DWLopt389	;; address
000000dd  01                  2088  		DC	0x1	;;   size of loc_exp
000000de  50                  2089  		DC	0x50	;;   DW_OP_reg0
                              2090  		;; loc_data  3
000000df  00000000          + 2091  		DD	.DWLopt390	;; address
000000e3  01                  2092  		DC	0x1	;;   size of loc_exp
000000e4  50                  2093  		DC	0x50	;;   DW_OP_reg0
                              2094  		;; loc_data  4
000000e5  00000000          + 2095  		DD	.DWLopt391	;; address
000000e9  01                  2096  		DC	0x1	;;   size of loc_exp
000000ea  E1                  2097  		DC	0xe1	;;   DW_OP_MN_void
                              2098  		;; end
000000eb  00000000            2099  		DD	0x0
000000ef  00                  2100  		DC	0x0
                              2101  	;; resource_list  2
000000f0                      2102  	.LDW414
                              2103  		;; loc_data  1
000000f0  00000000          + 2104  		DD	.DWLopt376	;; address
000000f4  01                  2105  		DC	0x1	;;   size of loc_exp
000000f5  50                  2106  		DC	0x50	;;   DW_OP_reg0
                              2107  		;; loc_data  2
000000f6  00000000          + 2108  		DD	.DWLopt377	;; address
000000fa  01                  2109  		DC	0x1	;;   size of loc_exp
000000fb  E1                  2110  		DC	0xe1	;;   DW_OP_MN_void
                              2111  		;; loc_data  3
000000fc  00000000          + 2112  		DD	.DWLopt378	;; address
00000100  01                  2113  		DC	0x1	;;   size of loc_exp
00000101  E1                  2114  		DC	0xe1	;;   DW_OP_MN_void
                              2115  		;; loc_data  4
00000102  00000000          + 2116  		DD	.DWLopt379	;; address
00000106  01                  2117  		DC	0x1	;;   size of loc_exp
00000107  52                  2118  		DC	0x52	;;   DW_OP_reg2
                              2119  		;; loc_data  5
00000108  00000000          + 2120  		DD	.DWLopt380	;; address
0000010c  01                  2121  		DC	0x1	;;   size of loc_exp
0000010d  52                  2122  		DC	0x52	;;   DW_OP_reg2
                              2123  		;; loc_data  6
0000010e  00000000          + 2124  		DD	.DWLopt381	;; address
00000112  01                  2125  		DC	0x1	;;   size of loc_exp
00000113  E1                  2126  		DC	0xe1	;;   DW_OP_MN_void
                              2127  		;; loc_data  7
00000114  00000000          + 2128  		DD	.DWLopt382	;; address
00000118  01                  2129  		DC	0x1	;;   size of loc_exp
00000119  51                  2130  		DC	0x51	;;   DW_OP_reg1
                              2131  		;; loc_data  8
0000011a  00000000          + 2132  		DD	.DWLopt383	;; address
0000011e  01                  2133  		DC	0x1	;;   size of loc_exp
0000011f  E1                  2134  		DC	0xe1	;;   DW_OP_MN_void
                              2135  		;; loc_data  9
00000120  00000000          + 2136  		DD	.DWLopt384	;; address
00000124  01                  2137  		DC	0x1	;;   size of loc_exp
00000125  50                  2138  		DC	0x50	;;   DW_OP_reg0
                              2139  		;; loc_data  10
00000126  00000000          + 2140  		DD	.DWLopt385	;; address
0000012a  01                  2141  		DC	0x1	;;   size of loc_exp
0000012b  E1                  2142  		DC	0xe1	;;   DW_OP_MN_void
                              2143  		;; loc_data  11
0000012c  00000000          + 2144  		DD	.DWLopt386	;; address
00000130  01                  2145  		DC	0x1	;;   size of loc_exp
00000131  53                  2146  		DC	0x53	;;   DW_OP_reg3
                              2147  		;; loc_data  12
00000132  00000000          + 2148  		DD	.DWLopt387	;; address
00000136  01                  2149  		DC	0x1	;;   size of loc_exp
00000137  E1                  2150  		DC	0xe1	;;   DW_OP_MN_void
                              2151  		;; end
00000138  00000000            2152  		DD	0x0
0000013c  00                  2153  		DC	0x0
                              2154  	;; End of Resource Information
                              2155  	.debug_frame		SECTION
                              2156  	;; Frame Description Entry(FDE)
000000ea  00000000          + 2157  		DD	.LDW445-.LDW444	;; length
000000ee                      2158  	.LDW444
000000ee  00000000          + 2159  		DD	.LFR_TOP	;; CIE_pointer
000000f2  00000000          + 2160  		DD	_get_sin_value	;; initial location
000000f6  00000000          + 2161  		DD	.LDW35-_get_sin_value	;; address_range
                              2162  		;; Prologue
000000fa  02                  2163  		DC	0x2	;; DW_CFA_advance_loc1(_0get_sin_value-_get_sin_value)
000000fb  00                + 2164  		DC	_0get_sin_value-_get_sin_value
000000fc  0E08                2165  		DC	0xe,0x8	;; DW_CFA_def_cfa_offset(8)
000000fe  8201                2166  		DC	0x82,0x1	;; DW_CFA_offset(D2,1)
00000100  8302                2167  		DC	0x83,0x2	;; DW_CFA_offset(D3,2)
                              2168  		;; Epilogue
00000102                      2169  	.LDW445
                              2170  	;; End of Frame Description Entry
                              2171  	;;FUNC E _get_sin_value
                              2172  	;;FUNC S _get_tai_comp_value
                              2173  	.text		SECTION
                              2174  		GLOBAL	_get_tai_comp_value
                              2175  		GLOBAL	_0get_tai_comp_value
00000b8a                      2176  	_get_tai_comp_value
                              2177  	;;PROLOG 0x8
00000b8a  F8FEF8              2178  		add	-8,SP
                              2179  	_0get_tai_comp_value		FUNCINFO _get_tai_comp_value,8,[]
00000b8d                      2180  	.DWLopt413
                              2181  	;;LINE 1130, 1, 1
00000b8d                      2182  	.DWLopt430
00000b8d  1C                  2183  		exthu	D0
00000b8e                      2184  	.DWLopt414
00000b8e  2D100E              2185  		mov	3600,D1
00000b91  A4                  2186  		cmp	D1,D0
00000b92  C207DC00000000    @ 2187  		blt	L00212
                              2188  	;;LINE 0, 0, 1
00000b99                      2189  	.DWLopt431
00000b99  DB                  2190  		setlb
                              2191  	;;LINE 1132, 1, 1
00000b9a                      2192  	.DWLopt432
00000b9a  F104                2193  		sub	D1,D0
00000b9c                      2194  	.DWLopt420
                              2195  	;;LINE 1130, 1, 1
00000b9c                      2196  	.DWLopt433
00000b9c  1C                  2197  		exthu	D0
00000b9d                      2198  	.DWLopt421
00000b9d                      2199  	.DWLopt415
00000b9d  A4                  2200  		cmp	D1,D0
00000b9e  D2                  2201  		lge
00000b9f                      2202  	L00212
                              2203  	;;LINE 1135, 1, 1
00000b9f                      2204  	.DWLopt434
00000b9f  FAC85802            2205  		cmp	600,D0
00000ba3  C007DC00000000    @ 2206  		bge	L00214
                              2207  	;;LINE 1137, 1, 1
00000baa                      2208  	.DWLopt435
00000baa  FAC02C01            2209  		add	300,D0
00000bae                      2210  	.DWLopt422
                              2211  	;;LINE 1138, 1, 1
00000bae                      2212  	.DWLopt436
00000bae  1C                  2213  		exthu	D0
00000baf                      2214  	.DWLopt423
00000baf                      2215  	.DWLopt416
00000baf  CD00000000        + 2216  		call	_0get_sin_value
                              2217  	;;LINE 1139, 1, 1
00000bb4                      2218  	.DWLopt437
00000bb4  FCAD00000000      @ 2219  		movhu	(_gus_percent_pwm),D1
                              2220  	;;LINE 1138, 0, 1
00000bba                      2221  	.DWLopt438
00000bba  18                  2222  		exth	D0
                              2223  	;;LINE 1139, 0, 1
00000bbb                      2224  	.DWLopt439
00000bbb  F601                2225  		udf00	D0,D1
00000bbd  4604                2226  		mov	D1,(4,SP)
                              2227  	;;LINE 1141, 1, 1
00000bbf                      2228  	.DWLopt440
00000bbf  F8BD06              2229  		movhu	(6,SP),D1
00000bc2  FCAC00000000      @ 2230  		movhu	(_gss_min_pwm),D0
00000bc8  19                  2231  		exth	D1
00000bc9  18                  2232  		exth	D0
00000bca  A1                  2233  		cmp	D0,D1
00000bcb  C007DC00000000    @ 2234  		bge	L00219
                              2235  	;;LINE 1143, 1, 1
00000bd2                      2236  	.DWLopt441
00000bd2  FCAC00000000      @ 2237  		movhu	(_gss_min_pwm),D0
00000bd8  F89306              2238  		movhu	D0,(6,SP)
00000bdb                      2239  	L00219
                              2240  	;;LINE 1145, 1, 1
00000bdb                      2241  	.DWLopt442
00000bdb  F8BD06              2242  		movhu	(6,SP),D1
00000bde  FCAC00000000      @ 2243  		movhu	(_gss_max_pwm),D0
00000be4  19                  2244  		exth	D1
00000be5  18                  2245  		exth	D0
00000be6  A1                  2246  		cmp	D0,D1
00000be7  C307DC00000000    @ 2247  		bgt	Lcb0032
00000bee  DC00000000        @ 2248  		jmp	L00223
00000bf3                      2249  	Lcb0032
                              2250  	;;LINE 0, 0, 1
00000bf3                      2251  	.DWLopt443
00000bf3  DC00000000        @ 2252  		jmp	Lopt000008
00000bf8                      2253  	L00214
                              2254  	;;LINE 1150, 1, 1
00000bf8                      2255  	.DWLopt444
00000bf8  FAC8B004            2256  		cmp	1200,D0
00000bfc  C007DC00000000    @ 2257  		bge	L00224
                              2258  	;;LINE 1152, 1, 1
00000c03                      2259  	.DWLopt445
00000c03  FCAC00000000      @ 2260  		movhu	(_gus_peak_pwm),D0
00000c09  40                  2261  		inc	D0
00000c0a  DC00000000        @ 2262  		jmp	Lopt000009
00000c0f                      2263  	L00224
                              2264  	;;LINE 1154, 1, 1
00000c0f                      2265  	.DWLopt446
00000c0f  FAC80807            2266  		cmp	1800,D0
00000c13  C007DC00000000    @ 2267  		bge	L00227
                              2268  	;;LINE 1156, 1, 1
00000c1a                      2269  	.DWLopt447
00000c1a  FAC0D4FE            2270  		add	-300,D0
00000c1e                      2271  	.DWLopt424
                              2272  	;;LINE 1157, 1, 1
00000c1e                      2273  	.DWLopt448
00000c1e  1C                  2274  		exthu	D0
00000c1f                      2275  	.DWLopt425
00000c1f                      2276  	.DWLopt417
00000c1f  CD00000000        + 2277  		call	_0get_sin_value
                              2278  	;;LINE 1158, 1, 1
00000c24                      2279  	.DWLopt449
00000c24  FCAD00000000      @ 2280  		movhu	(_gus_percent_pwm),D1
                              2281  	;;LINE 1157, 0, 1
00000c2a                      2282  	.DWLopt450
00000c2a  18                  2283  		exth	D0
                              2284  	;;LINE 1158, 0, 1
00000c2b                      2285  	.DWLopt451
00000c2b  F601                2286  		udf00	D0,D1
00000c2d  4604                2287  		mov	D1,(4,SP)
                              2288  	;;LINE 1160, 1, 1
00000c2f                      2289  	.DWLopt452
00000c2f  F8BD06              2290  		movhu	(6,SP),D1
00000c32  FCAC00000000      @ 2291  		movhu	(_gss_min_pwm),D0
00000c38  19                  2292  		exth	D1
00000c39  18                  2293  		exth	D0
00000c3a  A1                  2294  		cmp	D0,D1
00000c3b  C007DC00000000    @ 2295  		bge	L00229
                              2296  	;;LINE 1162, 1, 1
00000c42                      2297  	.DWLopt453
00000c42  FCAC00000000      @ 2298  		movhu	(_gss_min_pwm),D0
00000c48  F89306              2299  		movhu	D0,(6,SP)
00000c4b                      2300  	L00229
                              2301  	;;LINE 1164, 1, 1
00000c4b                      2302  	.DWLopt454
00000c4b  F8BD06              2303  		movhu	(6,SP),D1
00000c4e  FCAC00000000      @ 2304  		movhu	(_gss_max_pwm),D0
00000c54  19                  2305  		exth	D1
00000c55  18                  2306  		exth	D0
00000c56  A1                  2307  		cmp	D0,D1
00000c57  C307DC00000000    @ 2308  		bgt	Lcb0036
00000c5e  DC00000000        @ 2309  		jmp	L00223
00000c63                      2310  	Lcb0036
                              2311  	;;LINE 0, 0, 1
00000c63                      2312  	.DWLopt455
00000c63  DC00000000        @ 2313  		jmp	Lopt000008
00000c68                      2314  	L00227
                              2315  	;;LINE 1169, 1, 1
00000c68                      2316  	.DWLopt456
00000c68  FAC86009            2317  		cmp	2400,D0
00000c6c  C007DC00000000    @ 2318  		bge	L00232
                              2319  	;;LINE 1171, 1, 1
00000c73                      2320  	.DWLopt457
00000c73  FAC02C01            2321  		add	300,D0
00000c77                      2322  	.DWLopt426
                              2323  	;;LINE 1172, 1, 1
00000c77                      2324  	.DWLopt458
00000c77  1C                  2325  		exthu	D0
00000c78                      2326  	.DWLopt427
00000c78                      2327  	.DWLopt418
00000c78  CD00000000        + 2328  		call	_0get_sin_value
                              2329  	;;LINE 1173, 1, 1
00000c7d                      2330  	.DWLopt459
00000c7d  FCAD00000000      @ 2331  		movhu	(_gus_percent_pwm),D1
                              2332  	;;LINE 1172, 0, 1
00000c83                      2333  	.DWLopt460
00000c83  18                  2334  		exth	D0
                              2335  	;;LINE 1173, 0, 1
00000c84                      2336  	.DWLopt461
00000c84  F601                2337  		udf00	D0,D1
00000c86  4604                2338  		mov	D1,(4,SP)
                              2339  	;;LINE 1174, 1, 1
00000c88                      2340  	.DWLopt462
00000c88  F8BD06              2341  		movhu	(6,SP),D1
00000c8b  FCAC00000000      @ 2342  		movhu	(_gus_peak_pwm),D0
00000c91  E4                  2343  		add	D1,D0
00000c92  F89306              2344  		movhu	D0,(6,SP)
                              2345  	;;LINE 1176, 1, 1
00000c95                      2346  	.DWLopt463
00000c95  FCAD00000000      @ 2347  		movhu	(_gss_min_pwm),D1
00000c9b  18                  2348  		exth	D0
00000c9c  19                  2349  		exth	D1
00000c9d  A4                  2350  		cmp	D1,D0
00000c9e  C007DC00000000    @ 2351  		bge	L00234
                              2352  	;;LINE 1178, 1, 1
00000ca5                      2353  	.DWLopt464
00000ca5  FCAC00000000      @ 2354  		movhu	(_gss_min_pwm),D0
00000cab  F89306              2355  		movhu	D0,(6,SP)
00000cae                      2356  	L00234
                              2357  	;;LINE 1180, 1, 1
00000cae                      2358  	.DWLopt465
00000cae  F8BD06              2359  		movhu	(6,SP),D1
00000cb1  FCAC00000000      @ 2360  		movhu	(_gss_max_pwm),D0
00000cb7  19                  2361  		exth	D1
00000cb8  18                  2362  		exth	D0
00000cb9  A1                  2363  		cmp	D0,D1
00000cba  C107DC00000000    @ 2364  		ble	L00223
                              2365  	;;LINE 0, 0, 1
00000cc1                      2366  	.DWLopt466
00000cc1  DC00000000        @ 2367  		bra	Lopt000008
00000cc6                      2368  	L00232
                              2369  	;;LINE 1185, 1, 1
00000cc6                      2370  	.DWLopt467
00000cc6  FAC8B80B            2371  		cmp	3000,D0
00000cca  C007DC00000000    @ 2372  		bge	L00237
                              2373  	;;LINE 1187, 1, 1
00000cd1                      2374  	.DWLopt468
00000cd1  00                  2375  		clr	D0
00000cd2  DC00000000        @ 2376  		bra	Lopt000009
00000cd7                      2377  	L00237
                              2378  	;;LINE 1189, 1, 1
00000cd7                      2379  	.DWLopt469
00000cd7  A4                  2380  		cmp	D1,D0
00000cd8  C007DC00000000    @ 2381  		bge	L00223
                              2382  	;;LINE 1191, 1, 1
00000cdf                      2383  	.DWLopt470
00000cdf  FAC0D4FE            2384  		add	-300,D0
00000ce3                      2385  	.DWLopt428
                              2386  	;;LINE 1192, 1, 1
00000ce3                      2387  	.DWLopt471
00000ce3  1C                  2388  		exthu	D0
00000ce4                      2389  	.DWLopt429
00000ce4                      2390  	.DWLopt419
00000ce4  CD00000000        + 2391  		call	_0get_sin_value
                              2392  	;;LINE 1193, 1, 1
00000ce9                      2393  	.DWLopt472
00000ce9  FCAD00000000      @ 2394  		movhu	(_gus_percent_pwm),D1
                              2395  	;;LINE 1192, 0, 1
00000cef                      2396  	.DWLopt473
00000cef  18                  2397  		exth	D0
                              2398  	;;LINE 1193, 0, 1
00000cf0                      2399  	.DWLopt474
00000cf0  F601                2400  		udf00	D0,D1
00000cf2  4604                2401  		mov	D1,(4,SP)
                              2402  	;;LINE 1194, 1, 1
00000cf4                      2403  	.DWLopt475
00000cf4  F8BD06              2404  		movhu	(6,SP),D1
00000cf7  FCAC00000000      @ 2405  		movhu	(_gus_peak_pwm),D0
00000cfd  E4                  2406  		add	D1,D0
00000cfe  F89306              2407  		movhu	D0,(6,SP)
                              2408  	;;LINE 1196, 1, 1
00000d01                      2409  	.DWLopt476
00000d01  FCAD00000000      @ 2410  		movhu	(_gss_min_pwm),D1
00000d07  18                  2411  		exth	D0
00000d08  19                  2412  		exth	D1
00000d09  A4                  2413  		cmp	D1,D0
00000d0a  C007DC00000000    @ 2414  		bge	L00241
                              2415  	;;LINE 1198, 1, 1
00000d11                      2416  	.DWLopt477
00000d11  FCAC00000000      @ 2417  		movhu	(_gss_min_pwm),D0
00000d17  F89306              2418  		movhu	D0,(6,SP)
00000d1a                      2419  	L00241
                              2420  	;;LINE 1200, 1, 1
00000d1a                      2421  	.DWLopt478
00000d1a  F8BD06              2422  		movhu	(6,SP),D1
00000d1d  FCAC00000000      @ 2423  		movhu	(_gss_max_pwm),D0
00000d23  19                  2424  		exth	D1
00000d24  18                  2425  		exth	D0
00000d25  A1                  2426  		cmp	D0,D1
00000d26  C107DC00000000    @ 2427  		ble	L00223
00000d2d                      2428  	Lopt000008
                              2429  	;;LINE 1202, 1, 1
00000d2d                      2430  	.DWLopt479
                              2431  	;;LINE 1147, 1, 1
00000d2d                      2432  	.DWLopt480
                              2433  	;;LINE 1166, 1, 1
00000d2d                      2434  	.DWLopt481
                              2435  	;;LINE 1182, 1, 1
00000d2d                      2436  	.DWLopt482
00000d2d  FCAC00000000      @ 2437  		movhu	(_gss_max_pwm),D0
00000d33                      2438  	Lopt000009
                              2439  	;;LINE 1202, 0, 1
00000d33                      2440  	.DWLopt483
                              2441  	;;LINE 1147, 0, 1
00000d33                      2442  	.DWLopt484
                              2443  	;;LINE 1152, 0, 1
00000d33                      2444  	.DWLopt485
                              2445  	;;LINE 1166, 0, 1
00000d33                      2446  	.DWLopt486
                              2447  	;;LINE 1182, 0, 1
00000d33                      2448  	.DWLopt487
                              2449  	;;LINE 1187, 0, 1
00000d33                      2450  	.DWLopt488
00000d33  F89306              2451  		movhu	D0,(6,SP)
00000d36                      2452  	L00223
                              2453  	;;LINE 1206, 1, 1
00000d36                      2454  	.DWLopt489
00000d36  F8BC06              2455  		movhu	(6,SP),D0
                              2456  	;;LINE 1207, 1, 1
00000d39                      2457  	.DWLopt490
00000d39  DF0008              2458  		ret
00000d3c                      2459  	.LDW36
                              2460  		FUNCTION	_0get_tai_comp_value,.LDW36-_0get_tai_comp_value
                              2461  		FUNCTION	_get_tai_comp_value,.LDW36-_get_tai_comp_value
                              2462  	.debug_MN_rsc		SECTION
                              2463  	;; Resource Information
                              2464  	;; resource_list  1
0000013d                      2465  	.LDW446
                              2466  		;; loc_data  1
0000013d  00000000          + 2467  		DD	.DWLopt413	;; address
00000141  01                  2468  		DC	0x1	;;   size of loc_exp
00000142  50                  2469  		DC	0x50	;;   DW_OP_reg0
                              2470  		;; loc_data  2
00000143  00000000          + 2471  		DD	.DWLopt414	;; address
00000147  01                  2472  		DC	0x1	;;   size of loc_exp
00000148  E1                  2473  		DC	0xe1	;;   DW_OP_MN_void
                              2474  		;; loc_data  3
00000149  00000000          + 2475  		DD	.DWLopt415	;; address
0000014d  01                  2476  		DC	0x1	;;   size of loc_exp
0000014e  E1                  2477  		DC	0xe1	;;   DW_OP_MN_void
                              2478  		;; loc_data  4
0000014f  00000000          + 2479  		DD	.DWLopt416	;; address
00000153  01                  2480  		DC	0x1	;;   size of loc_exp
00000154  E1                  2481  		DC	0xe1	;;   DW_OP_MN_void
                              2482  		;; loc_data  5
00000155  00000000          + 2483  		DD	.DWLopt417	;; address
00000159  01                  2484  		DC	0x1	;;   size of loc_exp
0000015a  E1                  2485  		DC	0xe1	;;   DW_OP_MN_void
                              2486  		;; loc_data  6
0000015b  00000000          + 2487  		DD	.DWLopt418	;; address
0000015f  01                  2488  		DC	0x1	;;   size of loc_exp
00000160  E1                  2489  		DC	0xe1	;;   DW_OP_MN_void
                              2490  		;; loc_data  7
00000161  00000000          + 2491  		DD	.DWLopt419	;; address
00000165  01                  2492  		DC	0x1	;;   size of loc_exp
00000166  E1                  2493  		DC	0xe1	;;   DW_OP_MN_void
                              2494  		;; loc_data  8
00000167  00000000          + 2495  		DD	.DWLopt420	;; address
0000016b  01                  2496  		DC	0x1	;;   size of loc_exp
0000016c  50                  2497  		DC	0x50	;;   DW_OP_reg0
                              2498  		;; loc_data  9
0000016d  00000000          + 2499  		DD	.DWLopt421	;; address
00000171  01                  2500  		DC	0x1	;;   size of loc_exp
00000172  E1                  2501  		DC	0xe1	;;   DW_OP_MN_void
                              2502  		;; loc_data  10
00000173  00000000          + 2503  		DD	.DWLopt422	;; address
00000177  01                  2504  		DC	0x1	;;   size of loc_exp
00000178  50                  2505  		DC	0x50	;;   DW_OP_reg0
                              2506  		;; loc_data  11
00000179  00000000          + 2507  		DD	.DWLopt423	;; address
0000017d  01                  2508  		DC	0x1	;;   size of loc_exp
0000017e  E1                  2509  		DC	0xe1	;;   DW_OP_MN_void
                              2510  		;; loc_data  12
0000017f  00000000          + 2511  		DD	.DWLopt424	;; address
00000183  01                  2512  		DC	0x1	;;   size of loc_exp
00000184  50                  2513  		DC	0x50	;;   DW_OP_reg0
                              2514  		;; loc_data  13
00000185  00000000          + 2515  		DD	.DWLopt425	;; address
00000189  01                  2516  		DC	0x1	;;   size of loc_exp
0000018a  E1                  2517  		DC	0xe1	;;   DW_OP_MN_void
                              2518  		;; loc_data  14
0000018b  00000000          + 2519  		DD	.DWLopt426	;; address
0000018f  01                  2520  		DC	0x1	;;   size of loc_exp
00000190  50                  2521  		DC	0x50	;;   DW_OP_reg0
                              2522  		;; loc_data  15
00000191  00000000          + 2523  		DD	.DWLopt427	;; address
00000195  01                  2524  		DC	0x1	;;   size of loc_exp
00000196  E1                  2525  		DC	0xe1	;;   DW_OP_MN_void
                              2526  		;; loc_data  16
00000197  00000000          + 2527  		DD	.DWLopt428	;; address
0000019b  01                  2528  		DC	0x1	;;   size of loc_exp
0000019c  50                  2529  		DC	0x50	;;   DW_OP_reg0
                              2530  		;; loc_data  17
0000019d  00000000          + 2531  		DD	.DWLopt429	;; address
000001a1  01                  2532  		DC	0x1	;;   size of loc_exp
000001a2  E1                  2533  		DC	0xe1	;;   DW_OP_MN_void
                              2534  		;; end
000001a3  00000000            2535  		DD	0x0
000001a7  00                  2536  		DC	0x0
                              2537  	;; End of Resource Information
                              2538  	.debug_frame		SECTION
                              2539  	;; Frame Description Entry(FDE)
00000102  00000000          + 2540  		DD	.LDW509-.LDW508	;; length
00000106                      2541  	.LDW508
00000106  00000000          + 2542  		DD	.LFR_TOP	;; CIE_pointer
0000010a  00000000          + 2543  		DD	_get_tai_comp_value	;; initial location
0000010e  00000000          + 2544  		DD	.LDW36-_get_tai_comp_value	;; address_range
                              2545  		;; Prologue
00000112  02                  2546  		DC	0x2	;; DW_CFA_advance_loc1(_0get_tai_comp_value-_get_tai_comp_value)
00000113  00                + 2547  		DC	_0get_tai_comp_value-_get_tai_comp_value
00000114  0E08                2548  		DC	0xe,0x8	;; DW_CFA_def_cfa_offset(8)
                              2549  		;; Epilogue
00000116                      2550  	.LDW509
                              2551  	;; End of Frame Description Entry
                              2552  	;;FUNC E _get_tai_comp_value
                              2553  	;;FUNC S _get_svpwm_comp_value
                              2554  	.text		SECTION
                              2555  		GLOBAL	_get_svpwm_comp_value
                              2556  		GLOBAL	_0get_svpwm_comp_value
00000d3c                      2557  	_get_svpwm_comp_value
                              2558  	;;PROLOG 0xc
00000d3c  CF80                2559  		movm	[D2],(SP)
00000d3e  F8FEF8              2560  		add	-8,SP
                              2561  	_0get_svpwm_comp_value		FUNCINFO _get_svpwm_comp_value,12,[D2]
00000d41                      2562  	.DWLopt496
                              2563  	;;LINE 1213, 1, 1
00000d41                      2564  	.DWLopt505
00000d41  1C                  2565  		exthu	D0
00000d42                      2566  	.DWLopt497
00000d42  2E100E              2567  		mov	3600,D2
00000d45  A8                  2568  		cmp	D2,D0
00000d46  C207DC00000000    @ 2569  		blt	L00247
                              2570  	;;LINE 0, 0, 1
00000d4d                      2571  	.DWLopt506
00000d4d  DB                  2572  		setlb
                              2573  	;;LINE 1215, 1, 1
00000d4e                      2574  	.DWLopt507
00000d4e  F108                2575  		sub	D2,D0
00000d50                      2576  	.DWLopt500
                              2577  	;;LINE 1213, 1, 1
00000d50                      2578  	.DWLopt508
00000d50  1C                  2579  		exthu	D0
00000d51                      2580  	.DWLopt501
00000d51                      2581  	.DWLopt498
00000d51  A8                  2582  		cmp	D2,D0
00000d52  D2                  2583  		lge
00000d53                      2584  	L00247
                              2585  	;;LINE 1218, 1, 1
00000d53                      2586  	.DWLopt509
00000d53  2D2C01              2587  		mov	300,D1
00000d56  A4                  2588  		cmp	D1,D0
00000d57  C207DC00000000    @ 2589  		blt	Lopt000010
                              2590  	;;LINE 1226, 1, 1
00000d5e                      2591  	.DWLopt510
00000d5e  FAC88403            2592  		cmp	900,D0
00000d62  C207DC00000000    @ 2593  		blt	Lopt000012
                              2594  	;;LINE 1233, 1, 1
00000d69                      2595  	.DWLopt511
00000d69  FAC8DC05            2596  		cmp	1500,D0
00000d6d  C207DC00000000    @ 2597  		blt	Lopt000011
                              2598  	;;LINE 1240, 1, 1
00000d74                      2599  	.DWLopt512
00000d74  FAC83408            2600  		cmp	2100,D0
00000d78  C207DC00000000    @ 2601  		blt	Lopt000010
                              2602  	;;LINE 1248, 1, 1
00000d7f                      2603  	.DWLopt513
00000d7f  FAC88C0A            2604  		cmp	2700,D0
00000d83  C007DC00000000    @ 2605  		bge	L00265
00000d8a                      2606  	Lopt000012
                              2607  	;;LINE 1250, 1, 1
00000d8a                      2608  	.DWLopt514
                              2609  	;;LINE 1228, 1, 1
00000d8a                      2610  	.DWLopt515
00000d8a  E4                  2611  		add	D1,D0
00000d8b                      2612  	.DWLopt502
                              2613  	;;LINE 1253, 1, 1
00000d8b                      2614  	.DWLopt516
00000d8b  DC00000000        @ 2615  		bra	Lopt000013
00000d90                      2616  	L00265
                              2617  	;;LINE 1255, 1, 1
00000d90                      2618  	.DWLopt517
00000d90  FAC8E40C            2619  		cmp	3300,D0
00000d94  C007DC00000000    @ 2620  		bge	L00268
00000d9b                      2621  	Lopt000011
                              2622  	;;LINE 1257, 1, 1
00000d9b                      2623  	.DWLopt518
                              2624  	;;LINE 1235, 1, 1
00000d9b                      2625  	.DWLopt519
00000d9b  F104                2626  		sub	D1,D0
00000d9d                      2627  	.DWLopt503
00000d9d                      2628  	Lopt000013
                              2629  	;;LINE 1258, 1, 1
00000d9d                      2630  	.DWLopt520
                              2631  	;;LINE 1229, 1, 1
00000d9d                      2632  	.DWLopt521
                              2633  	;;LINE 1236, 1, 1
00000d9d                      2634  	.DWLopt522
                              2635  	;;LINE 1251, 1, 1
00000d9d                      2636  	.DWLopt523
00000d9d  1C                  2637  		exthu	D0
00000d9e                      2638  	.DWLopt504
00000d9e                      2639  	.DWLopt499
00000d9e  CD00000000        + 2640  		call	_0get_sin_value
                              2641  	;;LINE 1259, 1, 1
00000da3                      2642  	.DWLopt524
                              2643  	;;LINE 1230, 1, 1
00000da3                      2644  	.DWLopt525
                              2645  	;;LINE 1237, 1, 1
00000da3                      2646  	.DWLopt526
                              2647  	;;LINE 1252, 1, 1
00000da3                      2648  	.DWLopt527
00000da3  FCAD00000000      @ 2649  		movhu	(_gus_percent_pwm),D1
                              2650  	;;LINE 1258, 0, 1
00000da9                      2651  	.DWLopt528
                              2652  	;;LINE 1229, 0, 1
00000da9                      2653  	.DWLopt529
                              2654  	;;LINE 1236, 0, 1
00000da9                      2655  	.DWLopt530
                              2656  	;;LINE 1251, 0, 1
00000da9                      2657  	.DWLopt531
00000da9  18                  2658  		exth	D0
                              2659  	;;LINE 1259, 0, 1
00000daa                      2660  	.DWLopt532
                              2661  	;;LINE 1230, 0, 1
00000daa                      2662  	.DWLopt533
                              2663  	;;LINE 1237, 0, 1
00000daa                      2664  	.DWLopt534
                              2665  	;;LINE 1252, 0, 1
00000daa                      2666  	.DWLopt535
00000daa  F601                2667  		udf00	D0,D1
00000dac  4604                2668  		mov	D1,(4,SP)
                              2669  	;;LINE 1260, 1, 1
00000dae                      2670  	.DWLopt536
00000dae  DC00000000        @ 2671  		bra	Lopt000014
00000db3                      2672  	L00268
                              2673  	;;LINE 1262, 1, 1
00000db3                      2674  	.DWLopt537
00000db3  A8                  2675  		cmp	D2,D0
00000db4  C007DC00000000    @ 2676  		bge	L00255
00000dbb                      2677  	Lopt000010
                              2678  	;;LINE 1266, 1, 1
00000dbb                      2679  	.DWLopt538
                              2680  	;;LINE 1222, 1, 1
00000dbb                      2681  	.DWLopt539
                              2682  	;;LINE 1244, 1, 1
00000dbb                      2683  	.DWLopt540
00000dbb  FCAD00000000      @ 2684  		movhu	(_gus_percent_pwm),D1
00000dc1  FB016D37            2685  		udf00	14189,D1
00000dc5  F8C90D              2686  		asr	13,D1
00000dc8  4604                2687  		mov	D1,(4,SP)
                              2688  	;;LINE 1267, 1, 1
00000dca                      2689  	.DWLopt541
                              2690  	;;LINE 1223, 1, 1
00000dca                      2691  	.DWLopt542
                              2692  	;;LINE 1245, 1, 1
00000dca                      2693  	.DWLopt543
00000dca  CD00000000        + 2694  		call	_0get_sin_value
00000dcf  5904                2695  		mov	(4,SP),D1
00000dd1  18                  2696  		exth	D0
00000dd2  F604                2697  		udf00	D1,D0
00000dd4  4204                2698  		mov	D0,(4,SP)
00000dd6                      2699  	Lopt000014
                              2700  	;;LINE 1268, 1, 1
00000dd6                      2701  	.DWLopt544
                              2702  	;;LINE 1224, 1, 1
00000dd6                      2703  	.DWLopt545
                              2704  	;;LINE 1231, 1, 1
00000dd6                      2705  	.DWLopt546
                              2706  	;;LINE 1238, 1, 1
00000dd6                      2707  	.DWLopt547
                              2708  	;;LINE 1246, 1, 1
00000dd6                      2709  	.DWLopt548
                              2710  	;;LINE 1253, 0, 1
00000dd6                      2711  	.DWLopt549
                              2712  	;;LINE 1260, 0, 1
00000dd6                      2713  	.DWLopt550
00000dd6  F8BD06              2714  		movhu	(6,SP),D1
00000dd9  FCAC00000000      @ 2715  		movhu	(_gus_half_pwm),D0
00000ddf  E4                  2716  		add	D1,D0
00000de0  F89306              2717  		movhu	D0,(6,SP)
00000de3                      2718  	L00255
                              2719  	;;LINE 1271, 1, 1
00000de3                      2720  	.DWLopt551
00000de3  F8BD06              2721  		movhu	(6,SP),D1
00000de6  FCAC00000000      @ 2722  		movhu	(_gss_min_pwm),D0
00000dec  19                  2723  		exth	D1
00000ded  18                  2724  		exth	D0
00000dee  A1                  2725  		cmp	D0,D1
00000def  C007DC00000000    @ 2726  		bge	L00273
                              2727  	;;LINE 1273, 1, 1
00000df6                      2728  	.DWLopt552
00000df6  FCAC00000000      @ 2729  		movhu	(_gss_min_pwm),D0
00000dfc  F89306              2730  		movhu	D0,(6,SP)
00000dff                      2731  	L00273
                              2732  	;;LINE 1275, 1, 1
00000dff                      2733  	.DWLopt553
00000dff  F8BD06              2734  		movhu	(6,SP),D1
00000e02  FCAC00000000      @ 2735  		movhu	(_gss_max_pwm),D0
00000e08  19                  2736  		exth	D1
00000e09  18                  2737  		exth	D0
00000e0a  A1                  2738  		cmp	D0,D1
00000e0b  C107DC00000000    @ 2739  		ble	L00275
                              2740  	;;LINE 1277, 1, 1
00000e12                      2741  	.DWLopt554
00000e12  FCAC00000000      @ 2742  		movhu	(_gss_max_pwm),D0
00000e18  F89306              2743  		movhu	D0,(6,SP)
00000e1b                      2744  	L00275
                              2745  	;;LINE 1280, 1, 1
00000e1b                      2746  	.DWLopt555
00000e1b  F8BC06              2747  		movhu	(6,SP),D0
                              2748  	;;LINE 1281, 1, 1
00000e1e                      2749  	.DWLopt556
00000e1e  DF800C              2750  		ret
00000e21                      2751  	.LDW37
                              2752  		FUNCTION	_0get_svpwm_comp_value,.LDW37-_0get_svpwm_comp_value
                              2753  		FUNCTION	_get_svpwm_comp_value,.LDW37-_get_svpwm_comp_value
                              2754  	.debug_MN_rsc		SECTION
                              2755  	;; Resource Information
                              2756  	;; resource_list  1
000001a8                      2757  	.LDW510
                              2758  		;; loc_data  1
000001a8  00000000          + 2759  		DD	.DWLopt496	;; address
000001ac  01                  2760  		DC	0x1	;;   size of loc_exp
000001ad  50                  2761  		DC	0x50	;;   DW_OP_reg0
                              2762  		;; loc_data  2
000001ae  00000000          + 2763  		DD	.DWLopt497	;; address
000001b2  01                  2764  		DC	0x1	;;   size of loc_exp
000001b3  E1                  2765  		DC	0xe1	;;   DW_OP_MN_void
                              2766  		;; loc_data  3
000001b4  00000000          + 2767  		DD	.DWLopt498	;; address
000001b8  01                  2768  		DC	0x1	;;   size of loc_exp
000001b9  E1                  2769  		DC	0xe1	;;   DW_OP_MN_void
                              2770  		;; loc_data  4
000001ba  00000000          + 2771  		DD	.DWLopt499	;; address
000001be  01                  2772  		DC	0x1	;;   size of loc_exp
000001bf  E1                  2773  		DC	0xe1	;;   DW_OP_MN_void
                              2774  		;; loc_data  5
000001c0  00000000          + 2775  		DD	.DWLopt500	;; address
000001c4  01                  2776  		DC	0x1	;;   size of loc_exp
000001c5  50                  2777  		DC	0x50	;;   DW_OP_reg0
                              2778  		;; loc_data  6
000001c6  00000000          + 2779  		DD	.DWLopt501	;; address
000001ca  01                  2780  		DC	0x1	;;   size of loc_exp
000001cb  E1                  2781  		DC	0xe1	;;   DW_OP_MN_void
                              2782  		;; loc_data  7
000001cc  00000000          + 2783  		DD	.DWLopt502	;; address
000001d0  01                  2784  		DC	0x1	;;   size of loc_exp
000001d1  50                  2785  		DC	0x50	;;   DW_OP_reg0
                              2786  		;; loc_data  8
000001d2  00000000          + 2787  		DD	.DWLopt503	;; address
000001d6  01                  2788  		DC	0x1	;;   size of loc_exp
000001d7  50                  2789  		DC	0x50	;;   DW_OP_reg0
                              2790  		;; loc_data  9
000001d8  00000000          + 2791  		DD	.DWLopt504	;; address
000001dc  01                  2792  		DC	0x1	;;   size of loc_exp
000001dd  E1                  2793  		DC	0xe1	;;   DW_OP_MN_void
                              2794  		;; end
000001de  00000000            2795  		DD	0x0
000001e2  00                  2796  		DC	0x0
                              2797  	;; End of Resource Information
                              2798  	.debug_frame		SECTION
                              2799  	;; Frame Description Entry(FDE)
00000116  00000000          + 2800  		DD	.LDW568-.LDW567	;; length
0000011a                      2801  	.LDW567
0000011a  00000000          + 2802  		DD	.LFR_TOP	;; CIE_pointer
0000011e  00000000          + 2803  		DD	_get_svpwm_comp_value	;; initial location
00000122  00000000          + 2804  		DD	.LDW37-_get_svpwm_comp_value	;; address_range
                              2805  		;; Prologue
00000126  02                  2806  		DC	0x2	;; DW_CFA_advance_loc1(_0get_svpwm_comp_value-_get_svpwm_comp_value)
00000127  00                + 2807  		DC	_0get_svpwm_comp_value-_get_svpwm_comp_value
00000128  0E0C                2808  		DC	0xe,0xc	;; DW_CFA_def_cfa_offset(12)
0000012a  8201                2809  		DC	0x82,0x1	;; DW_CFA_offset(D2,1)
                              2810  		;; Epilogue
0000012c                      2811  	.LDW568
                              2812  	;; End of Frame Description Entry
                              2813  	;;FUNC E _get_svpwm_comp_value
                              2814  	;;FUNC S _PWM_Reload_INT
                              2815  	.text		SECTION
                              2816  		GLOBAL	_PWM_Reload_INT
                              2817  		GLOBAL	_0PWM_Reload_INT
00000e21                      2818  	_PWM_Reload_INT
                              2819  	;;PROLOG 0x10
00000e21  CFE0                2820  		movm	[D2,D3,A2],(SP)
00000e23  F8FEFC              2821  		add	-4,SP
                              2822  	_0PWM_Reload_INT		FUNCINFO _PWM_Reload_INT,16,[D2,D3,A2]
                              2823  	;;LINE 1285, 1, 1
00000e26                      2824  	.DWLopt561
00000e26  FCAC00000000      @ 2825  		movhu	(_flg_ctrl),D0
00000e2c  F8EC04              2826  		btst	4,D0
00000e2f  C807DC00000000    @ 2827  		bne	Lcb0048
00000e36  DC00000000        @ 2828  		jmp	L00280
00000e3b                      2829  	Lcb0048
                              2830  	;;LINE 1289, 1, 1
00000e3b                      2831  	.DWLopt562
00000e3b  F8EC40              2832  		btst	64,D0
00000e3e  C807DC00000000    @ 2833  		bne	L00282
                              2834  	;;LINE 1293, 1, 1
00000e45                      2835  	.DWLopt563
00000e45  FCAC00000000      @ 2836  		movhu	(_gus_val_a),D0
00000e4b  031CA5              2837  		movhu	D0,(42268)
                              2838  	;;LINE 1294, 1, 1
00000e4e                      2839  	.DWLopt564
00000e4e  FCAC00000000      @ 2840  		movhu	(_gus_val_c),D0
00000e54  0318A5              2841  		movhu	D0,(42264)
                              2842  	;;LINE 1295, 1, 1
00000e57                      2843  	.DWLopt565
00000e57  FCAC00000000      @ 2844  		movhu	(_gus_val_b),D0
00000e5d  0314A5              2845  		movhu	D0,(42260)
00000e60  DC00000000        @ 2846  		bra	L00286
00000e65                      2847  	L00282
                              2848  	;;LINE 1301, 1, 1
00000e65                      2849  	.DWLopt566
00000e65  FCAC00000000      @ 2850  		movhu	(_gus_val_a),D0
00000e6b  031CA5              2851  		movhu	D0,(42268)
                              2852  	;;LINE 1302, 1, 1
00000e6e                      2853  	.DWLopt567
00000e6e  FCAC00000000      @ 2854  		movhu	(_gus_val_b),D0
00000e74  0318A5              2855  		movhu	D0,(42264)
                              2856  	;;LINE 1303, 1, 1
00000e77                      2857  	.DWLopt568
00000e77  FCAC00000000      @ 2858  		movhu	(_gus_val_c),D0
00000e7d  0314A5              2859  		movhu	D0,(42260)
00000e80                      2860  	L00286
                              2861  	;;LINE 1307, 1, 1
00000e80                      2862  	.DWLopt569
00000e80  FCAC00000000      @ 2863  		movhu	(_flg_PWM),D0
00000e86  2D0008              2864  		mov	2048,D1
00000e89  F201                2865  		and	D0,D1
00000e8b  C807DC00000000    @ 2866  		bne	L00287
                              2867  	;;LINE 1309, 1, 1
00000e92                      2868  	.DWLopt570
00000e92  FCAC00000000      @ 2869  		movhu	(_gus_mid_comp_val),D0
00000e98  FCAE00000000      @ 2870  		movhu	(_gus_max_comp_val),D2
00000e9e  FCAF00000000      @ 2871  		movhu	(_gus_ADtrigger_repair_val),D3
00000ea4  FCAD00000000      @ 2872  		movhu	(_gus_AD_SH_val),D1
00000eaa  F102                2873  		sub	D0,D2
00000eac  E7                  2874  		add	D1,D3
00000ead  AE                  2875  		cmp	D3,D2
00000eae  C007DC00000000    @ 2876  		bge	L00466
00000eb5  FCAD00000000      @ 2877  		movhu	(_gus_min_comp_val),D1
00000ebb  F1E0                2878  		mov	D0,A0
00000ebd  F124                2879  		sub	D1,A0
00000ebf  F1AC                2880  		cmp	D3,A0
00000ec1  C207DC00000000    @ 2881  		blt	L00303
00000ec8                      2882  	L00466
                              2883  	;;LINE 1312, 1, 1
00000ec8                      2884  	.DWLopt571
00000ec8  FCAD00000000      @ 2885  		movhu	(_flg_ADC),D1
00000ece  F8E501              2886  		or	1,D1
00000ed1  FC8700000000      @ 2887  		movhu	D1,(_flg_ADC)
                              2888  	;;LINE 1314, 1, 1
00000ed7                      2889  	.DWLopt572
00000ed7  FCAD00000000      @ 2890  		movhu	(_gus_min_comp_val),D1
00000edd  F104                2891  		sub	D1,D0
00000edf  A2                  2892  		cmp	D0,D2
00000ee0  C307DC00000000    @ 2893  		bgt	Lopt000017
                              2894  	;;LINE 0, 0, 1
00000ee7                      2895  	.DWLopt573
00000ee7  DC00000000        @ 2896  		bra	Lopt000016
00000eec                      2897  	L00287
                              2898  	;;LINE 1330, 1, 1
00000eec                      2899  	.DWLopt574
00000eec  FCAC00000000      @ 2900  		movhu	(_flg_ADC),D0
                              2901  	;;LINE 1331, 1, 1
00000ef2                      2902  	.DWLopt575
00000ef2  FCAD00000000      @ 2903  		movhu	(_gus_max_comp_val),D1
                              2904  	;;LINE 1330, 0, 1
00000ef8                      2905  	.DWLopt576
00000ef8  F8E401              2906  		or	1,D0
00000efb  FC8300000000      @ 2907  		movhu	D0,(_flg_ADC)
                              2908  	;;LINE 1331, 0, 1
00000f01                      2909  	.DWLopt577
00000f01  FCAC00000000      @ 2910  		movhu	(_gus_peak_pwm),D0
00000f07  40                  2911  		inc	D0
00000f08  A1                  2912  		cmp	D0,D1
00000f09  C807DC00000000    @ 2913  		bne	L00300
00000f10                      2914  	Lopt000017
                              2915  	;;LINE 1333, 1, 1
00000f10                      2916  	.DWLopt578
                              2917  	;;LINE 1316, 1, 1
00000f10                      2918  	.DWLopt579
00000f10  FCAC00000000      @ 2919  		movhu	(_flg_ADC),D0
00000f16  FAE0FDFF            2920  		and	65533,D0
                              2921  	;;LINE 1333, 0, 1
00000f1a                      2922  	.DWLopt580
00000f1a  DC00000000        @ 2923  		bra	Lopt000018
00000f1f                      2924  	L00300
                              2925  	;;LINE 1335, 1, 1
00000f1f                      2926  	.DWLopt581
00000f1f  FCAC00000000      @ 2927  		movhu	(_gus_min_comp_val),D0
00000f25  A000                2928  		cmp	0,D0
00000f27  C807DC00000000    @ 2929  		bne	L00303
00000f2e                      2930  	Lopt000016
                              2931  	;;LINE 1337, 1, 1
00000f2e                      2932  	.DWLopt582
                              2933  	;;LINE 1320, 1, 1
00000f2e                      2934  	.DWLopt583
00000f2e  FCAC00000000      @ 2935  		movhu	(_flg_ADC),D0
00000f34  F8E402              2936  		or	2,D0
                              2937  	;;LINE 1337, 0, 1
00000f37                      2938  	.DWLopt584
00000f37  DC00000000        @ 2939  		bra	Lopt000018
00000f3c                      2940  	L00303
                              2941  	;;LINE 1341, 1, 1
00000f3c                      2942  	.DWLopt585
                              2943  	;;LINE 1325, 1, 1
00000f3c                      2944  	.DWLopt586
00000f3c  FCAC00000000      @ 2945  		movhu	(_flg_ADC),D0
00000f42  FAE0FEFF            2946  		and	65534,D0
00000f46                      2947  	Lopt000018
                              2948  	;;LINE 1341, 0, 1
00000f46                      2949  	.DWLopt587
                              2950  	;;LINE 1316, 0, 1
00000f46                      2951  	.DWLopt588
                              2952  	;;LINE 1320, 0, 1
00000f46                      2953  	.DWLopt589
                              2954  	;;LINE 1325, 0, 1
00000f46                      2955  	.DWLopt590
                              2956  	;;LINE 1333, 0, 1
00000f46                      2957  	.DWLopt591
                              2958  	;;LINE 1337, 0, 1
00000f46                      2959  	.DWLopt592
00000f46  FC8300000000      @ 2960  		movhu	D0,(_flg_ADC)
                              2961  	;;LINE 1346, 1, 1
00000f4c                      2962  	.DWLopt593
00000f4c  DD000000000000    @ 2963  		call	_0comp_val_order
                              2964  	;;LINE 1351, 1, 1
00000f53                      2965  	.DWLopt594
00000f53  FCAC00000000      @ 2966  		movhu	(_flg_PWM),D0
00000f59  2D0008              2967  		mov	2048,D1
00000f5c  F201                2968  		and	D0,D1
00000f5e  C807DC00000000    @ 2969  		bne	L00306
                              2970  	;;LINE 1353, 1, 1
00000f65                      2971  	.DWLopt595
00000f65  FCAE00000000      @ 2972  		movhu	(_gus_mid_comp_val),D2
00000f6b  FCAF00000000      @ 2973  		movhu	(_gus_ADtrigger_repair_val),D3
00000f71  FCAD00000000      @ 2974  		movhu	(_gus_AD_SH_val),D1
00000f77  FCAC00000000      @ 2975  		movhu	(_gus_min_comp_val),D0
00000f7d  E8                  2976  		add	D2,D0
00000f7e  EC                  2977  		add	D3,D0
00000f7f  F104                2978  		sub	D1,D0
00000f81  F8C801              2979  		asr	1,D0
00000f84  FC8300000000      @ 2980  		movhu	D0,(_gus_TUP_ADtrigger)
                              2981  	;;LINE 1354, 1, 1
00000f8a                      2982  	.DWLopt596
00000f8a  FCAC00000000      @ 2983  		movhu	(_gus_max_comp_val),D0
00000f90  E8                  2984  		add	D2,D0
00000f91  E4                  2985  		add	D1,D0
00000f92  F10C                2986  		sub	D3,D0
00000f94  F8C801              2987  		asr	1,D0
00000f97  FC8300000000      @ 2988  		movhu	D0,(_gus_TDW_ADtrigger)
00000f9d  DC00000000        @ 2989  		bra	L00309
00000fa2                      2990  	L00306
                              2991  	;;LINE 1358, 1, 1
00000fa2                      2992  	.DWLopt597
00000fa2  FCAC00000000      @ 2993  		movhu	(_gus_ADtrigger_repair_val),D0
                              2994  	;;LINE 1359, 1, 1
00000fa8                      2995  	.DWLopt598
00000fa8  FCAD00000000      @ 2996  		movhu	(_gus_peak_pwm),D1
                              2997  	;;LINE 1358, 0, 1
00000fae                      2998  	.DWLopt599
00000fae  FC8300000000      @ 2999  		movhu	D0,(_gus_TUP_ADtrigger)
                              3000  	;;LINE 1359, 0, 1
00000fb4                      3001  	.DWLopt600
00000fb4  F101                3002  		sub	D0,D1
00000fb6  FC8700000000      @ 3003  		movhu	D1,(_gus_TDW_ADtrigger)
00000fbc                      3004  	L00309
                              3005  	;;LINE 1362, 1, 1
00000fbc                      3006  	.DWLopt601
00000fbc  FCAC00000000      @ 3007  		movhu	(_gus_TUP_ADtrigger),D0
00000fc2  038CA3              3008  		movhu	D0,(41868)
                              3009  	;;LINE 1363, 1, 1
00000fc5                      3010  	.DWLopt602
00000fc5  FCAC00000000      @ 3011  		movhu	(_gus_peak_pwm),D0
00000fcb  E0                  3012  		add	D0,D0
00000fcc  FCAD00000000      @ 3013  		movhu	(_gus_TDW_ADtrigger),D1
00000fd2  F104                3014  		sub	D1,D0
00000fd4  0388A3              3015  		movhu	D0,(41864)
                              3016  	;;LINE 1366, 1, 1
00000fd7                      3017  	.DWLopt603
00000fd7  FCAC00000000      @ 3018  		movhu	(_flg_PWM),D0
00000fdd  FAEC0020            3019  		btst	8192,D0
00000fe1  C907DC00000000    @ 3020  		beq	L00310
                              3021  	;;LINE 1368, 1, 1
00000fe8                      3022  	.DWLopt604
00000fe8  FAE0FFDF            3023  		and	57343,D0
00000fec  FC8300000000      @ 3024  		movhu	D0,(_flg_PWM)
                              3025  	;;LINE 1373, 1, 1
00000ff2                      3026  	.DWLopt605
00000ff2  1C                  3027  		exthu	D0
00000ff3  FAEC0002            3028  		btst	512,D0
00000ff7  C907DC00000000    @ 3029  		beq	L00311
                              3030  	;;LINE 1375, 1, 1
00000ffe                      3031  	.DWLopt606
00000ffe  FCAC00000000      @ 3032  		movhu	(_flg_PWM),D0
                              3033  	;;LINE 1376, 1, 1
00001004                      3034  	.DWLopt607
00001004  FAE40008            3035  		or	2048,D0
00001008  FAE0FFFD            3036  		and	65023,D0
0000100c  DC00000000        @ 3037  		bra	Lopt000015
00001011                      3038  	L00311
                              3039  	;;LINE 1378, 1, 1
00001011                      3040  	.DWLopt608
00001011  FCAC00000000      @ 3041  		movhu	(_flg_PWM),D0
00001017  FAEC0004            3042  		btst	1024,D0
0000101b  C907DC00000000    @ 3043  		beq	L00312
                              3044  	;;LINE 1381, 1, 1
00001022                      3045  	.DWLopt609
00001022  FAE0FFF3            3046  		and	62463,D0
00001026                      3047  	Lopt000015
                              3048  	;;LINE 1381, 0, 1
00001026                      3049  	.DWLopt610
                              3050  	;;LINE 1376, 0, 1
00001026                      3051  	.DWLopt611
00001026  FC8300000000      @ 3052  		movhu	D0,(_flg_PWM)
0000102c                      3053  	L00312
                              3054  	;;LINE 1384, 1, 1
0000102c                      3055  	.DWLopt612
0000102c  FCAC00000000      @ 3056  		movhu	(_gus_percent_pwm_buf),D0
00001032  FC8300000000      @ 3057  		movhu	D0,(_gus_percent_pwm)
                              3058  	;;LINE 1385, 1, 1
00001038                      3059  	.DWLopt613
00001038  FCA400000000      @ 3060  		mov	(_rate_theta_buf),D0
0000103e  FC8100000000      @ 3061  		mov	D0,(_rate_theta)
00001044                      3062  	L00310
                              3063  	;;LINE 1389, 1, 1
00001044                      3064  	.DWLopt614
00001044  CD00000000        + 3065  		call	_0calc_comp_val
00001049  DC00000000        @ 3066  		bra	L00319
0000104e                      3067  	L00280
                              3068  	;;LINE 1394, 1, 1
0000104e                      3069  	.DWLopt615
0000104e  FCAC00000000      @ 3070  		movhu	(_flg_ADC),D0
00001054  F8E401              3071  		or	1,D0
00001057  FC8300000000      @ 3072  		movhu	D0,(_flg_ADC)
                              3073  	;;LINE 1396, 1, 1
0000105d                      3074  	.DWLopt616
0000105d  FCAC00000000      @ 3075  		movhu	(_gus_half_pwm),D0
00001063  FC8300000000      @ 3076  		movhu	D0,(_gus_TUP_ADtrigger)
                              3077  	;;LINE 1397, 1, 1
00001069                      3078  	.DWLopt617
00001069  FCAC00000000      @ 3079  		movhu	(_gus_peak_pwm),D0
0000106f  FC8300000000      @ 3080  		movhu	D0,(_gus_TDW_ADtrigger)
                              3081  	;;LINE 1399, 1, 1
00001075                      3082  	.DWLopt618
00001075  FCAC00000000      @ 3083  		movhu	(_gus_TUP_ADtrigger),D0
0000107b  038CA3              3084  		movhu	D0,(41868)
                              3085  	;;LINE 1400, 1, 1
0000107e                      3086  	.DWLopt619
0000107e  FCAC00000000      @ 3087  		movhu	(_gus_peak_pwm),D0
00001084  81                  3088  		mov	D0,D1
00001085  E1                  3089  		add	D0,D1
00001086  FCAC00000000      @ 3090  		movhu	(_gus_TDW_ADtrigger),D0
0000108c  F101                3091  		sub	D0,D1
0000108e  0788A3              3092  		movhu	D1,(41864)
00001091                      3093  	L00319
                              3094  	;;LINE 1403, 1, 1
00001091                      3095  	.DWLopt620
00001091  DD000000000000    @ 3096  		call	_0get_Udc_ad
                              3097  	;;LINE 1405, 1, 1
00001098                      3098  	.DWLopt621
00001098  DD000000000000    @ 3099  		call	_0prot_ALM_deal
                              3100  	;;LINE 1406, 1, 1
0000109f                      3101  	.DWLopt622
0000109f  DFE010              3102  		ret
000010a2                      3103  	.LDW38
                              3104  		FUNCTION	_0PWM_Reload_INT,.LDW38-_0PWM_Reload_INT
                              3105  		FUNCTION	_PWM_Reload_INT,.LDW38-_PWM_Reload_INT
                              3106  	;; Resource Information
                              3107  		;; No Information
                              3108  	.debug_frame		SECTION
                              3109  	;; Frame Description Entry(FDE)
0000012c  00000000          + 3110  		DD	.LDW620-.LDW619	;; length
00000130                      3111  	.LDW619
00000130  00000000          + 3112  		DD	.LFR_TOP	;; CIE_pointer
00000134  00000000          + 3113  		DD	_PWM_Reload_INT	;; initial location
00000138  00000000          + 3114  		DD	.LDW38-_PWM_Reload_INT	;; address_range
                              3115  		;; Prologue
0000013c  02                  3116  		DC	0x2	;; DW_CFA_advance_loc1(_0PWM_Reload_INT-_PWM_Reload_INT)
0000013d  00                + 3117  		DC	_0PWM_Reload_INT-_PWM_Reload_INT
0000013e  0E10                3118  		DC	0xe,0x10	;; DW_CFA_def_cfa_offset(16)
00000140  8201                3119  		DC	0x82,0x1	;; DW_CFA_offset(D2,1)
00000142  8302                3120  		DC	0x83,0x2	;; DW_CFA_offset(D3,2)
00000144  8603                3121  		DC	0x86,0x3	;; DW_CFA_offset(A2,3)
                              3122  		;; Epilogue
00000146                      3123  	.LDW620
                              3124  	;; End of Frame Description Entry
                              3125  	;;FUNC E _PWM_Reload_INT
                              3126  	;;FUNC S _comp_val_order
                              3127  	.text		SECTION
                              3128  		GLOBAL	_comp_val_order
                              3129  		GLOBAL	_0comp_val_order
000010a2                      3130  	_comp_val_order
                              3131  	;;PROLOG 0x4
000010a2  CF80                3132  		movm	[D2],(SP)
                              3133  	_0comp_val_order		FUNCINFO _comp_val_order,4,[D2]
                              3134  	;;LINE 1410, 1, 1
000010a4                      3135  	.DWLopt624
000010a4  FCAC00000000      @ 3136  		movhu	(_gus_next_theta),D0
                              3137  	;;LINE 1413, 1, 1
000010aa                      3138  	.DWLopt625
000010aa  FCAE00000000      @ 3139  		movhu	(_gus_val_a),D2
000010b0  FCAD00000000      @ 3140  		movhu	(_gus_val_b),D1
                              3141  	;;LINE 1410, 0, 1
000010b6                      3142  	.DWLopt626
000010b6  FC8300000000      @ 3143  		movhu	D0,(_gus_now_theta)
                              3144  	;;LINE 1411, 1, 1
000010bc                      3145  	.DWLopt627
000010bc  FCAC00000000      @ 3146  		movhu	(_theta+2),D0
                              3147  	;;LINE 1413, 0, 1
000010c2                      3148  	.DWLopt628
000010c2  A6                  3149  		cmp	D1,D2
                              3150  	;;LINE 1411, 0, 1
000010c3                      3151  	.DWLopt629
000010c3  FC8300000000      @ 3152  		movhu	D0,(_gus_next_theta)
                              3153  	;;LINE 1413, 0, 1
000010c9                      3154  	.DWLopt630
000010c9  C307DC00000000    @ 3155  		bgt	Lcb0054
000010d0  DC00000000        @ 3156  		jmp	L00327
000010d5                      3157  	Lcb0054
                              3158  	;;LINE 1415, 1, 1
000010d5                      3159  	.DWLopt631
000010d5  FCAC00000000      @ 3160  		movhu	(_gus_val_c),D0
000010db  A2                  3161  		cmp	D0,D2
000010dc  C107DC00000000    @ 3162  		ble	L00330
                              3163  	;;LINE 1417, 1, 1
000010e3                      3164  	.DWLopt632
000010e3  A1                  3165  		cmp	D0,D1
000010e4  C107DC00000000    @ 3166  		ble	L00332
                              3167  	;;LINE 1419, 1, 1
000010eb                      3168  	.DWLopt633
000010eb  FCAC00000000      @ 3169  		movhu	(_gus_val_a),D0
000010f1  FC8300000000      @ 3170  		movhu	D0,(_gus_max_comp_val)
                              3171  	;;LINE 1420, 1, 1
000010f7                      3172  	.DWLopt634
000010f7  FCAC00000000      @ 3173  		movhu	(_gus_val_b),D0
000010fd  FC8300000000      @ 3174  		movhu	D0,(_gus_mid_comp_val)
                              3175  	;;LINE 1421, 1, 1
00001103                      3176  	.DWLopt635
00001103  FCAC00000000      @ 3177  		movhu	(_gus_val_c),D0
00001109  FC8300000000      @ 3178  		movhu	D0,(_gus_min_comp_val)
                              3179  	;;LINE 1423, 1, 1
0000110f                      3180  	.DWLopt636
0000110f  00                  3181  		clr	D0
00001110  DC00000000        @ 3182  		jmp	Lopt000019
00001115                      3183  	L00332
                              3184  	;;LINE 1427, 1, 1
00001115                      3185  	.DWLopt637
00001115  FCAC00000000      @ 3186  		movhu	(_gus_val_a),D0
0000111b  FC8300000000      @ 3187  		movhu	D0,(_gus_max_comp_val)
                              3188  	;;LINE 1428, 1, 1
00001121                      3189  	.DWLopt638
00001121  FCAC00000000      @ 3190  		movhu	(_gus_val_c),D0
00001127  FC8300000000      @ 3191  		movhu	D0,(_gus_mid_comp_val)
                              3192  	;;LINE 1429, 1, 1
0000112d                      3193  	.DWLopt639
0000112d  FCAC00000000      @ 3194  		movhu	(_gus_val_b),D0
00001133  FC8300000000      @ 3195  		movhu	D0,(_gus_min_comp_val)
                              3196  	;;LINE 1431, 1, 1
00001139                      3197  	.DWLopt640
00001139  8001                3198  		mov	1,D0
0000113b  DC00000000        @ 3199  		jmp	Lopt000019
00001140                      3200  	L00330
                              3201  	;;LINE 1436, 1, 1
00001140                      3202  	.DWLopt641
00001140  FC8300000000      @ 3203  		movhu	D0,(_gus_max_comp_val)
                              3204  	;;LINE 1437, 1, 1
00001146                      3205  	.DWLopt642
00001146  FCAC00000000      @ 3206  		movhu	(_gus_val_a),D0
0000114c  FC8300000000      @ 3207  		movhu	D0,(_gus_mid_comp_val)
                              3208  	;;LINE 1438, 1, 1
00001152                      3209  	.DWLopt643
00001152  FCAC00000000      @ 3210  		movhu	(_gus_val_b),D0
00001158  FC8300000000      @ 3211  		movhu	D0,(_gus_min_comp_val)
                              3212  	;;LINE 1440, 1, 1
0000115e                      3213  	.DWLopt644
0000115e  8002                3214  		mov	2,D0
00001160  DC00000000        @ 3215  		bra	Lopt000019
00001165                      3216  	L00327
                              3217  	;;LINE 1445, 1, 1
00001165                      3218  	.DWLopt645
00001165  FCAC00000000      @ 3219  		movhu	(_gus_val_c),D0
0000116b  A1                  3220  		cmp	D0,D1
0000116c  C107DC00000000    @ 3221  		ble	L00340
                              3222  	;;LINE 1447, 1, 1
00001173                      3223  	.DWLopt646
00001173  A2                  3224  		cmp	D0,D2
00001174  C107DC00000000    @ 3225  		ble	L00341
                              3226  	;;LINE 1449, 1, 1
0000117b                      3227  	.DWLopt647
0000117b  FCAC00000000      @ 3228  		movhu	(_gus_val_b),D0
00001181  FC8300000000      @ 3229  		movhu	D0,(_gus_max_comp_val)
                              3230  	;;LINE 1450, 1, 1
00001187                      3231  	.DWLopt648
00001187  FCAC00000000      @ 3232  		movhu	(_gus_val_a),D0
0000118d  FC8300000000      @ 3233  		movhu	D0,(_gus_mid_comp_val)
                              3234  	;;LINE 1451, 1, 1
00001193                      3235  	.DWLopt649
00001193  FCAC00000000      @ 3236  		movhu	(_gus_val_c),D0
00001199  FC8300000000      @ 3237  		movhu	D0,(_gus_min_comp_val)
                              3238  	;;LINE 1453, 1, 1
0000119f                      3239  	.DWLopt650
0000119f  8003                3240  		mov	3,D0
000011a1  DC00000000        @ 3241  		bra	Lopt000019
000011a6                      3242  	L00341
                              3243  	;;LINE 1457, 1, 1
000011a6                      3244  	.DWLopt651
000011a6  FCAC00000000      @ 3245  		movhu	(_gus_val_b),D0
000011ac  FC8300000000      @ 3246  		movhu	D0,(_gus_max_comp_val)
                              3247  	;;LINE 1458, 1, 1
000011b2                      3248  	.DWLopt652
000011b2  FCAC00000000      @ 3249  		movhu	(_gus_val_c),D0
000011b8  FC8300000000      @ 3250  		movhu	D0,(_gus_mid_comp_val)
                              3251  	;;LINE 1459, 1, 1
000011be                      3252  	.DWLopt653
000011be  FCAC00000000      @ 3253  		movhu	(_gus_val_a),D0
000011c4  FC8300000000      @ 3254  		movhu	D0,(_gus_min_comp_val)
                              3255  	;;LINE 1461, 1, 1
000011ca                      3256  	.DWLopt654
000011ca  8004                3257  		mov	4,D0
                              3258  	;;LINE 0, 0, 1
000011cc                      3259  	.DWLopt655
000011cc  DC00000000        @ 3260  		bra	Lopt000019
000011d1                      3261  	L00340
                              3262  	;;LINE 1466, 1, 1
000011d1                      3263  	.DWLopt656
000011d1  FC8300000000      @ 3264  		movhu	D0,(_gus_max_comp_val)
                              3265  	;;LINE 1467, 1, 1
000011d7                      3266  	.DWLopt657
000011d7  FCAC00000000      @ 3267  		movhu	(_gus_val_b),D0
000011dd  FC8300000000      @ 3268  		movhu	D0,(_gus_mid_comp_val)
                              3269  	;;LINE 1468, 1, 1
000011e3                      3270  	.DWLopt658
000011e3  FCAC00000000      @ 3271  		movhu	(_gus_val_a),D0
000011e9  FC8300000000      @ 3272  		movhu	D0,(_gus_min_comp_val)
                              3273  	;;LINE 1470, 1, 1
000011ef                      3274  	.DWLopt659
000011ef  8005                3275  		mov	5,D0
000011f1                      3276  	Lopt000019
                              3277  	;;LINE 1470, 0, 1
000011f1                      3278  	.DWLopt660
                              3279  	;;LINE 1453, 0, 1
000011f1                      3280  	.DWLopt661
                              3281  	;;LINE 1461, 0, 1
000011f1                      3282  	.DWLopt662
                              3283  	;;LINE 1440, 0, 1
000011f1                      3284  	.DWLopt663
                              3285  	;;LINE 1431, 0, 1
000011f1                      3286  	.DWLopt664
                              3287  	;;LINE 1423, 0, 1
000011f1                      3288  	.DWLopt665
000011f1  FC8300000000      @ 3289  		movhu	D0,(_gus_val_abc_order)
                              3290  	;;LINE 1473, 1, 1
000011f7                      3291  	.DWLopt666
000011f7  DE8004              3292  		retf
000011fa                      3293  	.LDW39
                              3294  		FUNCTION	_0comp_val_order,.LDW39-_0comp_val_order
                              3295  		FUNCTION	_comp_val_order,.LDW39-_comp_val_order
                              3296  	;; Resource Information
                              3297  		;; No Information
                              3298  	.debug_frame		SECTION
                              3299  	;; Frame Description Entry(FDE)
00000146  00000000          + 3300  		DD	.LDW657-.LDW656	;; length
0000014a                      3301  	.LDW656
0000014a  00000000          + 3302  		DD	.LFR_TOP	;; CIE_pointer
0000014e  00000000          + 3303  		DD	_comp_val_order	;; initial location
00000152  00000000          + 3304  		DD	.LDW39-_comp_val_order	;; address_range
                              3305  		;; Prologue
00000156  02                  3306  		DC	0x2	;; DW_CFA_advance_loc1(_0comp_val_order-_comp_val_order)
00000157  00                + 3307  		DC	_0comp_val_order-_comp_val_order
00000158  0E04                3308  		DC	0xe,0x4	;; DW_CFA_def_cfa_offset(4)
0000015a  8201                3309  		DC	0x82,0x1	;; DW_CFA_offset(D2,1)
                              3310  		;; Epilogue
0000015c                      3311  	.LDW657
                              3312  	;; End of Frame Description Entry
                              3313  	;;FUNC E _comp_val_order
                              3314  	.bss		SECTION
                              3315  		ALIGN	4
                              3316  		GLOBAL	_flg_PWM
00000000  00000000            3317  	_flg_PWM	DS	4
                              3318  		OBJECT	_flg_PWM,0x4
                              3319  		ALIGN	2
                              3320  		GLOBAL	_gus_max_comp_val
00000004  0000                3321  	_gus_max_comp_val	DS	2
                              3322  		OBJECT	_gus_max_comp_val,0x2
                              3323  		ALIGN	2
                              3324  		GLOBAL	_gus_mid_comp_val
00000006  0000                3325  	_gus_mid_comp_val	DS	2
                              3326  		OBJECT	_gus_mid_comp_val,0x2
                              3327  		ALIGN	2
                              3328  		GLOBAL	_gus_min_comp_val
00000008  0000                3329  	_gus_min_comp_val	DS	2
                              3330  		OBJECT	_gus_min_comp_val,0x2
                              3331  		ALIGN	2
                              3332  		GLOBAL	_gus_val_abc_order
0000000a  0000                3333  	_gus_val_abc_order	DS	2
                              3334  		OBJECT	_gus_val_abc_order,0x2
                              3335  		ALIGN	4
                              3336  		GLOBAL	_gul_percent_pwm_unit
0000000c  00000000            3337  	_gul_percent_pwm_unit	DS	4
                              3338  		OBJECT	_gul_percent_pwm_unit,0x4
                              3339  		ALIGN	2
                              3340  		GLOBAL	_gus_now_theta
00000010  0000                3341  	_gus_now_theta	DS	2
                              3342  		OBJECT	_gus_now_theta,0x2
                              3343  		ALIGN	4
                              3344  		GLOBAL	_gul_theta
00000014  00000000            3345  	_gul_theta	DS	4
                              3346  		OBJECT	_gul_theta,0x4
                              3347  		ALIGN	4
                              3348  		GLOBAL	_theta
00000018  00000000            3349  	_theta	DS	4
                              3350  		OBJECT	_theta,0x4
                              3351  		ALIGN	2
                              3352  		GLOBAL	_gus_freq_set
0000001c  0000                3353  	_gus_freq_set	DS	2
                              3354  		OBJECT	_gus_freq_set,0x2
                              3355  		ALIGN	2
                              3356  		GLOBAL	_gus_freq_out
0000001e  0000                3357  	_gus_freq_out	DS	2
                              3358  		OBJECT	_gus_freq_out,0x2
                              3359  		ALIGN	2
                              3360  		GLOBAL	_gus_freq_real
00000020  0000                3361  	_gus_freq_real	DS	2
                              3362  		OBJECT	_gus_freq_real,0x2
                              3363  		ALIGN	2
                              3364  		GLOBAL	_gus_speed_real
00000022  0000                3365  	_gus_speed_real	DS	2
                              3366  		OBJECT	_gus_speed_real,0x2
                              3367  		ALIGN	2
                              3368  		GLOBAL	_gus_MAX_setfreq
00000024  0000                3369  	_gus_MAX_setfreq	DS	2
                              3370  		OBJECT	_gus_MAX_setfreq,0x2
                              3371  		ALIGN	2
                              3372  		GLOBAL	_gss_bootstrap_charger_delaytimer
00000026  0000                3373  	_gss_bootstrap_charger_delaytimer	DS	2
                              3374  		OBJECT	_gss_bootstrap_charger_delaytimer,0x2
                              3375  		ALIGN	2
                              3376  		GLOBAL	_gus_Uout_real
00000028  0000                3377  	_gus_Uout_real	DS	2
                              3378  		OBJECT	_gus_Uout_real,0x2
                              3379  		ALIGN	2
                              3380  		GLOBAL	_gus_val_a
0000002a  0000                3381  	_gus_val_a	DS	2
                              3382  		OBJECT	_gus_val_a,0x2
                              3383  		ALIGN	2
                              3384  		GLOBAL	_gus_val_b
0000002c  0000                3385  	_gus_val_b	DS	2
                              3386  		OBJECT	_gus_val_b,0x2
                              3387  		ALIGN	2
                              3388  		GLOBAL	_gus_val_c
0000002e  0000                3389  	_gus_val_c	DS	2
                              3390  		OBJECT	_gus_val_c,0x2
                              3391  		ALIGN	2
                              3392  		GLOBAL	_gus_peak_pwm
00000030  0000                3393  	_gus_peak_pwm	DS	2
                              3394  		OBJECT	_gus_peak_pwm,0x2
                              3395  		ALIGN	2
                              3396  		GLOBAL	_gus_Uout_for_disp
00000032  0000                3397  	_gus_Uout_for_disp	DS	2
                              3398  		OBJECT	_gus_Uout_for_disp,0x2
                              3399  		ALIGN	4
                              3400  		GLOBAL	_gsl_FreqPI_integral
00000034  00000000            3401  	_gsl_FreqPI_integral	DS	4
                              3402  		OBJECT	_gsl_FreqPI_integral,0x4
                              3403  		ALIGN	4
                              3404  		GLOBAL	_gsl_PI_initval
00000038  00000000            3405  	_gsl_PI_initval	DS	4
                              3406  		OBJECT	_gsl_PI_initval,0x4
                              3407  		ALIGN	4
                              3408  		GLOBAL	_freq_rate
0000003c  0000000000000000    3409  	_freq_rate	DS	16
00000044  0000000000000000    3409  	
                              3410  		OBJECT	_freq_rate,0x10
                              3411  		ALIGN	2
                              3412  		GLOBAL	_gus_stall_amp_accel
0000004c  0000                3413  	_gus_stall_amp_accel	DS	2
                              3414  		OBJECT	_gus_stall_amp_accel,0x2
                              3415  		ALIGN	2
                              3416  		GLOBAL	_gus_stall_amp_decel
0000004e  0000                3417  	_gus_stall_amp_decel	DS	2
                              3418  		OBJECT	_gus_stall_amp_decel,0x2
                              3419  		ALIGN	2
                              3420  		GLOBAL	_gus_Td
00000050  0000                3421  	_gus_Td	DS	2
                              3422  		OBJECT	_gus_Td,0x2
                              3423  		ALIGN	2
                              3424  		GLOBAL	_gus_half_pwm
00000052  0000                3425  	_gus_half_pwm	DS	2
                              3426  		OBJECT	_gus_half_pwm,0x2
                              3427  		ALIGN	2
                              3428  		GLOBAL	_gus_centi_half_pwm
00000054  0000                3429  	_gus_centi_half_pwm	DS	2
                              3430  		OBJECT	_gus_centi_half_pwm,0x2
                              3431  		ALIGN	2
                              3432  		GLOBAL	_gss_max_pwm
00000056  0000                3433  	_gss_max_pwm	DS	2
                              3434  		OBJECT	_gss_max_pwm,0x2
                              3435  		ALIGN	2
                              3436  		GLOBAL	_gss_min_pwm
00000058  0000                3437  	_gss_min_pwm	DS	2
                              3438  		OBJECT	_gss_min_pwm,0x2
                              3439  		ALIGN	2
                              3440  		GLOBAL	_gus_max_percent
0000005a  0000                3441  	_gus_max_percent	DS	2
                              3442  		OBJECT	_gus_max_percent,0x2
                              3443  		ALIGN	2
                              3444  		GLOBAL	_gus_min_percent
0000005c  0000                3445  	_gus_min_percent	DS	2
                              3446  		OBJECT	_gus_min_percent,0x2
                              3447  		ALIGN	2
                              3448  		GLOBAL	_gus_max_percent_gu
0000005e  0000                3449  	_gus_max_percent_gu	DS	2
                              3450  		OBJECT	_gus_max_percent_gu,0x2
                              3451  		ALIGN	2
                              3452  		GLOBAL	_gus_percent_k
00000060  0000                3453  	_gus_percent_k	DS	2
                              3454  		OBJECT	_gus_percent_k,0x2
                              3455  		ALIGN	2
                              3456  		GLOBAL	_gus_percent_pwm
00000062  0000                3457  	_gus_percent_pwm	DS	2
                              3458  		OBJECT	_gus_percent_pwm,0x2
                              3459  		ALIGN	2
                              3460  		GLOBAL	_gus_percent_pwm_buf
00000064  0000                3461  	_gus_percent_pwm_buf	DS	2
                              3462  		OBJECT	_gus_percent_pwm_buf,0x2
                              3463  		ALIGN	2
                              3464  		GLOBAL	_gus_rate_per
00000066  0000                3465  	_gus_rate_per	DS	2
                              3466  		OBJECT	_gus_rate_per,0x2
                              3467  		ALIGN	4
                              3468  		GLOBAL	_rate_theta
00000068  00000000            3469  	_rate_theta	DS	4
                              3470  		OBJECT	_rate_theta,0x4
                              3471  		ALIGN	4
                              3472  		GLOBAL	_rate_theta_buf
0000006c  00000000            3473  	_rate_theta_buf	DS	4
                              3474  		OBJECT	_rate_theta_buf,0x4
                              3475  		ALIGN	4
                              3476  		GLOBAL	_theta_buf
00000070  00000000            3477  	_theta_buf	DS	4
                              3478  		OBJECT	_theta_buf,0x4
                              3479  		ALIGN	2
                              3480  		GLOBAL	_gus_TUP_ADtrigger
00000074  0000                3481  	_gus_TUP_ADtrigger	DS	2
                              3482  		OBJECT	_gus_TUP_ADtrigger,0x2
                              3483  		ALIGN	2
                              3484  		GLOBAL	_gus_TDW_ADtrigger
00000076  0000                3485  	_gus_TDW_ADtrigger	DS	2
                              3486  		OBJECT	_gus_TDW_ADtrigger,0x2
                              3487  		ALIGN	2
                              3488  		GLOBAL	_gus_ADtrigger_repair_val
00000078  0000                3489  	_gus_ADtrigger_repair_val	DS	2
                              3490  		OBJECT	_gus_ADtrigger_repair_val,0x2
                              3491  		ALIGN	2
                              3492  		GLOBAL	_gus_AD_SH_val
0000007a  0000                3493  	_gus_AD_SH_val	DS	2
                              3494  		OBJECT	_gus_AD_SH_val,0x2
                              3495  		ALIGN	2
                              3496  		GLOBAL	_gus_next_theta
0000007c  0000                3497  	_gus_next_theta	DS	2
                              3498  		OBJECT	_gus_next_theta,0x2
                              3499  		ALIGN	2
                              3500  		GLOBAL	_gus_speed_out
0000007e  0000                3501  	_gus_speed_out	DS	2
                              3502  		OBJECT	_gus_speed_out,0x2
                              3503  		ALIGN	2
                              3504  		GLOBAL	_gus_PIctrl_delaytimer
00000080  0000                3505  	_gus_PIctrl_delaytimer	DS	2
                              3506  		OBJECT	_gus_PIctrl_delaytimer,0x2
                              3507  	.text		SECTION
000011fa                      3508  	.LPC_END
                              3509  	.debug_abbrev		SECTION
                              3510  	;; Abbreviation Tables
00000000                      3511  	.LAB_TOP
                              3512  		;; decl 1
00000000  01                  3513  		DC	0x1	;; abbrev_code
00000001  11                  3514  		DC	0x11	;; DW_TAG_compile_unit
00000002  01                  3515  		DC	0x1	;; DW_CHILDREN_yes
00000003  0308                3516  		DC	0x3,0x8	;; DW_AT_name, DW_FORM_string
00000005  1006                3517  		DC	0x10,0x6	;; DW_AT_stmt_list, DW_FORM_data4
00000007  1101                3518  		DC	0x11,0x1	;; DW_AT_low_pc, DW_FORM_addr
00000009  1201                3519  		DC	0x12,0x1	;; DW_AT_high_pc, DW_FORM_addr
0000000b  1305                3520  		DC	0x13,0x5	;; DW_AT_language, DW_FORM_data2
0000000d  1B08                3521  		DC	0x1b,0x8	;; DW_AT_comp_dir, DW_FORM_string
0000000f  2508                3522  		DC	0x25,0x8	;; DW_AT_producer, DW_FORM_string
00000011  420B                3523  		DC	0x42,0xb	;; DW_AT_identifier_case, DW_FORM_data1
00000013  00                  3524  		DC	0x0
00000014  00                  3525  		DC	0x0
                              3526  		;; decl 2
00000015  02                  3527  		DC	0x2	;; abbrev_code
00000016  24                  3528  		DC	0x24	;; DW_TAG_base_type
00000017  00                  3529  		DC	0x0	;; DW_CHILDREN_no
00000018  0308                3530  		DC	0x3,0x8	;; DW_AT_name, DW_FORM_string
0000001a  0B0F                3531  		DC	0xb,0xf	;; DW_AT_byte_size, DW_FORM_udata
0000001c  3E05                3532  		DC	0x3e,0x5	;; DW_AT_encoding, DW_FORM_data2
0000001e  00                  3533  		DC	0x0
0000001f  00                  3534  		DC	0x0
                              3535  		;; decl 3
00000020  03                  3536  		DC	0x3	;; abbrev_code
00000021  16                  3537  		DC	0x16	;; DW_TAG_typedef
00000022  00                  3538  		DC	0x0	;; DW_CHILDREN_no
00000023  0308                3539  		DC	0x3,0x8	;; DW_AT_name, DW_FORM_string
00000025  4913                3540  		DC	0x49,0x13	;; DW_AT_type, DW_FORM_ref4
00000027  00                  3541  		DC	0x0
00000028  00                  3542  		DC	0x0
                              3543  		;; decl 4
00000029  04                  3544  		DC	0x4	;; abbrev_code
0000002a  13                  3545  		DC	0x13	;; DW_TAG_structure_type
0000002b  01                  3546  		DC	0x1	;; DW_CHILDREN_yes
0000002c  0B0F                3547  		DC	0xb,0xf	;; DW_AT_byte_size, DW_FORM_udata
0000002e  00                  3548  		DC	0x0
0000002f  00                  3549  		DC	0x0
                              3550  		;; decl 5
00000030  05                  3551  		DC	0x5	;; abbrev_code
00000031  0D                  3552  		DC	0xd	;; DW_TAG_member
00000032  00                  3553  		DC	0x0	;; DW_CHILDREN_no
00000033  0308                3554  		DC	0x3,0x8	;; DW_AT_name, DW_FORM_string
00000035  3809                3555  		DC	0x38,0x9	;; DW_AT_data_member_location, DW_FORM_block
00000037  4913                3556  		DC	0x49,0x13	;; DW_AT_type, DW_FORM_ref4
00000039  00                  3557  		DC	0x0
0000003a  00                  3558  		DC	0x0
                              3559  		;; decl 6
0000003b  06                  3560  		DC	0x6	;; abbrev_code
0000003c  17                  3561  		DC	0x17	;; DW_TAG_union_type
0000003d  01                  3562  		DC	0x1	;; DW_CHILDREN_yes
0000003e  0B0F                3563  		DC	0xb,0xf	;; DW_AT_byte_size, DW_FORM_udata
00000040  00                  3564  		DC	0x0
00000041  00                  3565  		DC	0x0
                              3566  		;; decl 7
00000042  07                  3567  		DC	0x7	;; abbrev_code
00000043  0D                  3568  		DC	0xd	;; DW_TAG_member
00000044  00                  3569  		DC	0x0	;; DW_CHILDREN_no
00000045  0308                3570  		DC	0x3,0x8	;; DW_AT_name, DW_FORM_string
00000047  0B0F                3571  		DC	0xb,0xf	;; DW_AT_byte_size, DW_FORM_udata
00000049  0C0F                3572  		DC	0xc,0xf	;; DW_AT_bit_offset, DW_FORM_udata
0000004b  0D0F                3573  		DC	0xd,0xf	;; DW_AT_bit_size, DW_FORM_udata
0000004d  3809                3574  		DC	0x38,0x9	;; DW_AT_data_member_location, DW_FORM_block
0000004f  4913                3575  		DC	0x49,0x13	;; DW_AT_type, DW_FORM_ref4
00000051  00                  3576  		DC	0x0
00000052  00                  3577  		DC	0x0
                              3578  		;; decl 8
00000053  08                  3579  		DC	0x8	;; abbrev_code
00000054  34                  3580  		DC	0x34	;; DW_TAG_variable
00000055  00                  3581  		DC	0x0	;; DW_CHILDREN_no
00000056  0209                3582  		DC	0x2,0x9	;; DW_AT_location, DW_FORM_block
00000058  0308                3583  		DC	0x3,0x8	;; DW_AT_name, DW_FORM_string
0000005a  3F0C                3584  		DC	0x3f,0xc	;; DW_AT_external, DW_FORM_flag
0000005c  4913                3585  		DC	0x49,0x13	;; DW_AT_type, DW_FORM_ref4
0000005e  00                  3586  		DC	0x0
0000005f  00                  3587  		DC	0x0
                              3588  		;; decl 9
00000060  09                  3589  		DC	0x9	;; abbrev_code
00000061  2E                  3590  		DC	0x2e	;; DW_TAG_subprogram
00000062  01                  3591  		DC	0x1	;; DW_CHILDREN_yes
00000063  0308                3592  		DC	0x3,0x8	;; DW_AT_name, DW_FORM_string
00000065  1101                3593  		DC	0x11,0x1	;; DW_AT_low_pc, DW_FORM_addr
00000067  1201                3594  		DC	0x12,0x1	;; DW_AT_high_pc, DW_FORM_addr
00000069  270C                3595  		DC	0x27,0xc	;; DW_AT_prototyped, DW_FORM_flag
0000006b  3A0F                3596  		DC	0x3a,0xf	;; DW_AT_decl_file, DW_FORM_udata
0000006d  3B0F                3597  		DC	0x3b,0xf	;; DW_AT_decl_line, DW_FORM_udata
0000006f  3F0C                3598  		DC	0x3f,0xc	;; DW_AT_external, DW_FORM_flag
00000071  4009                3599  		DC	0x40,0x9	;; DW_AT_frame_base, DW_FORM_block
00000073  00                  3600  		DC	0x0
00000074  00                  3601  		DC	0x0
                              3602  		;; decl 10
00000075  0A                  3603  		DC	0xa	;; abbrev_code
00000076  34                  3604  		DC	0x34	;; DW_TAG_variable
00000077  00                  3605  		DC	0x0	;; DW_CHILDREN_no
00000078  0308                3606  		DC	0x3,0x8	;; DW_AT_name, DW_FORM_string
0000007a  3F0C                3607  		DC	0x3f,0xc	;; DW_AT_external, DW_FORM_flag
0000007c  4913                3608  		DC	0x49,0x13	;; DW_AT_type, DW_FORM_ref4
0000007e  834006              3609  		DC	0x83,0x40,0x6	;; DW_AT_MN_resource, DW_FORM_data4
00000081  00                  3610  		DC	0x0
00000082  00                  3611  		DC	0x0
                              3612  		;; decl 11
00000083  0B                  3613  		DC	0xb	;; abbrev_code
00000084  34                  3614  		DC	0x34	;; DW_TAG_variable
00000085  00                  3615  		DC	0x0	;; DW_CHILDREN_no
00000086  0308                3616  		DC	0x3,0x8	;; DW_AT_name, DW_FORM_string
00000088  3F0C                3617  		DC	0x3f,0xc	;; DW_AT_external, DW_FORM_flag
0000008a  4913                3618  		DC	0x49,0x13	;; DW_AT_type, DW_FORM_ref4
0000008c  00                  3619  		DC	0x0
0000008d  00                  3620  		DC	0x0
                              3621  		;; decl 12
0000008e  0C                  3622  		DC	0xc	;; abbrev_code
0000008f  2E                  3623  		DC	0x2e	;; DW_TAG_subprogram
00000090  01                  3624  		DC	0x1	;; DW_CHILDREN_yes
00000091  0308                3625  		DC	0x3,0x8	;; DW_AT_name, DW_FORM_string
00000093  1101                3626  		DC	0x11,0x1	;; DW_AT_low_pc, DW_FORM_addr
00000095  1201                3627  		DC	0x12,0x1	;; DW_AT_high_pc, DW_FORM_addr
00000097  270C                3628  		DC	0x27,0xc	;; DW_AT_prototyped, DW_FORM_flag
00000099  3A0F                3629  		DC	0x3a,0xf	;; DW_AT_decl_file, DW_FORM_udata
0000009b  3B0F                3630  		DC	0x3b,0xf	;; DW_AT_decl_line, DW_FORM_udata
0000009d  3F0C                3631  		DC	0x3f,0xc	;; DW_AT_external, DW_FORM_flag
0000009f  4009                3632  		DC	0x40,0x9	;; DW_AT_frame_base, DW_FORM_block
000000a1  4913                3633  		DC	0x49,0x13	;; DW_AT_type, DW_FORM_ref4
000000a3  814009              3634  		DC	0x81,0x40,0x9	;; DW_AT_MN_return_value_location, DW_FORM_block
000000a6  00                  3635  		DC	0x0
000000a7  00                  3636  		DC	0x0
                              3637  		;; decl 13
000000a8  0D                  3638  		DC	0xd	;; abbrev_code
000000a9  05                  3639  		DC	0x5	;; DW_TAG_formal_parameter
000000aa  00                  3640  		DC	0x0	;; DW_CHILDREN_no
000000ab  0308                3641  		DC	0x3,0x8	;; DW_AT_name, DW_FORM_string
000000ad  4913                3642  		DC	0x49,0x13	;; DW_AT_type, DW_FORM_ref4
000000af  834006              3643  		DC	0x83,0x40,0x6	;; DW_AT_MN_resource, DW_FORM_data4
000000b2  00                  3644  		DC	0x0
000000b3  00                  3645  		DC	0x0
                              3646  		;; end
000000b4  00                  3647  		DC	0x0
                              3648  	;; End of Abbreviation Tables
                              3649  	.debug_info		SECTION
                              3650  	;; Debugging Information Entries
00000000                      3651  	.LI_TOP
                              3652  	;; header
00000000  00000000          + 3653  		DD	.LI_E-.LI_B	;; length
00000004                      3654  	.LI_B
00000004  0200                3655  		DW	0x2	;; version
00000006  00000000          + 3656  		DD	.LAB_TOP	;; abbrev_table
0000000a  04                  3657  		DC	0x4	;; address_width
                              3658  	;; entry 1
0000000b  01                  3659  		DC	0x1	;; abbrev_code
0000000c  636F64655C50574D    3660  		DC	"code\\PWM_CTRL.c",0x0	;; DW_AT_name
00000014  5F4354524C2E6300    3660  	
0000001c  00000000          + 3661  		DD	.LLN_TOP	;; DW_AT_stmt_list
00000020  00000000          + 3662  		DD	.LPC_TOP	;; DW_AT_low_pc
00000024  00000000          + 3663  		DD	.LPC_END	;; DW_AT_high_pc
00000028  0100                3664  		DW	0x1	;; DW_AT_language
0000002a  463A5C576F726B20    3665  		DC	"F:\\Work Projects\\MotorDrive\\1000W_MotorDrive\\SoftWare\\1000wMotor\\1000W",0x0	;; DW_AT_comp_dir
00000032  50726F6A65637473    3665  	
0000003a  5C4D6F746F724472    3665  	
00000042  6976655C31303030    3665  	
0000004a  575F4D6F746F7244    3665  	
00000052  726976655C536F66    3665  	
0000005a  74576172655C3130    3665  	
00000062  3030774D6F746F72    3665  	
0000006a  5C313030305700      3665  	
00000071  4D4E313033532053    3666  		DC	"MN103S Series C Compiler Windows V5.4R1 Nov 30 2011",0x0	;; DW_AT_producer
00000079  6572696573204320    3666  	
00000081  436F6D70696C6572    3666  	
00000089  2057696E646F7773    3666  	
00000091  2056352E34523120    3666  	
00000099  4E6F762033302032    3666  	
000000a1  30313100            3666  	
000000a5  00                  3667  		DC	0x0	;; DW_AT_identifier_case
                              3668  	;; entry 2
000000a6                      3669  	.LDW10
000000a6  02                  3670  		DC	0x2	;; abbrev_code
000000a7  646F75626C6500      3671  		DC	"double",0x0	;; DW_AT_name
000000ae  08                  3672  		DC	0x8	;; DW_AT_byte_size
000000af  0400                3673  		DW	0x4	;; DW_AT_encoding
                              3674  	;; entry 3
000000b1                      3675  	.LDW9
000000b1  02                  3676  		DC	0x2	;; abbrev_code
000000b2  666C6F617400        3677  		DC	"float",0x0	;; DW_AT_name
000000b8  04                  3678  		DC	0x4	;; DW_AT_byte_size
000000b9  0400                3679  		DW	0x4	;; DW_AT_encoding
                              3680  	;; entry 4
000000bb                      3681  	.LDW8
000000bb  02                  3682  		DC	0x2	;; abbrev_code
000000bc  6C6F6E67206C6F6E    3683  		DC	"long long",0x0	;; DW_AT_name
000000c4  6700                3683  	
000000c6  08                  3684  		DC	0x8	;; DW_AT_byte_size
000000c7  0700                3685  		DW	0x7	;; DW_AT_encoding
                              3686  	;; entry 5
000000c9                      3687  	.LDW7
000000c9  02                  3688  		DC	0x2	;; abbrev_code
000000ca  6C6F6E6700          3689  		DC	"long",0x0	;; DW_AT_name
000000cf  04                  3690  		DC	0x4	;; DW_AT_byte_size
000000d0  0700                3691  		DW	0x7	;; DW_AT_encoding
                              3692  	;; entry 6
000000d2                      3693  	.LDW6
000000d2  02                  3694  		DC	0x2	;; abbrev_code
000000d3  73686F727400        3695  		DC	"short",0x0	;; DW_AT_name
000000d9  02                  3696  		DC	0x2	;; DW_AT_byte_size
000000da  0700                3697  		DW	0x7	;; DW_AT_encoding
                              3698  	;; entry 7
000000dc                      3699  	.LDW5
000000dc  02                  3700  		DC	0x2	;; abbrev_code
000000dd  6368617200          3701  		DC	"char",0x0	;; DW_AT_name
000000e2  01                  3702  		DC	0x1	;; DW_AT_byte_size
000000e3  0800                3703  		DW	0x8	;; DW_AT_encoding
                              3704  	;; entry 8
000000e5                      3705  	.LDW4
000000e5  02                  3706  		DC	0x2	;; abbrev_code
000000e6  6C6F6E67206C6F6E    3707  		DC	"long long",0x0	;; DW_AT_name
000000ee  6700                3707  	
000000f0  08                  3708  		DC	0x8	;; DW_AT_byte_size
000000f1  0500                3709  		DW	0x5	;; DW_AT_encoding
                              3710  	;; entry 9
000000f3                      3711  	.LDW3
000000f3  02                  3712  		DC	0x2	;; abbrev_code
000000f4  6C6F6E6700          3713  		DC	"long",0x0	;; DW_AT_name
000000f9  04                  3714  		DC	0x4	;; DW_AT_byte_size
000000fa  0500                3715  		DW	0x5	;; DW_AT_encoding
                              3716  	;; entry 10
000000fc                      3717  	.LDW2
000000fc  02                  3718  		DC	0x2	;; abbrev_code
000000fd  73686F727400        3719  		DC	"short",0x0	;; DW_AT_name
00000103  02                  3720  		DC	0x2	;; DW_AT_byte_size
00000104  0500                3721  		DW	0x5	;; DW_AT_encoding
                              3722  	;; entry 11
00000106                      3723  	.LDW1
00000106  02                  3724  		DC	0x2	;; abbrev_code
00000107  6368617200          3725  		DC	"char",0x0	;; DW_AT_name
0000010c  01                  3726  		DC	0x1	;; DW_AT_byte_size
0000010d  0600                3727  		DW	0x6	;; DW_AT_encoding
                              3728  	;; entry 12
0000010f  03                  3729  		DC	0x3	;; abbrev_code
00000110  636861725F7400      3730  		DC	"char_t",0x0	;; DW_AT_name
00000117  00000000          + 3731  		DD	.LDW1-.LI_TOP	;; DW_AT_type
                              3732  	;; entry 13
0000011b  03                  3733  		DC	0x3	;; abbrev_code
0000011c  696E74385F7400      3734  		DC	"int8_t",0x0	;; DW_AT_name
00000123  00000000          + 3735  		DD	.LDW1-.LI_TOP	;; DW_AT_type
                              3736  	;; entry 14
00000127  03                  3737  		DC	0x3	;; abbrev_code
00000128  696E7431365F7400    3738  		DC	"int16_t",0x0	;; DW_AT_name
00000130  00000000          + 3739  		DD	.LDW2-.LI_TOP	;; DW_AT_type
                              3740  	;; entry 15
00000134  03                  3741  		DC	0x3	;; abbrev_code
00000135  696E7433325F7400    3742  		DC	"int32_t",0x0	;; DW_AT_name
0000013d  00000000          + 3743  		DD	.LDW3-.LI_TOP	;; DW_AT_type
                              3744  	;; entry 16
00000141  03                  3745  		DC	0x3	;; abbrev_code
00000142  696E7436345F7400    3746  		DC	"int64_t",0x0	;; DW_AT_name
0000014a  00000000          + 3747  		DD	.LDW4-.LI_TOP	;; DW_AT_type
                              3748  	;; entry 17
0000014e  03                  3749  		DC	0x3	;; abbrev_code
0000014f  75696E74385F7400    3750  		DC	"uint8_t",0x0	;; DW_AT_name
00000157  00000000          + 3751  		DD	.LDW5-.LI_TOP	;; DW_AT_type
                              3752  	;; entry 18
0000015b  03                  3753  		DC	0x3	;; abbrev_code
0000015c  75696E7431365F74    3754  		DC	"uint16_t",0x0	;; DW_AT_name
00000164  00                  3754  	
00000165  00000000          + 3755  		DD	.LDW6-.LI_TOP	;; DW_AT_type
                              3756  	;; entry 19
00000169  03                  3757  		DC	0x3	;; abbrev_code
0000016a  75696E7433325F74    3758  		DC	"uint32_t",0x0	;; DW_AT_name
00000172  00                  3758  	
00000173  00000000          + 3759  		DD	.LDW7-.LI_TOP	;; DW_AT_type
                              3760  	;; entry 20
00000177  03                  3761  		DC	0x3	;; abbrev_code
00000178  75696E7436345F74    3762  		DC	"uint64_t",0x0	;; DW_AT_name
00000180  00                  3762  	
00000181  00000000          + 3763  		DD	.LDW8-.LI_TOP	;; DW_AT_type
                              3764  	;; entry 21
00000185  03                  3765  		DC	0x3	;; abbrev_code
00000186  666C6F617433325F    3766  		DC	"float32_t",0x0	;; DW_AT_name
0000018e  7400                3766  	
00000190  00000000          + 3767  		DD	.LDW9-.LI_TOP	;; DW_AT_type
                              3768  	;; entry 22
00000194  03                  3769  		DC	0x3	;; abbrev_code
00000195  666C6F617436345F    3770  		DC	"float64_t",0x0	;; DW_AT_name
0000019d  7400                3770  	
0000019f  00000000          + 3771  		DD	.LDW10-.LI_TOP	;; DW_AT_type
                              3772  	;; entry 23
000001a3                      3773  	.LDW11
000001a3  04                  3774  		DC	0x4	;; abbrev_code
000001a4  08                  3775  		DC	0x8	;; DW_AT_byte_size
                              3776  	;; entry 24
000001a5  05                  3777  		DC	0x5	;; abbrev_code
000001a6  6C6F7700            3778  		DC	"low",0x0	;; DW_AT_name
                              3779  				;; DW_AT_data_member_location
000001aa  02                  3780  		DC	0x2	;;   size of loc_exp
000001ab  23                  3781  		DC	0x23	;;   DW_OP_plus_uconst
000001ac  00                  3782  		DC	0x0	;;     operand
000001ad  00000000          + 3783  		DD	.LDW3-.LI_TOP	;; DW_AT_type
                              3784  	;; entry 25
000001b1  05                  3785  		DC	0x5	;; abbrev_code
000001b2  6869676800          3786  		DC	"high",0x0	;; DW_AT_name
                              3787  				;; DW_AT_data_member_location
000001b7  02                  3788  		DC	0x2	;;   size of loc_exp
000001b8  23                  3789  		DC	0x23	;;   DW_OP_plus_uconst
000001b9  04                  3790  		DC	0x4	;;     operand
000001ba  00000000          + 3791  		DD	.LDW3-.LI_TOP	;; DW_AT_type
                              3792  	;; NULL ENTRY 26
000001be  00                  3793  		DC	0x0
                              3794  	;; entry 27
000001bf                      3795  	.LDW12
000001bf  04                  3796  		DC	0x4	;; abbrev_code
000001c0  08                  3797  		DC	0x8	;; DW_AT_byte_size
                              3798  	;; entry 28
000001c1  05                  3799  		DC	0x5	;; abbrev_code
000001c2  6C6F7700            3800  		DC	"low",0x0	;; DW_AT_name
                              3801  				;; DW_AT_data_member_location
000001c6  02                  3802  		DC	0x2	;;   size of loc_exp
000001c7  23                  3803  		DC	0x23	;;   DW_OP_plus_uconst
000001c8  00                  3804  		DC	0x0	;;     operand
000001c9  00000000          + 3805  		DD	.LDW7-.LI_TOP	;; DW_AT_type
                              3806  	;; entry 29
000001cd  05                  3807  		DC	0x5	;; abbrev_code
000001ce  6869676800          3808  		DC	"high",0x0	;; DW_AT_name
                              3809  				;; DW_AT_data_member_location
000001d3  02                  3810  		DC	0x2	;;   size of loc_exp
000001d4  23                  3811  		DC	0x23	;;   DW_OP_plus_uconst
000001d5  04                  3812  		DC	0x4	;;     operand
000001d6  00000000          + 3813  		DD	.LDW7-.LI_TOP	;; DW_AT_type
                              3814  	;; NULL ENTRY 30
000001da  00                  3815  		DC	0x0
                              3816  	;; entry 31
000001db                      3817  	.LDW13
000001db  06                  3818  		DC	0x6	;; abbrev_code
000001dc  08                  3819  		DC	0x8	;; DW_AT_byte_size
                              3820  	;; entry 32
000001dd  05                  3821  		DC	0x5	;; abbrev_code
000001de  646C776F726400      3822  		DC	"dlword",0x0	;; DW_AT_name
                              3823  				;; DW_AT_data_member_location
000001e5  02                  3824  		DC	0x2	;;   size of loc_exp
000001e6  23                  3825  		DC	0x23	;;   DW_OP_plus_uconst
000001e7  00                  3826  		DC	0x0	;;     operand
000001e8  00000000          + 3827  		DD	.LDW4-.LI_TOP	;; DW_AT_type
                              3828  	;; entry 33
000001ec  05                  3829  		DC	0x5	;; abbrev_code
000001ed  6C776F726400        3830  		DC	"lword",0x0	;; DW_AT_name
                              3831  				;; DW_AT_data_member_location
000001f3  02                  3832  		DC	0x2	;;   size of loc_exp
000001f4  23                  3833  		DC	0x23	;;   DW_OP_plus_uconst
000001f5  00                  3834  		DC	0x0	;;     operand
000001f6  00000000          + 3835  		DD	.LDW11-.LI_TOP	;; DW_AT_type
                              3836  	;; entry 34
000001fa  05                  3837  		DC	0x5	;; abbrev_code
000001fb  75646C776F726400    3838  		DC	"udlword",0x0	;; DW_AT_name
                              3839  				;; DW_AT_data_member_location
00000203  02                  3840  		DC	0x2	;;   size of loc_exp
00000204  23                  3841  		DC	0x23	;;   DW_OP_plus_uconst
00000205  00                  3842  		DC	0x0	;;     operand
00000206  00000000          + 3843  		DD	.LDW8-.LI_TOP	;; DW_AT_type
                              3844  	;; entry 35
0000020a  05                  3845  		DC	0x5	;; abbrev_code
0000020b  756C776F726400      3846  		DC	"ulword",0x0	;; DW_AT_name
                              3847  				;; DW_AT_data_member_location
00000212  02                  3848  		DC	0x2	;;   size of loc_exp
00000213  23                  3849  		DC	0x23	;;   DW_OP_plus_uconst
00000214  00                  3850  		DC	0x0	;;     operand
00000215  00000000          + 3851  		DD	.LDW12-.LI_TOP	;; DW_AT_type
                              3852  	;; NULL ENTRY 36
00000219  00                  3853  		DC	0x0
                              3854  	;; entry 37
0000021a  03                  3855  		DC	0x3	;; abbrev_code
0000021b  646C776F72645F74    3856  		DC	"dlword_type",0x0	;; DW_AT_name
00000223  79706500            3856  	
00000227  00000000          + 3857  		DD	.LDW13-.LI_TOP	;; DW_AT_type
                              3858  	;; entry 38
0000022b                      3859  	.LDW14
0000022b  04                  3860  		DC	0x4	;; abbrev_code
0000022c  04                  3861  		DC	0x4	;; DW_AT_byte_size
                              3862  	;; entry 39
0000022d  05                  3863  		DC	0x5	;; abbrev_code
0000022e  6C6F7700            3864  		DC	"low",0x0	;; DW_AT_name
                              3865  				;; DW_AT_data_member_location
00000232  02                  3866  		DC	0x2	;;   size of loc_exp
00000233  23                  3867  		DC	0x23	;;   DW_OP_plus_uconst
00000234  00                  3868  		DC	0x0	;;     operand
00000235  00000000          + 3869  		DD	.LDW2-.LI_TOP	;; DW_AT_type
                              3870  	;; entry 40
00000239  05                  3871  		DC	0x5	;; abbrev_code
0000023a  6869676800          3872  		DC	"high",0x0	;; DW_AT_name
                              3873  				;; DW_AT_data_member_location
0000023f  02                  3874  		DC	0x2	;;   size of loc_exp
00000240  23                  3875  		DC	0x23	;;   DW_OP_plus_uconst
00000241  02                  3876  		DC	0x2	;;     operand
00000242  00000000          + 3877  		DD	.LDW2-.LI_TOP	;; DW_AT_type
                              3878  	;; NULL ENTRY 41
00000246  00                  3879  		DC	0x0
                              3880  	;; entry 42
00000247                      3881  	.LDW15
00000247  04                  3882  		DC	0x4	;; abbrev_code
00000248  04                  3883  		DC	0x4	;; DW_AT_byte_size
                              3884  	;; entry 43
00000249  05                  3885  		DC	0x5	;; abbrev_code
0000024a  4C4C00              3886  		DC	"LL",0x0	;; DW_AT_name
                              3887  				;; DW_AT_data_member_location
0000024d  02                  3888  		DC	0x2	;;   size of loc_exp
0000024e  23                  3889  		DC	0x23	;;   DW_OP_plus_uconst
0000024f  00                  3890  		DC	0x0	;;     operand
00000250  00000000          + 3891  		DD	.LDW1-.LI_TOP	;; DW_AT_type
                              3892  	;; entry 44
00000254  05                  3893  		DC	0x5	;; abbrev_code
00000255  4C4800              3894  		DC	"LH",0x0	;; DW_AT_name
                              3895  				;; DW_AT_data_member_location
00000258  02                  3896  		DC	0x2	;;   size of loc_exp
00000259  23                  3897  		DC	0x23	;;   DW_OP_plus_uconst
0000025a  01                  3898  		DC	0x1	;;     operand
0000025b  00000000          + 3899  		DD	.LDW1-.LI_TOP	;; DW_AT_type
                              3900  	;; entry 45
0000025f  05                  3901  		DC	0x5	;; abbrev_code
00000260  484C00              3902  		DC	"HL",0x0	;; DW_AT_name
                              3903  				;; DW_AT_data_member_location
00000263  02                  3904  		DC	0x2	;;   size of loc_exp
00000264  23                  3905  		DC	0x23	;;   DW_OP_plus_uconst
00000265  02                  3906  		DC	0x2	;;     operand
00000266  00000000          + 3907  		DD	.LDW1-.LI_TOP	;; DW_AT_type
                              3908  	;; entry 46
0000026a  05                  3909  		DC	0x5	;; abbrev_code
0000026b  484800              3910  		DC	"HH",0x0	;; DW_AT_name
                              3911  				;; DW_AT_data_member_location
0000026e  02                  3912  		DC	0x2	;;   size of loc_exp
0000026f  23                  3913  		DC	0x23	;;   DW_OP_plus_uconst
00000270  03                  3914  		DC	0x3	;;     operand
00000271  00000000          + 3915  		DD	.LDW1-.LI_TOP	;; DW_AT_type
                              3916  	;; NULL ENTRY 47
00000275  00                  3917  		DC	0x0
                              3918  	;; entry 48
00000276                      3919  	.LDW16
00000276  04                  3920  		DC	0x4	;; abbrev_code
00000277  04                  3921  		DC	0x4	;; DW_AT_byte_size
                              3922  	;; entry 49
00000278  05                  3923  		DC	0x5	;; abbrev_code
00000279  6C6F7700            3924  		DC	"low",0x0	;; DW_AT_name
                              3925  				;; DW_AT_data_member_location
0000027d  02                  3926  		DC	0x2	;;   size of loc_exp
0000027e  23                  3927  		DC	0x23	;;   DW_OP_plus_uconst
0000027f  00                  3928  		DC	0x0	;;     operand
00000280  00000000          + 3929  		DD	.LDW6-.LI_TOP	;; DW_AT_type
                              3930  	;; entry 50
00000284  05                  3931  		DC	0x5	;; abbrev_code
00000285  6869676800          3932  		DC	"high",0x0	;; DW_AT_name
                              3933  				;; DW_AT_data_member_location
0000028a  02                  3934  		DC	0x2	;;   size of loc_exp
0000028b  23                  3935  		DC	0x23	;;   DW_OP_plus_uconst
0000028c  02                  3936  		DC	0x2	;;     operand
0000028d  00000000          + 3937  		DD	.LDW6-.LI_TOP	;; DW_AT_type
                              3938  	;; NULL ENTRY 51
00000291  00                  3939  		DC	0x0
                              3940  	;; entry 52
00000292                      3941  	.LDW17
00000292  04                  3942  		DC	0x4	;; abbrev_code
00000293  04                  3943  		DC	0x4	;; DW_AT_byte_size
                              3944  	;; entry 53
00000294  05                  3945  		DC	0x5	;; abbrev_code
00000295  4C4C00              3946  		DC	"LL",0x0	;; DW_AT_name
                              3947  				;; DW_AT_data_member_location
00000298  02                  3948  		DC	0x2	;;   size of loc_exp
00000299  23                  3949  		DC	0x23	;;   DW_OP_plus_uconst
0000029a  00                  3950  		DC	0x0	;;     operand
0000029b  00000000          + 3951  		DD	.LDW5-.LI_TOP	;; DW_AT_type
                              3952  	;; entry 54
0000029f  05                  3953  		DC	0x5	;; abbrev_code
000002a0  4C4800              3954  		DC	"LH",0x0	;; DW_AT_name
                              3955  				;; DW_AT_data_member_location
000002a3  02                  3956  		DC	0x2	;;   size of loc_exp
000002a4  23                  3957  		DC	0x23	;;   DW_OP_plus_uconst
000002a5  01                  3958  		DC	0x1	;;     operand
000002a6  00000000          + 3959  		DD	.LDW5-.LI_TOP	;; DW_AT_type
                              3960  	;; entry 55
000002aa  05                  3961  		DC	0x5	;; abbrev_code
000002ab  484C00              3962  		DC	"HL",0x0	;; DW_AT_name
                              3963  				;; DW_AT_data_member_location
000002ae  02                  3964  		DC	0x2	;;   size of loc_exp
000002af  23                  3965  		DC	0x23	;;   DW_OP_plus_uconst
000002b0  02                  3966  		DC	0x2	;;     operand
000002b1  00000000          + 3967  		DD	.LDW5-.LI_TOP	;; DW_AT_type
                              3968  	;; entry 56
000002b5  05                  3969  		DC	0x5	;; abbrev_code
000002b6  484800              3970  		DC	"HH",0x0	;; DW_AT_name
                              3971  				;; DW_AT_data_member_location
000002b9  02                  3972  		DC	0x2	;;   size of loc_exp
000002ba  23                  3973  		DC	0x23	;;   DW_OP_plus_uconst
000002bb  03                  3974  		DC	0x3	;;     operand
000002bc  00000000          + 3975  		DD	.LDW5-.LI_TOP	;; DW_AT_type
                              3976  	;; NULL ENTRY 57
000002c0  00                  3977  		DC	0x0
                              3978  	;; entry 58
000002c1                      3979  	.LDW18
000002c1  06                  3980  		DC	0x6	;; abbrev_code
000002c2  04                  3981  		DC	0x4	;; DW_AT_byte_size
                              3982  	;; entry 59
000002c3  05                  3983  		DC	0x5	;; abbrev_code
000002c4  6C776F726400        3984  		DC	"lword",0x0	;; DW_AT_name
                              3985  				;; DW_AT_data_member_location
000002ca  02                  3986  		DC	0x2	;;   size of loc_exp
000002cb  23                  3987  		DC	0x23	;;   DW_OP_plus_uconst
000002cc  00                  3988  		DC	0x0	;;     operand
000002cd  00000000          + 3989  		DD	.LDW3-.LI_TOP	;; DW_AT_type
                              3990  	;; entry 60
000002d1  05                  3991  		DC	0x5	;; abbrev_code
000002d2  776F726400          3992  		DC	"word",0x0	;; DW_AT_name
                              3993  				;; DW_AT_data_member_location
000002d7  02                  3994  		DC	0x2	;;   size of loc_exp
000002d8  23                  3995  		DC	0x23	;;   DW_OP_plus_uconst
000002d9  00                  3996  		DC	0x0	;;     operand
000002da  00000000          + 3997  		DD	.LDW14-.LI_TOP	;; DW_AT_type
                              3998  	;; entry 61
000002de  05                  3999  		DC	0x5	;; abbrev_code
000002df  6279746500          4000  		DC	"byte",0x0	;; DW_AT_name
                              4001  				;; DW_AT_data_member_location
000002e4  02                  4002  		DC	0x2	;;   size of loc_exp
000002e5  23                  4003  		DC	0x23	;;   DW_OP_plus_uconst
000002e6  00                  4004  		DC	0x0	;;     operand
000002e7  00000000          + 4005  		DD	.LDW15-.LI_TOP	;; DW_AT_type
                              4006  	;; entry 62
000002eb  05                  4007  		DC	0x5	;; abbrev_code
000002ec  756C776F726400      4008  		DC	"ulword",0x0	;; DW_AT_name
                              4009  				;; DW_AT_data_member_location
000002f3  02                  4010  		DC	0x2	;;   size of loc_exp
000002f4  23                  4011  		DC	0x23	;;   DW_OP_plus_uconst
000002f5  00                  4012  		DC	0x0	;;     operand
000002f6  00000000          + 4013  		DD	.LDW7-.LI_TOP	;; DW_AT_type
                              4014  	;; entry 63
000002fa  05                  4015  		DC	0x5	;; abbrev_code
000002fb  75776F726400        4016  		DC	"uword",0x0	;; DW_AT_name
                              4017  				;; DW_AT_data_member_location
00000301  02                  4018  		DC	0x2	;;   size of loc_exp
00000302  23                  4019  		DC	0x23	;;   DW_OP_plus_uconst
00000303  00                  4020  		DC	0x0	;;     operand
00000304  00000000          + 4021  		DD	.LDW16-.LI_TOP	;; DW_AT_type
                              4022  	;; entry 64
00000308  05                  4023  		DC	0x5	;; abbrev_code
00000309  756279746500        4024  		DC	"ubyte",0x0	;; DW_AT_name
                              4025  				;; DW_AT_data_member_location
0000030f  02                  4026  		DC	0x2	;;   size of loc_exp
00000310  23                  4027  		DC	0x23	;;   DW_OP_plus_uconst
00000311  00                  4028  		DC	0x0	;;     operand
00000312  00000000          + 4029  		DD	.LDW17-.LI_TOP	;; DW_AT_type
                              4030  	;; NULL ENTRY 65
00000316  00                  4031  		DC	0x0
                              4032  	;; entry 66
00000317  03                  4033  		DC	0x3	;; abbrev_code
00000318  6C776F72645F7479    4034  		DC	"lword_type",0x0	;; DW_AT_name
00000320  706500              4034  	
00000323  00000000          + 4035  		DD	.LDW18-.LI_TOP	;; DW_AT_type
                              4036  	;; entry 67
00000327                      4037  	.LDW19
00000327  04                  4038  		DC	0x4	;; abbrev_code
00000328  04                  4039  		DC	0x4	;; DW_AT_byte_size
                              4040  	;; entry 68
00000329  05                  4041  		DC	0x5	;; abbrev_code
0000032a  6C6F7700            4042  		DC	"low",0x0	;; DW_AT_name
                              4043  				;; DW_AT_data_member_location
0000032e  02                  4044  		DC	0x2	;;   size of loc_exp
0000032f  23                  4045  		DC	0x23	;;   DW_OP_plus_uconst
00000330  00                  4046  		DC	0x0	;;     operand
00000331  00000000          + 4047  		DD	.LDW1-.LI_TOP	;; DW_AT_type
                              4048  	;; entry 69
00000335  05                  4049  		DC	0x5	;; abbrev_code
00000336  6869676800          4050  		DC	"high",0x0	;; DW_AT_name
                              4051  				;; DW_AT_data_member_location
0000033b  02                  4052  		DC	0x2	;;   size of loc_exp
0000033c  23                  4053  		DC	0x23	;;   DW_OP_plus_uconst
0000033d  01                  4054  		DC	0x1	;;     operand
0000033e  00000000          + 4055  		DD	.LDW1-.LI_TOP	;; DW_AT_type
                              4056  	;; NULL ENTRY 70
00000342  00                  4057  		DC	0x0
                              4058  	;; entry 71
00000343                      4059  	.LDW20
00000343  04                  4060  		DC	0x4	;; abbrev_code
00000344  04                  4061  		DC	0x4	;; DW_AT_byte_size
                              4062  	;; entry 72
00000345  05                  4063  		DC	0x5	;; abbrev_code
00000346  6C6F7700            4064  		DC	"low",0x0	;; DW_AT_name
                              4065  				;; DW_AT_data_member_location
0000034a  02                  4066  		DC	0x2	;;   size of loc_exp
0000034b  23                  4067  		DC	0x23	;;   DW_OP_plus_uconst
0000034c  00                  4068  		DC	0x0	;;     operand
0000034d  00000000          + 4069  		DD	.LDW5-.LI_TOP	;; DW_AT_type
                              4070  	;; entry 73
00000351  05                  4071  		DC	0x5	;; abbrev_code
00000352  6869676800          4072  		DC	"high",0x0	;; DW_AT_name
                              4073  				;; DW_AT_data_member_location
00000357  02                  4074  		DC	0x2	;;   size of loc_exp
00000358  23                  4075  		DC	0x23	;;   DW_OP_plus_uconst
00000359  01                  4076  		DC	0x1	;;     operand
0000035a  00000000          + 4077  		DD	.LDW5-.LI_TOP	;; DW_AT_type
                              4078  	;; NULL ENTRY 74
0000035e  00                  4079  		DC	0x0
                              4080  	;; entry 75
0000035f                      4081  	.LDW21
0000035f  06                  4082  		DC	0x6	;; abbrev_code
00000360  04                  4083  		DC	0x4	;; DW_AT_byte_size
                              4084  	;; entry 76
00000361  05                  4085  		DC	0x5	;; abbrev_code
00000362  776F726400          4086  		DC	"word",0x0	;; DW_AT_name
                              4087  				;; DW_AT_data_member_location
00000367  02                  4088  		DC	0x2	;;   size of loc_exp
00000368  23                  4089  		DC	0x23	;;   DW_OP_plus_uconst
00000369  00                  4090  		DC	0x0	;;     operand
0000036a  00000000          + 4091  		DD	.LDW2-.LI_TOP	;; DW_AT_type
                              4092  	;; entry 77
0000036e  05                  4093  		DC	0x5	;; abbrev_code
0000036f  6279746500          4094  		DC	"byte",0x0	;; DW_AT_name
                              4095  				;; DW_AT_data_member_location
00000374  02                  4096  		DC	0x2	;;   size of loc_exp
00000375  23                  4097  		DC	0x23	;;   DW_OP_plus_uconst
00000376  00                  4098  		DC	0x0	;;     operand
00000377  00000000          + 4099  		DD	.LDW19-.LI_TOP	;; DW_AT_type
                              4100  	;; entry 78
0000037b  05                  4101  		DC	0x5	;; abbrev_code
0000037c  75776F726400        4102  		DC	"uword",0x0	;; DW_AT_name
                              4103  				;; DW_AT_data_member_location
00000382  02                  4104  		DC	0x2	;;   size of loc_exp
00000383  23                  4105  		DC	0x23	;;   DW_OP_plus_uconst
00000384  00                  4106  		DC	0x0	;;     operand
00000385  00000000          + 4107  		DD	.LDW6-.LI_TOP	;; DW_AT_type
                              4108  	;; entry 79
00000389  05                  4109  		DC	0x5	;; abbrev_code
0000038a  756279746500        4110  		DC	"ubyte",0x0	;; DW_AT_name
                              4111  				;; DW_AT_data_member_location
00000390  02                  4112  		DC	0x2	;;   size of loc_exp
00000391  23                  4113  		DC	0x23	;;   DW_OP_plus_uconst
00000392  00                  4114  		DC	0x0	;;     operand
00000393  00000000          + 4115  		DD	.LDW20-.LI_TOP	;; DW_AT_type
                              4116  	;; NULL ENTRY 80
00000397  00                  4117  		DC	0x0
                              4118  	;; entry 81
00000398  03                  4119  		DC	0x3	;; abbrev_code
00000399  776F72645F747970    4120  		DC	"word_type",0x0	;; DW_AT_name
000003a1  6500                4120  	
000003a3  00000000          + 4121  		DD	.LDW21-.LI_TOP	;; DW_AT_type
                              4122  	;; entry 82
000003a7                      4123  	.LDW22
000003a7  04                  4124  		DC	0x4	;; abbrev_code
000003a8  04                  4125  		DC	0x4	;; DW_AT_byte_size
                              4126  	;; entry 83
000003a9  07                  4127  		DC	0x7	;; abbrev_code
000003aa  6269743000          4128  		DC	"bit0",0x0	;; DW_AT_name
000003af  02                  4129  		DC	0x2	;; DW_AT_byte_size
000003b0  0F                  4130  		DC	0xf	;; DW_AT_bit_offset
000003b1  01                  4131  		DC	0x1	;; DW_AT_bit_size
                              4132  				;; DW_AT_data_member_location
000003b2  02                  4133  		DC	0x2	;;   size of loc_exp
000003b3  23                  4134  		DC	0x23	;;   DW_OP_plus_uconst
000003b4  00                  4135  		DC	0x0	;;     operand
000003b5  00000000          + 4136  		DD	.LDW6-.LI_TOP	;; DW_AT_type
                              4137  	;; entry 84
000003b9  07                  4138  		DC	0x7	;; abbrev_code
000003ba  6269743100          4139  		DC	"bit1",0x0	;; DW_AT_name
000003bf  02                  4140  		DC	0x2	;; DW_AT_byte_size
000003c0  0E                  4141  		DC	0xe	;; DW_AT_bit_offset
000003c1  01                  4142  		DC	0x1	;; DW_AT_bit_size
                              4143  				;; DW_AT_data_member_location
000003c2  02                  4144  		DC	0x2	;;   size of loc_exp
000003c3  23                  4145  		DC	0x23	;;   DW_OP_plus_uconst
000003c4  00                  4146  		DC	0x0	;;     operand
000003c5  00000000          + 4147  		DD	.LDW6-.LI_TOP	;; DW_AT_type
                              4148  	;; entry 85
000003c9  07                  4149  		DC	0x7	;; abbrev_code
000003ca  6269743200          4150  		DC	"bit2",0x0	;; DW_AT_name
000003cf  02                  4151  		DC	0x2	;; DW_AT_byte_size
000003d0  0D                  4152  		DC	0xd	;; DW_AT_bit_offset
000003d1  01                  4153  		DC	0x1	;; DW_AT_bit_size
                              4154  				;; DW_AT_data_member_location
000003d2  02                  4155  		DC	0x2	;;   size of loc_exp
000003d3  23                  4156  		DC	0x23	;;   DW_OP_plus_uconst
000003d4  00                  4157  		DC	0x0	;;     operand
000003d5  00000000          + 4158  		DD	.LDW6-.LI_TOP	;; DW_AT_type
                              4159  	;; entry 86
000003d9  07                  4160  		DC	0x7	;; abbrev_code
000003da  6269743300          4161  		DC	"bit3",0x0	;; DW_AT_name
000003df  02                  4162  		DC	0x2	;; DW_AT_byte_size
000003e0  0C                  4163  		DC	0xc	;; DW_AT_bit_offset
000003e1  01                  4164  		DC	0x1	;; DW_AT_bit_size
                              4165  				;; DW_AT_data_member_location
000003e2  02                  4166  		DC	0x2	;;   size of loc_exp
000003e3  23                  4167  		DC	0x23	;;   DW_OP_plus_uconst
000003e4  00                  4168  		DC	0x0	;;     operand
000003e5  00000000          + 4169  		DD	.LDW6-.LI_TOP	;; DW_AT_type
                              4170  	;; entry 87
000003e9  07                  4171  		DC	0x7	;; abbrev_code
000003ea  6269743400          4172  		DC	"bit4",0x0	;; DW_AT_name
000003ef  02                  4173  		DC	0x2	;; DW_AT_byte_size
000003f0  0B                  4174  		DC	0xb	;; DW_AT_bit_offset
000003f1  01                  4175  		DC	0x1	;; DW_AT_bit_size
                              4176  				;; DW_AT_data_member_location
000003f2  02                  4177  		DC	0x2	;;   size of loc_exp
000003f3  23                  4178  		DC	0x23	;;   DW_OP_plus_uconst
000003f4  00                  4179  		DC	0x0	;;     operand
000003f5  00000000          + 4180  		DD	.LDW6-.LI_TOP	;; DW_AT_type
                              4181  	;; entry 88
000003f9  07                  4182  		DC	0x7	;; abbrev_code
000003fa  6269743500          4183  		DC	"bit5",0x0	;; DW_AT_name
000003ff  02                  4184  		DC	0x2	;; DW_AT_byte_size
00000400  0A                  4185  		DC	0xa	;; DW_AT_bit_offset
00000401  01                  4186  		DC	0x1	;; DW_AT_bit_size
                              4187  				;; DW_AT_data_member_location
00000402  02                  4188  		DC	0x2	;;   size of loc_exp
00000403  23                  4189  		DC	0x23	;;   DW_OP_plus_uconst
00000404  00                  4190  		DC	0x0	;;     operand
00000405  00000000          + 4191  		DD	.LDW6-.LI_TOP	;; DW_AT_type
                              4192  	;; entry 89
00000409  07                  4193  		DC	0x7	;; abbrev_code
0000040a  6269743600          4194  		DC	"bit6",0x0	;; DW_AT_name
0000040f  02                  4195  		DC	0x2	;; DW_AT_byte_size
00000410  09                  4196  		DC	0x9	;; DW_AT_bit_offset
00000411  01                  4197  		DC	0x1	;; DW_AT_bit_size
                              4198  				;; DW_AT_data_member_location
00000412  02                  4199  		DC	0x2	;;   size of loc_exp
00000413  23                  4200  		DC	0x23	;;   DW_OP_plus_uconst
00000414  00                  4201  		DC	0x0	;;     operand
00000415  00000000          + 4202  		DD	.LDW6-.LI_TOP	;; DW_AT_type
                              4203  	;; entry 90
00000419  07                  4204  		DC	0x7	;; abbrev_code
0000041a  6269743700          4205  		DC	"bit7",0x0	;; DW_AT_name
0000041f  02                  4206  		DC	0x2	;; DW_AT_byte_size
00000420  08                  4207  		DC	0x8	;; DW_AT_bit_offset
00000421  01                  4208  		DC	0x1	;; DW_AT_bit_size
                              4209  				;; DW_AT_data_member_location
00000422  02                  4210  		DC	0x2	;;   size of loc_exp
00000423  23                  4211  		DC	0x23	;;   DW_OP_plus_uconst
00000424  00                  4212  		DC	0x0	;;     operand
00000425  00000000          + 4213  		DD	.LDW6-.LI_TOP	;; DW_AT_type
                              4214  	;; entry 91
00000429  07                  4215  		DC	0x7	;; abbrev_code
0000042a  6269743800          4216  		DC	"bit8",0x0	;; DW_AT_name
0000042f  02                  4217  		DC	0x2	;; DW_AT_byte_size
00000430  07                  4218  		DC	0x7	;; DW_AT_bit_offset
00000431  01                  4219  		DC	0x1	;; DW_AT_bit_size
                              4220  				;; DW_AT_data_member_location
00000432  02                  4221  		DC	0x2	;;   size of loc_exp
00000433  23                  4222  		DC	0x23	;;   DW_OP_plus_uconst
00000434  00                  4223  		DC	0x0	;;     operand
00000435  00000000          + 4224  		DD	.LDW6-.LI_TOP	;; DW_AT_type
                              4225  	;; entry 92
00000439  07                  4226  		DC	0x7	;; abbrev_code
0000043a  6269743900          4227  		DC	"bit9",0x0	;; DW_AT_name
0000043f  02                  4228  		DC	0x2	;; DW_AT_byte_size
00000440  06                  4229  		DC	0x6	;; DW_AT_bit_offset
00000441  01                  4230  		DC	0x1	;; DW_AT_bit_size
                              4231  				;; DW_AT_data_member_location
00000442  02                  4232  		DC	0x2	;;   size of loc_exp
00000443  23                  4233  		DC	0x23	;;   DW_OP_plus_uconst
00000444  00                  4234  		DC	0x0	;;     operand
00000445  00000000          + 4235  		DD	.LDW6-.LI_TOP	;; DW_AT_type
                              4236  	;; entry 93
00000449  07                  4237  		DC	0x7	;; abbrev_code
0000044a  626974313000        4238  		DC	"bit10",0x0	;; DW_AT_name
00000450  02                  4239  		DC	0x2	;; DW_AT_byte_size
00000451  05                  4240  		DC	0x5	;; DW_AT_bit_offset
00000452  01                  4241  		DC	0x1	;; DW_AT_bit_size
                              4242  				;; DW_AT_data_member_location
00000453  02                  4243  		DC	0x2	;;   size of loc_exp
00000454  23                  4244  		DC	0x23	;;   DW_OP_plus_uconst
00000455  00                  4245  		DC	0x0	;;     operand
00000456  00000000          + 4246  		DD	.LDW6-.LI_TOP	;; DW_AT_type
                              4247  	;; entry 94
0000045a  07                  4248  		DC	0x7	;; abbrev_code
0000045b  626974313100        4249  		DC	"bit11",0x0	;; DW_AT_name
00000461  02                  4250  		DC	0x2	;; DW_AT_byte_size
00000462  04                  4251  		DC	0x4	;; DW_AT_bit_offset
00000463  01                  4252  		DC	0x1	;; DW_AT_bit_size
                              4253  				;; DW_AT_data_member_location
00000464  02                  4254  		DC	0x2	;;   size of loc_exp
00000465  23                  4255  		DC	0x23	;;   DW_OP_plus_uconst
00000466  00                  4256  		DC	0x0	;;     operand
00000467  00000000          + 4257  		DD	.LDW6-.LI_TOP	;; DW_AT_type
                              4258  	;; entry 95
0000046b  07                  4259  		DC	0x7	;; abbrev_code
0000046c  626974313200        4260  		DC	"bit12",0x0	;; DW_AT_name
00000472  02                  4261  		DC	0x2	;; DW_AT_byte_size
00000473  03                  4262  		DC	0x3	;; DW_AT_bit_offset
00000474  01                  4263  		DC	0x1	;; DW_AT_bit_size
                              4264  				;; DW_AT_data_member_location
00000475  02                  4265  		DC	0x2	;;   size of loc_exp
00000476  23                  4266  		DC	0x23	;;   DW_OP_plus_uconst
00000477  00                  4267  		DC	0x0	;;     operand
00000478  00000000          + 4268  		DD	.LDW6-.LI_TOP	;; DW_AT_type
                              4269  	;; entry 96
0000047c  07                  4270  		DC	0x7	;; abbrev_code
0000047d  626974313300        4271  		DC	"bit13",0x0	;; DW_AT_name
00000483  02                  4272  		DC	0x2	;; DW_AT_byte_size
00000484  02                  4273  		DC	0x2	;; DW_AT_bit_offset
00000485  01                  4274  		DC	0x1	;; DW_AT_bit_size
                              4275  				;; DW_AT_data_member_location
00000486  02                  4276  		DC	0x2	;;   size of loc_exp
00000487  23                  4277  		DC	0x23	;;   DW_OP_plus_uconst
00000488  00                  4278  		DC	0x0	;;     operand
00000489  00000000          + 4279  		DD	.LDW6-.LI_TOP	;; DW_AT_type
                              4280  	;; entry 97
0000048d  07                  4281  		DC	0x7	;; abbrev_code
0000048e  626974313400        4282  		DC	"bit14",0x0	;; DW_AT_name
00000494  02                  4283  		DC	0x2	;; DW_AT_byte_size
00000495  01                  4284  		DC	0x1	;; DW_AT_bit_offset
00000496  01                  4285  		DC	0x1	;; DW_AT_bit_size
                              4286  				;; DW_AT_data_member_location
00000497  02                  4287  		DC	0x2	;;   size of loc_exp
00000498  23                  4288  		DC	0x23	;;   DW_OP_plus_uconst
00000499  00                  4289  		DC	0x0	;;     operand
0000049a  00000000          + 4290  		DD	.LDW6-.LI_TOP	;; DW_AT_type
                              4291  	;; entry 98
0000049e  07                  4292  		DC	0x7	;; abbrev_code
0000049f  626974313500        4293  		DC	"bit15",0x0	;; DW_AT_name
000004a5  02                  4294  		DC	0x2	;; DW_AT_byte_size
000004a6  00                  4295  		DC	0x0	;; DW_AT_bit_offset
000004a7  01                  4296  		DC	0x1	;; DW_AT_bit_size
                              4297  				;; DW_AT_data_member_location
000004a8  02                  4298  		DC	0x2	;;   size of loc_exp
000004a9  23                  4299  		DC	0x23	;;   DW_OP_plus_uconst
000004aa  00                  4300  		DC	0x0	;;     operand
000004ab  00000000          + 4301  		DD	.LDW6-.LI_TOP	;; DW_AT_type
                              4302  	;; NULL ENTRY 99
000004af  00                  4303  		DC	0x0
                              4304  	;; entry 100
000004b0                      4305  	.LDW23
000004b0  06                  4306  		DC	0x6	;; abbrev_code
000004b1  04                  4307  		DC	0x4	;; DW_AT_byte_size
                              4308  	;; entry 101
000004b2  05                  4309  		DC	0x5	;; abbrev_code
000004b3  75776F726400        4310  		DC	"uword",0x0	;; DW_AT_name
                              4311  				;; DW_AT_data_member_location
000004b9  02                  4312  		DC	0x2	;;   size of loc_exp
000004ba  23                  4313  		DC	0x23	;;   DW_OP_plus_uconst
000004bb  00                  4314  		DC	0x0	;;     operand
000004bc  00000000          + 4315  		DD	.LDW6-.LI_TOP	;; DW_AT_type
                              4316  	;; entry 102
000004c0  05                  4317  		DC	0x5	;; abbrev_code
000004c1  6269747300          4318  		DC	"bits",0x0	;; DW_AT_name
                              4319  				;; DW_AT_data_member_location
000004c6  02                  4320  		DC	0x2	;;   size of loc_exp
000004c7  23                  4321  		DC	0x23	;;   DW_OP_plus_uconst
000004c8  00                  4322  		DC	0x0	;;     operand
000004c9  00000000          + 4323  		DD	.LDW22-.LI_TOP	;; DW_AT_type
                              4324  	;; NULL ENTRY 103
000004cd  00                  4325  		DC	0x0
                              4326  	;; entry 104
000004ce  03                  4327  		DC	0x3	;; abbrev_code
000004cf  666C61675F747970    4328  		DC	"flag_type",0x0	;; DW_AT_name
000004d7  6500                4328  	
000004d9  00000000          + 4329  		DD	.LDW23-.LI_TOP	;; DW_AT_type
                              4330  	;; entry 105
000004dd                      4331  	.LDW24
000004dd  04                  4332  		DC	0x4	;; abbrev_code
000004de  0C                  4333  		DC	0xc	;; DW_AT_byte_size
                              4334  	;; entry 106
000004df  05                  4335  		DC	0x5	;; abbrev_code
000004e0  76616C756500        4336  		DC	"value",0x0	;; DW_AT_name
                              4337  				;; DW_AT_data_member_location
000004e6  02                  4338  		DC	0x2	;;   size of loc_exp
000004e7  23                  4339  		DC	0x23	;;   DW_OP_plus_uconst
000004e8  00                  4340  		DC	0x0	;;     operand
000004e9  00000000          + 4341  		DD	.LDW2-.LI_TOP	;; DW_AT_type
                              4342  	;; entry 107
000004ed  05                  4343  		DC	0x5	;; abbrev_code
000004ee  6D617800            4344  		DC	"max",0x0	;; DW_AT_name
                              4345  				;; DW_AT_data_member_location
000004f2  02                  4346  		DC	0x2	;;   size of loc_exp
000004f3  23                  4347  		DC	0x23	;;   DW_OP_plus_uconst
000004f4  02                  4348  		DC	0x2	;;     operand
000004f5  00000000          + 4349  		DD	.LDW2-.LI_TOP	;; DW_AT_type
                              4350  	;; entry 108
000004f9  05                  4351  		DC	0x5	;; abbrev_code
000004fa  6D696E00            4352  		DC	"min",0x0	;; DW_AT_name
                              4353  				;; DW_AT_data_member_location
000004fe  02                  4354  		DC	0x2	;;   size of loc_exp
000004ff  23                  4355  		DC	0x23	;;   DW_OP_plus_uconst
00000500  04                  4356  		DC	0x4	;;     operand
00000501  00000000          + 4357  		DD	.LDW2-.LI_TOP	;; DW_AT_type
                              4358  	;; entry 109
00000505  05                  4359  		DC	0x5	;; abbrev_code
00000506  6564697472617465    4360  		DC	"editrate",0x0	;; DW_AT_name
0000050e  00                  4360  	
                              4361  				;; DW_AT_data_member_location
0000050f  02                  4362  		DC	0x2	;;   size of loc_exp
00000510  23                  4363  		DC	0x23	;;   DW_OP_plus_uconst
00000511  06                  4364  		DC	0x6	;;     operand
00000512  00000000          + 4365  		DD	.LDW2-.LI_TOP	;; DW_AT_type
                              4366  	;; entry 110
00000516  05                  4367  		DC	0x5	;; abbrev_code
00000517  6469737072617465    4368  		DC	"disprate",0x0	;; DW_AT_name
0000051f  00                  4368  	
                              4369  				;; DW_AT_data_member_location
00000520  02                  4370  		DC	0x2	;;   size of loc_exp
00000521  23                  4371  		DC	0x23	;;   DW_OP_plus_uconst
00000522  08                  4372  		DC	0x8	;;     operand
00000523  00000000          + 4373  		DD	.LDW1-.LI_TOP	;; DW_AT_type
                              4374  	;; NULL ENTRY 111
00000527  00                  4375  		DC	0x0
                              4376  	;; entry 112
00000528  03                  4377  		DC	0x3	;; abbrev_code
00000529  706172615F737479    4378  		DC	"para_style",0x0	;; DW_AT_name
00000531  6C6500              4378  	
00000534  00000000          + 4379  		DD	.LDW24-.LI_TOP	;; DW_AT_type
                              4380  	;; entry 113
00000538  08                  4381  		DC	0x8	;; abbrev_code
                              4382  				;; DW_AT_location
00000539  05                  4383  		DC	0x5	;;   size of loc_exp
0000053a  03                  4384  		DC	0x3	;;   DW_OP_addr
0000053b  00000000          + 4385  		DD	_flg_PWM	;;     operand
0000053f  666C675F50574D00    4386  		DC	"flg_PWM",0x0	;; DW_AT_name
00000547  01                  4387  		DC	0x1	;; DW_AT_external
00000548  00000000          + 4388  		DD	.LDW23-.LI_TOP	;; DW_AT_type
                              4389  	;; entry 114
0000054c                      4390  	.LDW25
0000054c  04                  4391  		DC	0x4	;; abbrev_code
0000054d  10                  4392  		DC	0x10	;; DW_AT_byte_size
                              4393  	;; entry 115
0000054e  05                  4394  		DC	0x5	;; abbrev_code
0000054f  6E6F726D616C5F61    4395  		DC	"normal_accel",0x0	;; DW_AT_name
00000557  6363656C00          4395  	
                              4396  				;; DW_AT_data_member_location
0000055c  02                  4397  		DC	0x2	;;   size of loc_exp
0000055d  23                  4398  		DC	0x23	;;   DW_OP_plus_uconst
0000055e  00                  4399  		DC	0x0	;;     operand
0000055f  00000000          + 4400  		DD	.LDW7-.LI_TOP	;; DW_AT_type
                              4401  	;; entry 116
00000563  05                  4402  		DC	0x5	;; abbrev_code
00000564  6E6F726D616C5F64    4403  		DC	"normal_decel",0x0	;; DW_AT_name
0000056c  6563656C00          4403  	
                              4404  				;; DW_AT_data_member_location
00000571  02                  4405  		DC	0x2	;;   size of loc_exp
00000572  23                  4406  		DC	0x23	;;   DW_OP_plus_uconst
00000573  04                  4407  		DC	0x4	;;     operand
00000574  00000000          + 4408  		DD	.LDW7-.LI_TOP	;; DW_AT_type
                              4409  	;; entry 117
00000578  05                  4410  		DC	0x5	;; abbrev_code
00000579  73756D5F61636365    4411  		DC	"sum_accel",0x0	;; DW_AT_name
00000581  6C00                4411  	
                              4412  				;; DW_AT_data_member_location
00000583  02                  4413  		DC	0x2	;;   size of loc_exp
00000584  23                  4414  		DC	0x23	;;   DW_OP_plus_uconst
00000585  08                  4415  		DC	0x8	;;     operand
00000586  00000000          + 4416  		DD	.LDW18-.LI_TOP	;; DW_AT_type
                              4417  	;; entry 118
0000058a  05                  4418  		DC	0x5	;; abbrev_code
0000058b  73756D5F64656365    4419  		DC	"sum_decel",0x0	;; DW_AT_name
00000593  6C00                4419  	
                              4420  				;; DW_AT_data_member_location
00000595  02                  4421  		DC	0x2	;;   size of loc_exp
00000596  23                  4422  		DC	0x23	;;   DW_OP_plus_uconst
00000597  0C                  4423  		DC	0xc	;;     operand
00000598  00000000          + 4424  		DD	.LDW18-.LI_TOP	;; DW_AT_type
                              4425  	;; NULL ENTRY 119
0000059c  00                  4426  		DC	0x0
                              4427  	;; entry 120
0000059d  08                  4428  		DC	0x8	;; abbrev_code
                              4429  				;; DW_AT_location
0000059e  05                  4430  		DC	0x5	;;   size of loc_exp
0000059f  03                  4431  		DC	0x3	;;   DW_OP_addr
000005a0  00000000          + 4432  		DD	_freq_rate	;;     operand
000005a4  667265715F726174    4433  		DC	"freq_rate",0x0	;; DW_AT_name
000005ac  6500                4433  	
000005ae  01                  4434  		DC	0x1	;; DW_AT_external
000005af  00000000          + 4435  		DD	.LDW25-.LI_TOP	;; DW_AT_type
                              4436  	;; entry 121
000005b3  08                  4437  		DC	0x8	;; abbrev_code
                              4438  				;; DW_AT_location
000005b4  05                  4439  		DC	0x5	;;   size of loc_exp
000005b5  03                  4440  		DC	0x3	;;   DW_OP_addr
000005b6  00000000          + 4441  		DD	_gus_stall_amp_accel	;;     operand
000005ba  6775735F7374616C    4442  		DC	"gus_stall_amp_accel",0x0	;; DW_AT_name
000005c2  6C5F616D705F6163    4442  	
000005ca  63656C00            4442  	
000005ce  01                  4443  		DC	0x1	;; DW_AT_external
000005cf  00000000          + 4444  		DD	.LDW6-.LI_TOP	;; DW_AT_type
                              4445  	;; entry 122
000005d3  08                  4446  		DC	0x8	;; abbrev_code
                              4447  				;; DW_AT_location
000005d4  05                  4448  		DC	0x5	;;   size of loc_exp
000005d5  03                  4449  		DC	0x3	;;   DW_OP_addr
000005d6  00000000          + 4450  		DD	_gus_stall_amp_decel	;;     operand
000005da  6775735F7374616C    4451  		DC	"gus_stall_amp_decel",0x0	;; DW_AT_name
000005e2  6C5F616D705F6465    4451  	
000005ea  63656C00            4451  	
000005ee  01                  4452  		DC	0x1	;; DW_AT_external
000005ef  00000000          + 4453  		DD	.LDW6-.LI_TOP	;; DW_AT_type
                              4454  	;; entry 123
000005f3  08                  4455  		DC	0x8	;; abbrev_code
                              4456  				;; DW_AT_location
000005f4  05                  4457  		DC	0x5	;;   size of loc_exp
000005f5  03                  4458  		DC	0x3	;;   DW_OP_addr
000005f6  00000000          + 4459  		DD	_gus_Td	;;     operand
000005fa  6775735F546400      4460  		DC	"gus_Td",0x0	;; DW_AT_name
00000601  01                  4461  		DC	0x1	;; DW_AT_external
00000602  00000000          + 4462  		DD	.LDW6-.LI_TOP	;; DW_AT_type
                              4463  	;; entry 124
00000606  08                  4464  		DC	0x8	;; abbrev_code
                              4465  				;; DW_AT_location
00000607  05                  4466  		DC	0x5	;;   size of loc_exp
00000608  03                  4467  		DC	0x3	;;   DW_OP_addr
00000609  00000000          + 4468  		DD	_gus_half_pwm	;;     operand
0000060d  6775735F68616C66    4469  		DC	"gus_half_pwm",0x0	;; DW_AT_name
00000615  5F70776D00          4469  	
0000061a  01                  4470  		DC	0x1	;; DW_AT_external
0000061b  00000000          + 4471  		DD	.LDW6-.LI_TOP	;; DW_AT_type
                              4472  	;; entry 125
0000061f  08                  4473  		DC	0x8	;; abbrev_code
                              4474  				;; DW_AT_location
00000620  05                  4475  		DC	0x5	;;   size of loc_exp
00000621  03                  4476  		DC	0x3	;;   DW_OP_addr
00000622  00000000          + 4477  		DD	_gus_peak_pwm	;;     operand
00000626  6775735F7065616B    4478  		DC	"gus_peak_pwm",0x0	;; DW_AT_name
0000062e  5F70776D00          4478  	
00000633  01                  4479  		DC	0x1	;; DW_AT_external
00000634  00000000          + 4480  		DD	.LDW6-.LI_TOP	;; DW_AT_type
                              4481  	;; entry 126
00000638  08                  4482  		DC	0x8	;; abbrev_code
                              4483  				;; DW_AT_location
00000639  05                  4484  		DC	0x5	;;   size of loc_exp
0000063a  03                  4485  		DC	0x3	;;   DW_OP_addr
0000063b  00000000          + 4486  		DD	_gus_centi_half_pwm	;;     operand
0000063f  6775735F63656E74    4487  		DC	"gus_centi_half_pwm",0x0	;; DW_AT_name
00000647  695F68616C665F70    4487  	
0000064f  776D00              4487  	
00000652  01                  4488  		DC	0x1	;; DW_AT_external
00000653  00000000          + 4489  		DD	.LDW6-.LI_TOP	;; DW_AT_type
                              4490  	;; entry 127
00000657  08                  4491  		DC	0x8	;; abbrev_code
                              4492  				;; DW_AT_location
00000658  05                  4493  		DC	0x5	;;   size of loc_exp
00000659  03                  4494  		DC	0x3	;;   DW_OP_addr
0000065a  00000000          + 4495  		DD	_gus_val_a	;;     operand
0000065e  6775735F76616C5F    4496  		DC	"gus_val_a",0x0	;; DW_AT_name
00000666  6100                4496  	
00000668  01                  4497  		DC	0x1	;; DW_AT_external
00000669  00000000          + 4498  		DD	.LDW6-.LI_TOP	;; DW_AT_type
                              4499  	;; entry 128
0000066d  08                  4500  		DC	0x8	;; abbrev_code
                              4501  				;; DW_AT_location
0000066e  05                  4502  		DC	0x5	;;   size of loc_exp
0000066f  03                  4503  		DC	0x3	;;   DW_OP_addr
00000670  00000000          + 4504  		DD	_gus_val_b	;;     operand
00000674  6775735F76616C5F    4505  		DC	"gus_val_b",0x0	;; DW_AT_name
0000067c  6200                4505  	
0000067e  01                  4506  		DC	0x1	;; DW_AT_external
0000067f  00000000          + 4507  		DD	.LDW6-.LI_TOP	;; DW_AT_type
                              4508  	;; entry 129
00000683  08                  4509  		DC	0x8	;; abbrev_code
                              4510  				;; DW_AT_location
00000684  05                  4511  		DC	0x5	;;   size of loc_exp
00000685  03                  4512  		DC	0x3	;;   DW_OP_addr
00000686  00000000          + 4513  		DD	_gus_val_c	;;     operand
0000068a  6775735F76616C5F    4514  		DC	"gus_val_c",0x0	;; DW_AT_name
00000692  6300                4514  	
00000694  01                  4515  		DC	0x1	;; DW_AT_external
00000695  00000000          + 4516  		DD	.LDW6-.LI_TOP	;; DW_AT_type
                              4517  	;; entry 130
00000699  08                  4518  		DC	0x8	;; abbrev_code
                              4519  				;; DW_AT_location
0000069a  05                  4520  		DC	0x5	;;   size of loc_exp
0000069b  03                  4521  		DC	0x3	;;   DW_OP_addr
0000069c  00000000          + 4522  		DD	_gss_max_pwm	;;     operand
000006a0  6773735F6D61785F    4523  		DC	"gss_max_pwm",0x0	;; DW_AT_name
000006a8  70776D00            4523  	
000006ac  01                  4524  		DC	0x1	;; DW_AT_external
000006ad  00000000          + 4525  		DD	.LDW2-.LI_TOP	;; DW_AT_type
                              4526  	;; entry 131
000006b1  08                  4527  		DC	0x8	;; abbrev_code
                              4528  				;; DW_AT_location
000006b2  05                  4529  		DC	0x5	;;   size of loc_exp
000006b3  03                  4530  		DC	0x3	;;   DW_OP_addr
000006b4  00000000          + 4531  		DD	_gss_min_pwm	;;     operand
000006b8  6773735F6D696E5F    4532  		DC	"gss_min_pwm",0x0	;; DW_AT_name
000006c0  70776D00            4532  	
000006c4  01                  4533  		DC	0x1	;; DW_AT_external
000006c5  00000000          + 4534  		DD	.LDW2-.LI_TOP	;; DW_AT_type
                              4535  	;; entry 132
000006c9  08                  4536  		DC	0x8	;; abbrev_code
                              4537  				;; DW_AT_location
000006ca  05                  4538  		DC	0x5	;;   size of loc_exp
000006cb  03                  4539  		DC	0x3	;;   DW_OP_addr
000006cc  00000000          + 4540  		DD	_gul_percent_pwm_unit	;;     operand
000006d0  67756C5F70657263    4541  		DC	"gul_percent_pwm_unit",0x0	;; DW_AT_name
000006d8  656E745F70776D5F    4541  	
000006e0  756E697400          4541  	
000006e5  01                  4542  		DC	0x1	;; DW_AT_external
000006e6  00000000          + 4543  		DD	.LDW7-.LI_TOP	;; DW_AT_type
                              4544  	;; entry 133
000006ea  08                  4545  		DC	0x8	;; abbrev_code
                              4546  				;; DW_AT_location
000006eb  05                  4547  		DC	0x5	;;   size of loc_exp
000006ec  03                  4548  		DC	0x3	;;   DW_OP_addr
000006ed  00000000          + 4549  		DD	_gus_max_percent	;;     operand
000006f1  6775735F6D61785F    4550  		DC	"gus_max_percent",0x0	;; DW_AT_name
000006f9  70657263656E7400    4550  	
00000701  01                  4551  		DC	0x1	;; DW_AT_external
00000702  00000000          + 4552  		DD	.LDW6-.LI_TOP	;; DW_AT_type
                              4553  	;; entry 134
00000706  08                  4554  		DC	0x8	;; abbrev_code
                              4555  				;; DW_AT_location
00000707  05                  4556  		DC	0x5	;;   size of loc_exp
00000708  03                  4557  		DC	0x3	;;   DW_OP_addr
00000709  00000000          + 4558  		DD	_gus_min_percent	;;     operand
0000070d  6775735F6D696E5F    4559  		DC	"gus_min_percent",0x0	;; DW_AT_name
00000715  70657263656E7400    4559  	
0000071d  01                  4560  		DC	0x1	;; DW_AT_external
0000071e  00000000          + 4561  		DD	.LDW6-.LI_TOP	;; DW_AT_type
                              4562  	;; entry 135
00000722  08                  4563  		DC	0x8	;; abbrev_code
                              4564  				;; DW_AT_location
00000723  05                  4565  		DC	0x5	;;   size of loc_exp
00000724  03                  4566  		DC	0x3	;;   DW_OP_addr
00000725  00000000          + 4567  		DD	_gus_max_percent_gu	;;     operand
00000729  6775735F6D61785F    4568  		DC	"gus_max_percent_gu",0x0	;; DW_AT_name
00000731  70657263656E745F    4568  	
00000739  677500              4568  	
0000073c  01                  4569  		DC	0x1	;; DW_AT_external
0000073d  00000000          + 4570  		DD	.LDW6-.LI_TOP	;; DW_AT_type
                              4571  	;; entry 136
00000741  08                  4572  		DC	0x8	;; abbrev_code
                              4573  				;; DW_AT_location
00000742  05                  4574  		DC	0x5	;;   size of loc_exp
00000743  03                  4575  		DC	0x3	;;   DW_OP_addr
00000744  00000000          + 4576  		DD	_gus_percent_k	;;     operand
00000748  6775735F70657263    4577  		DC	"gus_percent_k",0x0	;; DW_AT_name
00000750  656E745F6B00        4577  	
00000756  01                  4578  		DC	0x1	;; DW_AT_external
00000757  00000000          + 4579  		DD	.LDW6-.LI_TOP	;; DW_AT_type
                              4580  	;; entry 137
0000075b  08                  4581  		DC	0x8	;; abbrev_code
                              4582  				;; DW_AT_location
0000075c  05                  4583  		DC	0x5	;;   size of loc_exp
0000075d  03                  4584  		DC	0x3	;;   DW_OP_addr
0000075e  00000000          + 4585  		DD	_gus_percent_pwm	;;     operand
00000762  6775735F70657263    4586  		DC	"gus_percent_pwm",0x0	;; DW_AT_name
0000076a  656E745F70776D00    4586  	
00000772  01                  4587  		DC	0x1	;; DW_AT_external
00000773  00000000          + 4588  		DD	.LDW6-.LI_TOP	;; DW_AT_type
                              4589  	;; entry 138
00000777  08                  4590  		DC	0x8	;; abbrev_code
                              4591  				;; DW_AT_location
00000778  05                  4592  		DC	0x5	;;   size of loc_exp
00000779  03                  4593  		DC	0x3	;;   DW_OP_addr
0000077a  00000000          + 4594  		DD	_gus_percent_pwm_buf	;;     operand
0000077e  6775735F70657263    4595  		DC	"gus_percent_pwm_buf",0x0	;; DW_AT_name
00000786  656E745F70776D5F    4595  	
0000078e  62756600            4595  	
00000792  01                  4596  		DC	0x1	;; DW_AT_external
00000793  00000000          + 4597  		DD	.LDW6-.LI_TOP	;; DW_AT_type
                              4598  	;; entry 139
00000797  08                  4599  		DC	0x8	;; abbrev_code
                              4600  				;; DW_AT_location
00000798  05                  4601  		DC	0x5	;;   size of loc_exp
00000799  03                  4602  		DC	0x3	;;   DW_OP_addr
0000079a  00000000          + 4603  		DD	_gus_rate_per	;;     operand
0000079e  6775735F72617465    4604  		DC	"gus_rate_per",0x0	;; DW_AT_name
000007a6  5F70657200          4604  	
000007ab  01                  4605  		DC	0x1	;; DW_AT_external
000007ac  00000000          + 4606  		DD	.LDW6-.LI_TOP	;; DW_AT_type
                              4607  	;; entry 140
000007b0  08                  4608  		DC	0x8	;; abbrev_code
                              4609  				;; DW_AT_location
000007b1  05                  4610  		DC	0x5	;;   size of loc_exp
000007b2  03                  4611  		DC	0x3	;;   DW_OP_addr
000007b3  00000000          + 4612  		DD	_rate_theta	;;     operand
000007b7  726174655F746865    4613  		DC	"rate_theta",0x0	;; DW_AT_name
000007bf  746100              4613  	
000007c2  01                  4614  		DC	0x1	;; DW_AT_external
000007c3  00000000          + 4615  		DD	.LDW18-.LI_TOP	;; DW_AT_type
                              4616  	;; entry 141
000007c7  08                  4617  		DC	0x8	;; abbrev_code
                              4618  				;; DW_AT_location
000007c8  05                  4619  		DC	0x5	;;   size of loc_exp
000007c9  03                  4620  		DC	0x3	;;   DW_OP_addr
000007ca  00000000          + 4621  		DD	_rate_theta_buf	;;     operand
000007ce  726174655F746865    4622  		DC	"rate_theta_buf",0x0	;; DW_AT_name
000007d6  74615F62756600      4622  	
000007dd  01                  4623  		DC	0x1	;; DW_AT_external
000007de  00000000          + 4624  		DD	.LDW18-.LI_TOP	;; DW_AT_type
                              4625  	;; entry 142
000007e2  08                  4626  		DC	0x8	;; abbrev_code
                              4627  				;; DW_AT_location
000007e3  05                  4628  		DC	0x5	;;   size of loc_exp
000007e4  03                  4629  		DC	0x3	;;   DW_OP_addr
000007e5  00000000          + 4630  		DD	_gul_theta	;;     operand
000007e9  67756C5F74686574    4631  		DC	"gul_theta",0x0	;; DW_AT_name
000007f1  6100                4631  	
000007f3  01                  4632  		DC	0x1	;; DW_AT_external
000007f4  00000000          + 4633  		DD	.LDW18-.LI_TOP	;; DW_AT_type
                              4634  	;; entry 143
000007f8  08                  4635  		DC	0x8	;; abbrev_code
                              4636  				;; DW_AT_location
000007f9  05                  4637  		DC	0x5	;;   size of loc_exp
000007fa  03                  4638  		DC	0x3	;;   DW_OP_addr
000007fb  00000000          + 4639  		DD	_theta	;;     operand
000007ff  746865746100        4640  		DC	"theta",0x0	;; DW_AT_name
00000805  01                  4641  		DC	0x1	;; DW_AT_external
00000806  00000000          + 4642  		DD	.LDW18-.LI_TOP	;; DW_AT_type
                              4643  	;; entry 144
0000080a  08                  4644  		DC	0x8	;; abbrev_code
                              4645  				;; DW_AT_location
0000080b  05                  4646  		DC	0x5	;;   size of loc_exp
0000080c  03                  4647  		DC	0x3	;;   DW_OP_addr
0000080d  00000000          + 4648  		DD	_theta_buf	;;     operand
00000811  74686574615F6275    4649  		DC	"theta_buf",0x0	;; DW_AT_name
00000819  6600                4649  	
0000081b  01                  4650  		DC	0x1	;; DW_AT_external
0000081c  00000000          + 4651  		DD	.LDW18-.LI_TOP	;; DW_AT_type
                              4652  	;; entry 145
00000820  08                  4653  		DC	0x8	;; abbrev_code
                              4654  				;; DW_AT_location
00000821  05                  4655  		DC	0x5	;;   size of loc_exp
00000822  03                  4656  		DC	0x3	;;   DW_OP_addr
00000823  00000000          + 4657  		DD	_gus_max_comp_val	;;     operand
00000827  6775735F6D61785F    4658  		DC	"gus_max_comp_val",0x0	;; DW_AT_name
0000082f  636F6D705F76616C    4658  	
00000837  00                  4658  	
00000838  01                  4659  		DC	0x1	;; DW_AT_external
00000839  00000000          + 4660  		DD	.LDW6-.LI_TOP	;; DW_AT_type
                              4661  	;; entry 146
0000083d  08                  4662  		DC	0x8	;; abbrev_code
                              4663  				;; DW_AT_location
0000083e  05                  4664  		DC	0x5	;;   size of loc_exp
0000083f  03                  4665  		DC	0x3	;;   DW_OP_addr
00000840  00000000          + 4666  		DD	_gus_mid_comp_val	;;     operand
00000844  6775735F6D69645F    4667  		DC	"gus_mid_comp_val",0x0	;; DW_AT_name
0000084c  636F6D705F76616C    4667  	
00000854  00                  4667  	
00000855  01                  4668  		DC	0x1	;; DW_AT_external
00000856  00000000          + 4669  		DD	.LDW6-.LI_TOP	;; DW_AT_type
                              4670  	;; entry 147
0000085a  08                  4671  		DC	0x8	;; abbrev_code
                              4672  				;; DW_AT_location
0000085b  05                  4673  		DC	0x5	;;   size of loc_exp
0000085c  03                  4674  		DC	0x3	;;   DW_OP_addr
0000085d  00000000          + 4675  		DD	_gus_min_comp_val	;;     operand
00000861  6775735F6D696E5F    4676  		DC	"gus_min_comp_val",0x0	;; DW_AT_name
00000869  636F6D705F76616C    4676  	
00000871  00                  4676  	
00000872  01                  4677  		DC	0x1	;; DW_AT_external
00000873  00000000          + 4678  		DD	.LDW6-.LI_TOP	;; DW_AT_type
                              4679  	;; entry 148
00000877  08                  4680  		DC	0x8	;; abbrev_code
                              4681  				;; DW_AT_location
00000878  05                  4682  		DC	0x5	;;   size of loc_exp
00000879  03                  4683  		DC	0x3	;;   DW_OP_addr
0000087a  00000000          + 4684  		DD	_gus_val_abc_order	;;     operand
0000087e  6775735F76616C5F    4685  		DC	"gus_val_abc_order",0x0	;; DW_AT_name
00000886  6162635F6F726465    4685  	
0000088e  7200                4685  	
00000890  01                  4686  		DC	0x1	;; DW_AT_external
00000891  00000000          + 4687  		DD	.LDW6-.LI_TOP	;; DW_AT_type
                              4688  	;; entry 149
00000895  08                  4689  		DC	0x8	;; abbrev_code
                              4690  				;; DW_AT_location
00000896  05                  4691  		DC	0x5	;;   size of loc_exp
00000897  03                  4692  		DC	0x3	;;   DW_OP_addr
00000898  00000000          + 4693  		DD	_gus_TUP_ADtrigger	;;     operand
0000089c  6775735F5455505F    4694  		DC	"gus_TUP_ADtrigger",0x0	;; DW_AT_name
000008a4  4144747269676765    4694  	
000008ac  7200                4694  	
000008ae  01                  4695  		DC	0x1	;; DW_AT_external
000008af  00000000          + 4696  		DD	.LDW6-.LI_TOP	;; DW_AT_type
                              4697  	;; entry 150
000008b3  08                  4698  		DC	0x8	;; abbrev_code
                              4699  				;; DW_AT_location
000008b4  05                  4700  		DC	0x5	;;   size of loc_exp
000008b5  03                  4701  		DC	0x3	;;   DW_OP_addr
000008b6  00000000          + 4702  		DD	_gus_TDW_ADtrigger	;;     operand
000008ba  6775735F5444575F    4703  		DC	"gus_TDW_ADtrigger",0x0	;; DW_AT_name
000008c2  4144747269676765    4703  	
000008ca  7200                4703  	
000008cc  01                  4704  		DC	0x1	;; DW_AT_external
000008cd  00000000          + 4705  		DD	.LDW6-.LI_TOP	;; DW_AT_type
                              4706  	;; entry 151
000008d1  08                  4707  		DC	0x8	;; abbrev_code
                              4708  				;; DW_AT_location
000008d2  05                  4709  		DC	0x5	;;   size of loc_exp
000008d3  03                  4710  		DC	0x3	;;   DW_OP_addr
000008d4  00000000          + 4711  		DD	_gus_ADtrigger_repair_val	;;     operand
000008d8  6775735F41447472    4712  		DC	"gus_ADtrigger_repair_val",0x0	;; DW_AT_name
000008e0  69676765725F7265    4712  	
000008e8  706169725F76616C    4712  	
000008f0  00                  4712  	
000008f1  01                  4713  		DC	0x1	;; DW_AT_external
000008f2  00000000          + 4714  		DD	.LDW6-.LI_TOP	;; DW_AT_type
                              4715  	;; entry 152
000008f6  08                  4716  		DC	0x8	;; abbrev_code
                              4717  				;; DW_AT_location
000008f7  05                  4718  		DC	0x5	;;   size of loc_exp
000008f8  03                  4719  		DC	0x3	;;   DW_OP_addr
000008f9  00000000          + 4720  		DD	_gus_AD_SH_val	;;     operand
000008fd  6775735F41445F53    4721  		DC	"gus_AD_SH_val",0x0	;; DW_AT_name
00000905  485F76616C00        4721  	
0000090b  01                  4722  		DC	0x1	;; DW_AT_external
0000090c  00000000          + 4723  		DD	.LDW6-.LI_TOP	;; DW_AT_type
                              4724  	;; entry 153
00000910  08                  4725  		DC	0x8	;; abbrev_code
                              4726  				;; DW_AT_location
00000911  05                  4727  		DC	0x5	;;   size of loc_exp
00000912  03                  4728  		DC	0x3	;;   DW_OP_addr
00000913  00000000          + 4729  		DD	_gus_now_theta	;;     operand
00000917  6775735F6E6F775F    4730  		DC	"gus_now_theta",0x0	;; DW_AT_name
0000091f  746865746100        4730  	
00000925  01                  4731  		DC	0x1	;; DW_AT_external
00000926  00000000          + 4732  		DD	.LDW6-.LI_TOP	;; DW_AT_type
                              4733  	;; entry 154
0000092a  08                  4734  		DC	0x8	;; abbrev_code
                              4735  				;; DW_AT_location
0000092b  05                  4736  		DC	0x5	;;   size of loc_exp
0000092c  03                  4737  		DC	0x3	;;   DW_OP_addr
0000092d  00000000          + 4738  		DD	_gus_next_theta	;;     operand
00000931  6775735F6E657874    4739  		DC	"gus_next_theta",0x0	;; DW_AT_name
00000939  5F746865746100      4739  	
00000940  01                  4740  		DC	0x1	;; DW_AT_external
00000941  00000000          + 4741  		DD	.LDW6-.LI_TOP	;; DW_AT_type
                              4742  	;; entry 155
00000945  08                  4743  		DC	0x8	;; abbrev_code
                              4744  				;; DW_AT_location
00000946  05                  4745  		DC	0x5	;;   size of loc_exp
00000947  03                  4746  		DC	0x3	;;   DW_OP_addr
00000948  00000000          + 4747  		DD	_gss_bootstrap_charger_delaytimer	;;     operand
0000094c  6773735F626F6F74    4748  		DC	"gss_bootstrap_charger_delaytimer",0x0	;; DW_AT_name
00000954  73747261705F6368    4748  	
0000095c  61726765725F6465    4748  	
00000964  6C617974696D6572    4748  	
0000096c  00                  4748  	
0000096d  01                  4749  		DC	0x1	;; DW_AT_external
0000096e  00000000          + 4750  		DD	.LDW2-.LI_TOP	;; DW_AT_type
                              4751  	;; entry 156
00000972  08                  4752  		DC	0x8	;; abbrev_code
                              4753  				;; DW_AT_location
00000973  05                  4754  		DC	0x5	;;   size of loc_exp
00000974  03                  4755  		DC	0x3	;;   DW_OP_addr
00000975  00000000          + 4756  		DD	_gus_freq_set	;;     operand
00000979  6775735F66726571    4757  		DC	"gus_freq_set",0x0	;; DW_AT_name
00000981  5F73657400          4757  	
00000986  01                  4758  		DC	0x1	;; DW_AT_external
00000987  00000000          + 4759  		DD	.LDW6-.LI_TOP	;; DW_AT_type
                              4760  	;; entry 157
0000098b  08                  4761  		DC	0x8	;; abbrev_code
                              4762  				;; DW_AT_location
0000098c  05                  4763  		DC	0x5	;;   size of loc_exp
0000098d  03                  4764  		DC	0x3	;;   DW_OP_addr
0000098e  00000000          + 4765  		DD	_gus_MAX_setfreq	;;     operand
00000992  6775735F4D41585F    4766  		DC	"gus_MAX_setfreq",0x0	;; DW_AT_name
0000099a  7365746672657100    4766  	
000009a2  01                  4767  		DC	0x1	;; DW_AT_external
000009a3  00000000          + 4768  		DD	.LDW6-.LI_TOP	;; DW_AT_type
                              4769  	;; entry 158
000009a7  08                  4770  		DC	0x8	;; abbrev_code
                              4771  				;; DW_AT_location
000009a8  05                  4772  		DC	0x5	;;   size of loc_exp
000009a9  03                  4773  		DC	0x3	;;   DW_OP_addr
000009aa  00000000          + 4774  		DD	_gus_freq_out	;;     operand
000009ae  6775735F66726571    4775  		DC	"gus_freq_out",0x0	;; DW_AT_name
000009b6  5F6F757400          4775  	
000009bb  01                  4776  		DC	0x1	;; DW_AT_external
000009bc  00000000          + 4777  		DD	.LDW6-.LI_TOP	;; DW_AT_type
                              4778  	;; entry 159
000009c0  08                  4779  		DC	0x8	;; abbrev_code
                              4780  				;; DW_AT_location
000009c1  05                  4781  		DC	0x5	;;   size of loc_exp
000009c2  03                  4782  		DC	0x3	;;   DW_OP_addr
000009c3  00000000          + 4783  		DD	_gus_freq_real	;;     operand
000009c7  6775735F66726571    4784  		DC	"gus_freq_real",0x0	;; DW_AT_name
000009cf  5F7265616C00        4784  	
000009d5  01                  4785  		DC	0x1	;; DW_AT_external
000009d6  00000000          + 4786  		DD	.LDW6-.LI_TOP	;; DW_AT_type
                              4787  	;; entry 160
000009da  08                  4788  		DC	0x8	;; abbrev_code
                              4789  				;; DW_AT_location
000009db  05                  4790  		DC	0x5	;;   size of loc_exp
000009dc  03                  4791  		DC	0x3	;;   DW_OP_addr
000009dd  00000000          + 4792  		DD	_gus_speed_out	;;     operand
000009e1  6775735F73706565    4793  		DC	"gus_speed_out",0x0	;; DW_AT_name
000009e9  645F6F757400        4793  	
000009ef  01                  4794  		DC	0x1	;; DW_AT_external
000009f0  00000000          + 4795  		DD	.LDW6-.LI_TOP	;; DW_AT_type
                              4796  	;; entry 161
000009f4  08                  4797  		DC	0x8	;; abbrev_code
                              4798  				;; DW_AT_location
000009f5  05                  4799  		DC	0x5	;;   size of loc_exp
000009f6  03                  4800  		DC	0x3	;;   DW_OP_addr
000009f7  00000000          + 4801  		DD	_gus_speed_real	;;     operand
000009fb  6775735F73706565    4802  		DC	"gus_speed_real",0x0	;; DW_AT_name
00000a03  645F7265616C00      4802  	
00000a0a  01                  4803  		DC	0x1	;; DW_AT_external
00000a0b  00000000          + 4804  		DD	.LDW6-.LI_TOP	;; DW_AT_type
                              4805  	;; entry 162
00000a0f  08                  4806  		DC	0x8	;; abbrev_code
                              4807  				;; DW_AT_location
00000a10  05                  4808  		DC	0x5	;;   size of loc_exp
00000a11  03                  4809  		DC	0x3	;;   DW_OP_addr
00000a12  00000000          + 4810  		DD	_gus_Uout_real	;;     operand
00000a16  6775735F556F7574    4811  		DC	"gus_Uout_real",0x0	;; DW_AT_name
00000a1e  5F7265616C00        4811  	
00000a24  01                  4812  		DC	0x1	;; DW_AT_external
00000a25  00000000          + 4813  		DD	.LDW6-.LI_TOP	;; DW_AT_type
                              4814  	;; entry 163
00000a29  08                  4815  		DC	0x8	;; abbrev_code
                              4816  				;; DW_AT_location
00000a2a  05                  4817  		DC	0x5	;;   size of loc_exp
00000a2b  03                  4818  		DC	0x3	;;   DW_OP_addr
00000a2c  00000000          + 4819  		DD	_gus_Uout_for_disp	;;     operand
00000a30  6775735F556F7574    4820  		DC	"gus_Uout_for_disp",0x0	;; DW_AT_name
00000a38  5F666F725F646973    4820  	
00000a40  7000                4820  	
00000a42  01                  4821  		DC	0x1	;; DW_AT_external
00000a43  00000000          + 4822  		DD	.LDW6-.LI_TOP	;; DW_AT_type
                              4823  	;; entry 164
00000a47  08                  4824  		DC	0x8	;; abbrev_code
                              4825  				;; DW_AT_location
00000a48  05                  4826  		DC	0x5	;;   size of loc_exp
00000a49  03                  4827  		DC	0x3	;;   DW_OP_addr
00000a4a  00000000          + 4828  		DD	_gus_PIctrl_delaytimer	;;     operand
00000a4e  6775735F50496374    4829  		DC	"gus_PIctrl_delaytimer",0x0	;; DW_AT_name
00000a56  726C5F64656C6179    4829  	
00000a5e  74696D657200        4829  	
00000a64  01                  4830  		DC	0x1	;; DW_AT_external
00000a65  00000000          + 4831  		DD	.LDW6-.LI_TOP	;; DW_AT_type
                              4832  	;; entry 165
00000a69  08                  4833  		DC	0x8	;; abbrev_code
                              4834  				;; DW_AT_location
00000a6a  05                  4835  		DC	0x5	;;   size of loc_exp
00000a6b  03                  4836  		DC	0x3	;;   DW_OP_addr
00000a6c  00000000          + 4837  		DD	_gsl_FreqPI_integral	;;     operand
00000a70  67736C5F46726571    4838  		DC	"gsl_FreqPI_integral",0x0	;; DW_AT_name
00000a78  50495F696E746567    4838  	
00000a80  72616C00            4838  	
00000a84  01                  4839  		DC	0x1	;; DW_AT_external
00000a85  00000000          + 4840  		DD	.LDW3-.LI_TOP	;; DW_AT_type
                              4841  	;; entry 166
00000a89  08                  4842  		DC	0x8	;; abbrev_code
                              4843  				;; DW_AT_location
00000a8a  05                  4844  		DC	0x5	;;   size of loc_exp
00000a8b  03                  4845  		DC	0x3	;;   DW_OP_addr
00000a8c  00000000          + 4846  		DD	_gsl_PI_initval	;;     operand
00000a90  67736C5F50495F69    4847  		DC	"gsl_PI_initval",0x0	;; DW_AT_name
00000a98  6E697476616C00      4847  	
00000a9f  01                  4848  		DC	0x1	;; DW_AT_external
00000aa0  00000000          + 4849  		DD	.LDW3-.LI_TOP	;; DW_AT_type
                              4850  	;; entry 167
00000aa4  09                  4851  		DC	0x9	;; abbrev_code
00000aa5  50574D5F636F6E66    4852  		DC	"PWM_configure",0x0	;; DW_AT_name
00000aad  696775726500        4852  	
00000ab3  00000000          + 4853  		DD	_PWM_configure	;; DW_AT_low_pc
00000ab7  00000000          + 4854  		DD	.LDW26	;; DW_AT_high_pc
00000abb  01                  4855  		DC	0x1	;; DW_AT_prototyped
00000abc  01                  4856  		DC	0x1	;; DW_AT_decl_file
00000abd  8C01                4857  		DC	0x8c,0x1	;; DW_AT_decl_line
00000abf  01                  4858  		DC	0x1	;; DW_AT_external
                              4859  				;; DW_AT_frame_base
00000ac0  01                  4860  		DC	0x1	;;   size of loc_exp
00000ac1  59                  4861  		DC	0x59	;;   DW_OP_reg9
                              4862  	;; entry 168
00000ac2  0A                  4863  		DC	0xa	;; abbrev_code
00000ac3  6C756C5F746D7000    4864  		DC	"lul_tmp",0x0	;; DW_AT_name
00000acb  00                  4865  		DC	0x0	;; DW_AT_external
00000acc  00000000          + 4866  		DD	.LDW7-.LI_TOP	;; DW_AT_type
00000ad0  00000000          + 4867  		DD	.LDW40	;; DW_AT_MN_resource
                              4868  	;; NULL ENTRY 169
00000ad4  00                  4869  		DC	0x0
                              4870  	;; entry 170
00000ad5  09                  4871  		DC	0x9	;; abbrev_code
00000ad6  667265715F726174    4872  		DC	"freq_rate_init",0x0	;; DW_AT_name
00000ade  655F696E697400      4872  	
00000ae5  00000000          + 4873  		DD	_freq_rate_init	;; DW_AT_low_pc
00000ae9  00000000          + 4874  		DD	.LDW27	;; DW_AT_high_pc
00000aed  01                  4875  		DC	0x1	;; DW_AT_prototyped
00000aee  01                  4876  		DC	0x1	;; DW_AT_decl_file
00000aef  AF04                4877  		DC	0xaf,0x4	;; DW_AT_decl_line
00000af1  01                  4878  		DC	0x1	;; DW_AT_external
                              4879  				;; DW_AT_frame_base
00000af2  01                  4880  		DC	0x1	;;   size of loc_exp
00000af3  59                  4881  		DC	0x59	;;   DW_OP_reg9
                              4882  	;; entry 171
00000af4  08                  4883  		DC	0x8	;; abbrev_code
                              4884  				;; DW_AT_location
00000af5  02                  4885  		DC	0x2	;;   size of loc_exp
00000af6  91                  4886  		DC	0x91	;;   DW_OP_fbreg
00000af7  00                  4887  		DC	0x0	;;     operand
00000af8  6C746D7000          4888  		DC	"ltmp",0x0	;; DW_AT_name
00000afd  00                  4889  		DC	0x0	;; DW_AT_external
00000afe  00000000          + 4890  		DD	.LDW18-.LI_TOP	;; DW_AT_type
                              4891  	;; NULL ENTRY 172
00000b02  00                  4892  		DC	0x0
                              4893  	;; entry 173
00000b03  09                  4894  		DC	0x9	;; abbrev_code
00000b04  6F70656E5F70776D    4895  		DC	"open_pwm",0x0	;; DW_AT_name
00000b0c  00                  4895  	
00000b0d  00000000          + 4896  		DD	_open_pwm	;; DW_AT_low_pc
00000b11  00000000          + 4897  		DD	.LDW28	;; DW_AT_high_pc
00000b15  01                  4898  		DC	0x1	;; DW_AT_prototyped
00000b16  01                  4899  		DC	0x1	;; DW_AT_decl_file
00000b17  C104                4900  		DC	0xc1,0x4	;; DW_AT_decl_line
00000b19  01                  4901  		DC	0x1	;; DW_AT_external
                              4902  				;; DW_AT_frame_base
00000b1a  01                  4903  		DC	0x1	;;   size of loc_exp
00000b1b  59                  4904  		DC	0x59	;;   DW_OP_reg9
                              4905  	;; NULL ENTRY 174
00000b1c  00                  4906  		DC	0x0
                              4907  	;; entry 175
00000b1d  09                  4908  		DC	0x9	;; abbrev_code
00000b1e  736875745F70776D    4909  		DC	"shut_pwm",0x0	;; DW_AT_name
00000b26  00                  4909  	
00000b27  00000000          + 4910  		DD	_shut_pwm	;; DW_AT_low_pc
00000b2b  00000000          + 4911  		DD	.LDW29	;; DW_AT_high_pc
00000b2f  01                  4912  		DC	0x1	;; DW_AT_prototyped
00000b30  01                  4913  		DC	0x1	;; DW_AT_decl_file
00000b31  E504                4914  		DC	0xe5,0x4	;; DW_AT_decl_line
00000b33  01                  4915  		DC	0x1	;; DW_AT_external
                              4916  				;; DW_AT_frame_base
00000b34  01                  4917  		DC	0x1	;;   size of loc_exp
00000b35  59                  4918  		DC	0x59	;;   DW_OP_reg9
                              4919  	;; NULL ENTRY 176
00000b36  00                  4920  		DC	0x0
                              4921  	;; entry 177
00000b37  09                  4922  		DC	0x9	;; abbrev_code
00000b38  626F6F7473747261    4923  		DC	"bootstrap_charger_delaytime",0x0	;; DW_AT_name
00000b40  705F636861726765    4923  	
00000b48  725F64656C617974    4923  	
00000b50  696D6500            4923  	
00000b54  00000000          + 4924  		DD	_bootstrap_charger_delaytime	;; DW_AT_low_pc
00000b58  00000000          + 4925  		DD	.LDW30	;; DW_AT_high_pc
00000b5c  01                  4926  		DC	0x1	;; DW_AT_prototyped
00000b5d  01                  4927  		DC	0x1	;; DW_AT_decl_file
00000b5e  9105                4928  		DC	0x91,0x5	;; DW_AT_decl_line
00000b60  01                  4929  		DC	0x1	;; DW_AT_external
                              4930  				;; DW_AT_frame_base
00000b61  01                  4931  		DC	0x1	;;   size of loc_exp
00000b62  59                  4932  		DC	0x59	;;   DW_OP_reg9
                              4933  	;; NULL ENTRY 178
00000b63  00                  4934  		DC	0x0
                              4935  	;; entry 179
00000b64  09                  4936  		DC	0x9	;; abbrev_code
00000b65  636865636B5F6672    4937  		DC	"check_freq_updata",0x0	;; DW_AT_name
00000b6d  65715F7570646174    4937  	
00000b75  6100                4937  	
00000b77  00000000          + 4938  		DD	_check_freq_updata	;; DW_AT_low_pc
00000b7b  00000000          + 4939  		DD	.LDW31	;; DW_AT_high_pc
00000b7f  01                  4940  		DC	0x1	;; DW_AT_prototyped
00000b80  01                  4941  		DC	0x1	;; DW_AT_decl_file
00000b81  CF05                4942  		DC	0xcf,0x5	;; DW_AT_decl_line
00000b83  01                  4943  		DC	0x1	;; DW_AT_external
                              4944  				;; DW_AT_frame_base
00000b84  01                  4945  		DC	0x1	;;   size of loc_exp
00000b85  59                  4946  		DC	0x59	;;   DW_OP_reg9
                              4947  	;; entry 180
00000b86  0A                  4948  		DC	0xa	;; abbrev_code
00000b87  6C75735F746D7000    4949  		DC	"lus_tmp",0x0	;; DW_AT_name
00000b8f  00                  4950  		DC	0x0	;; DW_AT_external
00000b90  00000000          + 4951  		DD	.LDW6-.LI_TOP	;; DW_AT_type
00000b94  00000000          + 4952  		DD	.LDW213	;; DW_AT_MN_resource
                              4953  	;; entry 181
00000b98  0B                  4954  		DC	0xb	;; abbrev_code
00000b99  6C75735F7374616C    4955  		DC	"lus_stall_amp_accel",0x0	;; DW_AT_name
00000ba1  6C5F616D705F6163    4955  	
00000ba9  63656C00            4955  	
00000bad  00                  4956  		DC	0x0	;; DW_AT_external
00000bae  00000000          + 4957  		DD	.LDW6-.LI_TOP	;; DW_AT_type
                              4958  	;; NULL ENTRY 182
00000bb2  00                  4959  		DC	0x0
                              4960  	;; entry 183
00000bb3  09                  4961  		DC	0x9	;; abbrev_code
00000bb4  53656E736F726564    4962  		DC	"Sensored_cale_Vout",0x0	;; DW_AT_name
00000bbc  5F63616C655F566F    4962  	
00000bc4  757400              4962  	
00000bc7  00000000          + 4963  		DD	_Sensored_cale_Vout	;; DW_AT_low_pc
00000bcb  00000000          + 4964  		DD	.LDW32	;; DW_AT_high_pc
00000bcf  01                  4965  		DC	0x1	;; DW_AT_prototyped
00000bd0  01                  4966  		DC	0x1	;; DW_AT_decl_file
00000bd1  DD06                4967  		DC	0xdd,0x6	;; DW_AT_decl_line
00000bd3  01                  4968  		DC	0x1	;; DW_AT_external
                              4969  				;; DW_AT_frame_base
00000bd4  01                  4970  		DC	0x1	;;   size of loc_exp
00000bd5  59                  4971  		DC	0x59	;;   DW_OP_reg9
                              4972  	;; entry 184
00000bd6  0A                  4973  		DC	0xa	;; abbrev_code
00000bd7  6C736C5F746D7000    4974  		DC	"lsl_tmp",0x0	;; DW_AT_name
00000bdf  00                  4975  		DC	0x0	;; DW_AT_external
00000be0  00000000          + 4976  		DD	.LDW3-.LI_TOP	;; DW_AT_type
00000be4  00000000          + 4977  		DD	.LDW274	;; DW_AT_MN_resource
                              4978  	;; NULL ENTRY 185
00000be8  00                  4979  		DC	0x0
                              4980  	;; entry 186
00000be9  09                  4981  		DC	0x9	;; abbrev_code
00000bea  63616C635F706572    4982  		DC	"calc_percent_theta",0x0	;; DW_AT_name
00000bf2  63656E745F746865    4982  	
00000bfa  746100              4982  	
00000bfd  00000000          + 4983  		DD	_calc_percent_theta	;; DW_AT_low_pc
00000c01  00000000          + 4984  		DD	.LDW33	;; DW_AT_high_pc
00000c05  01                  4985  		DC	0x1	;; DW_AT_prototyped
00000c06  01                  4986  		DC	0x1	;; DW_AT_decl_file
00000c07  A107                4987  		DC	0xa1,0x7	;; DW_AT_decl_line
00000c09  01                  4988  		DC	0x1	;; DW_AT_external
                              4989  				;; DW_AT_frame_base
00000c0a  01                  4990  		DC	0x1	;;   size of loc_exp
00000c0b  59                  4991  		DC	0x59	;;   DW_OP_reg9
                              4992  	;; entry 187
00000c0c  08                  4993  		DC	0x8	;; abbrev_code
                              4994  				;; DW_AT_location
00000c0d  02                  4995  		DC	0x2	;;   size of loc_exp
00000c0e  91                  4996  		DC	0x91	;;   DW_OP_fbreg
00000c0f  00                  4997  		DC	0x0	;;     operand
00000c10  6C756C5F746D7000    4998  		DC	"lul_tmp",0x0	;; DW_AT_name
00000c18  00                  4999  		DC	0x0	;; DW_AT_external
00000c19  00000000          + 5000  		DD	.LDW18-.LI_TOP	;; DW_AT_type
                              5001  	;; entry 188
00000c1d  0A                  5002  		DC	0xa	;; abbrev_code
00000c1e  6C736C5F746D7000    5003  		DC	"lsl_tmp",0x0	;; DW_AT_name
00000c26  00                  5004  		DC	0x0	;; DW_AT_external
00000c27  00000000          + 5005  		DD	.LDW3-.LI_TOP	;; DW_AT_type
00000c2b  00000000          + 5006  		DD	.LDW318	;; DW_AT_MN_resource
                              5007  	;; NULL ENTRY 189
00000c2f  00                  5008  		DC	0x0
                              5009  	;; entry 190
00000c30  09                  5010  		DC	0x9	;; abbrev_code
00000c31  63616C635F636F6D    5011  		DC	"calc_comp_val",0x0	;; DW_AT_name
00000c39  705F76616C00        5011  	
00000c3f  00000000          + 5012  		DD	_calc_comp_val	;; DW_AT_low_pc
00000c43  00000000          + 5013  		DD	.LDW34	;; DW_AT_high_pc
00000c47  01                  5014  		DC	0x1	;; DW_AT_prototyped
00000c48  01                  5015  		DC	0x1	;; DW_AT_decl_file
00000c49  9708                5016  		DC	0x97,0x8	;; DW_AT_decl_line
00000c4b  01                  5017  		DC	0x1	;; DW_AT_external
                              5018  				;; DW_AT_frame_base
00000c4c  01                  5019  		DC	0x1	;;   size of loc_exp
00000c4d  59                  5020  		DC	0x59	;;   DW_OP_reg9
                              5021  	;; entry 191
00000c4e  0A                  5022  		DC	0xa	;; abbrev_code
00000c4f  6C75735F6E657874    5023  		DC	"lus_next_theta",0x0	;; DW_AT_name
00000c57  5F746865746100      5023  	
00000c5e  00                  5024  		DC	0x0	;; DW_AT_external
00000c5f  00000000          + 5025  		DD	.LDW6-.LI_TOP	;; DW_AT_type
00000c63  00000000          + 5026  		DD	.LDW373	;; DW_AT_MN_resource
                              5027  	;; entry 192
00000c67  08                  5028  		DC	0x8	;; abbrev_code
                              5029  				;; DW_AT_location
00000c68  02                  5030  		DC	0x2	;;   size of loc_exp
00000c69  91                  5031  		DC	0x91	;;   DW_OP_fbreg
00000c6a  04                  5032  		DC	0x4	;;     operand
00000c6b  6C756C5F74686574    5033  		DC	"lul_theta",0x0	;; DW_AT_name
00000c73  6100                5033  	
00000c75  00                  5034  		DC	0x0	;; DW_AT_external
00000c76  00000000          + 5035  		DD	.LDW18-.LI_TOP	;; DW_AT_type
                              5036  	;; NULL ENTRY 193
00000c7a  00                  5037  		DC	0x0
                              5038  	;; entry 194
00000c7b  0C                  5039  		DC	0xc	;; abbrev_code
00000c7c  6765745F73696E5F    5040  		DC	"get_sin_value",0x0	;; DW_AT_name
00000c84  76616C756500        5040  	
00000c8a  00000000          + 5041  		DD	_get_sin_value	;; DW_AT_low_pc
00000c8e  00000000          + 5042  		DD	.LDW35	;; DW_AT_high_pc
00000c92  01                  5043  		DC	0x1	;; DW_AT_prototyped
00000c93  01                  5044  		DC	0x1	;; DW_AT_decl_file
00000c94  C608                5045  		DC	0xc6,0x8	;; DW_AT_decl_line
00000c96  01                  5046  		DC	0x1	;; DW_AT_external
                              5047  				;; DW_AT_frame_base
00000c97  01                  5048  		DC	0x1	;;   size of loc_exp
00000c98  59                  5049  		DC	0x59	;;   DW_OP_reg9
00000c99  00000000          + 5050  		DD	.LDW2-.LI_TOP	;; DW_AT_type
                              5051  				;; DW_AT_MN_return_value_location
00000c9d  01                  5052  		DC	0x1	;;   size of loc_exp
00000c9e  50                  5053  		DC	0x50	;;   DW_OP_reg0
                              5054  	;; entry 195
00000c9f  0D                  5055  		DC	0xd	;; abbrev_code
00000ca0  6E6F775F73696E5F    5056  		DC	"now_sin_index",0x0	;; DW_AT_name
00000ca8  696E64657800        5056  	
00000cae  00000000          + 5057  		DD	.LDW6-.LI_TOP	;; DW_AT_type
00000cb2  00000000          + 5058  		DD	.LDW414	;; DW_AT_MN_resource
                              5059  	;; entry 196
00000cb6  0A                  5060  		DC	0xa	;; abbrev_code
00000cb7  6C73695F73696E5F    5061  		DC	"lsi_sin_val",0x0	;; DW_AT_name
00000cbf  76616C00            5061  	
00000cc3  00                  5062  		DC	0x0	;; DW_AT_external
00000cc4  00000000          + 5063  		DD	.LDW2-.LI_TOP	;; DW_AT_type
00000cc8  00000000          + 5064  		DD	.LDW405	;; DW_AT_MN_resource
                              5065  	;; NULL ENTRY 197
00000ccc  00                  5066  		DC	0x0
                              5067  	;; entry 198
00000ccd  0C                  5068  		DC	0xc	;; abbrev_code
00000cce  6765745F7461695F    5069  		DC	"get_tai_comp_value",0x0	;; DW_AT_name
00000cd6  636F6D705F76616C    5069  	
00000cde  756500              5069  	
00000ce1  00000000          + 5070  		DD	_get_tai_comp_value	;; DW_AT_low_pc
00000ce5  00000000          + 5071  		DD	.LDW36	;; DW_AT_high_pc
00000ce9  01                  5072  		DC	0x1	;; DW_AT_prototyped
00000cea  01                  5073  		DC	0x1	;; DW_AT_decl_file
00000ceb  E608                5074  		DC	0xe6,0x8	;; DW_AT_decl_line
00000ced  01                  5075  		DC	0x1	;; DW_AT_external
                              5076  				;; DW_AT_frame_base
00000cee  01                  5077  		DC	0x1	;;   size of loc_exp
00000cef  59                  5078  		DC	0x59	;;   DW_OP_reg9
00000cf0  00000000          + 5079  		DD	.LDW6-.LI_TOP	;; DW_AT_type
                              5080  				;; DW_AT_MN_return_value_location
00000cf4  01                  5081  		DC	0x1	;;   size of loc_exp
00000cf5  50                  5082  		DC	0x50	;;   DW_OP_reg0
                              5083  	;; entry 199
00000cf6  0D                  5084  		DC	0xd	;; abbrev_code
00000cf7  6E6F775F696E6465    5085  		DC	"now_index",0x0	;; DW_AT_name
00000cff  7800                5085  	
00000d01  00000000          + 5086  		DD	.LDW6-.LI_TOP	;; DW_AT_type
00000d05  00000000          + 5087  		DD	.LDW446	;; DW_AT_MN_resource
                              5088  	;; entry 200
00000d09  08                  5089  		DC	0x8	;; abbrev_code
                              5090  				;; DW_AT_location
00000d0a  02                  5091  		DC	0x2	;;   size of loc_exp
00000d0b  91                  5092  		DC	0x91	;;   DW_OP_fbreg
00000d0c  04                  5093  		DC	0x4	;;     operand
00000d0d  6C736C5F7461695F    5094  		DC	"lsl_tai_val",0x0	;; DW_AT_name
00000d15  76616C00            5094  	
00000d19  00                  5095  		DC	0x0	;; DW_AT_external
00000d1a  00000000          + 5096  		DD	.LDW18-.LI_TOP	;; DW_AT_type
                              5097  	;; NULL ENTRY 201
00000d1e  00                  5098  		DC	0x0
                              5099  	;; entry 202
00000d1f  0C                  5100  		DC	0xc	;; abbrev_code
00000d20  6765745F73767077    5101  		DC	"get_svpwm_comp_value",0x0	;; DW_AT_name
00000d28  6D5F636F6D705F76    5101  	
00000d30  616C756500          5101  	
00000d35  00000000          + 5102  		DD	_get_svpwm_comp_value	;; DW_AT_low_pc
00000d39  00000000          + 5103  		DD	.LDW37	;; DW_AT_high_pc
00000d3d  01                  5104  		DC	0x1	;; DW_AT_prototyped
00000d3e  01                  5105  		DC	0x1	;; DW_AT_decl_file
00000d3f  B909                5106  		DC	0xb9,0x9	;; DW_AT_decl_line
00000d41  01                  5107  		DC	0x1	;; DW_AT_external
                              5108  				;; DW_AT_frame_base
00000d42  01                  5109  		DC	0x1	;;   size of loc_exp
00000d43  59                  5110  		DC	0x59	;;   DW_OP_reg9
00000d44  00000000          + 5111  		DD	.LDW6-.LI_TOP	;; DW_AT_type
                              5112  				;; DW_AT_MN_return_value_location
00000d48  01                  5113  		DC	0x1	;;   size of loc_exp
00000d49  50                  5114  		DC	0x50	;;   DW_OP_reg0
                              5115  	;; entry 203
00000d4a  0D                  5116  		DC	0xd	;; abbrev_code
00000d4b  6E6F775F696E6465    5117  		DC	"now_index",0x0	;; DW_AT_name
00000d53  7800                5117  	
00000d55  00000000          + 5118  		DD	.LDW6-.LI_TOP	;; DW_AT_type
00000d59  00000000          + 5119  		DD	.LDW510	;; DW_AT_MN_resource
                              5120  	;; entry 204
00000d5d  08                  5121  		DC	0x8	;; abbrev_code
                              5122  				;; DW_AT_location
00000d5e  02                  5123  		DC	0x2	;;   size of loc_exp
00000d5f  91                  5124  		DC	0x91	;;   DW_OP_fbreg
00000d60  04                  5125  		DC	0x4	;;     operand
00000d61  6C736C5F73767077    5126  		DC	"lsl_svpwm_val",0x0	;; DW_AT_name
00000d69  6D5F76616C00        5126  	
00000d6f  00                  5127  		DC	0x0	;; DW_AT_external
00000d70  00000000          + 5128  		DD	.LDW18-.LI_TOP	;; DW_AT_type
                              5129  	;; NULL ENTRY 205
00000d74  00                  5130  		DC	0x0
                              5131  	;; entry 206
00000d75  09                  5132  		DC	0x9	;; abbrev_code
00000d76  50574D5F52656C6F    5133  		DC	"PWM_Reload_INT",0x0	;; DW_AT_name
00000d7e  61645F494E5400      5133  	
00000d85  00000000          + 5134  		DD	_PWM_Reload_INT	;; DW_AT_low_pc
00000d89  00000000          + 5135  		DD	.LDW38	;; DW_AT_high_pc
00000d8d  01                  5136  		DC	0x1	;; DW_AT_prototyped
00000d8e  01                  5137  		DC	0x1	;; DW_AT_decl_file
00000d8f  830A                5138  		DC	0x83,0xa	;; DW_AT_decl_line
00000d91  01                  5139  		DC	0x1	;; DW_AT_external
                              5140  				;; DW_AT_frame_base
00000d92  01                  5141  		DC	0x1	;;   size of loc_exp
00000d93  59                  5142  		DC	0x59	;;   DW_OP_reg9
                              5143  	;; NULL ENTRY 207
00000d94  00                  5144  		DC	0x0
                              5145  	;; entry 208
00000d95  09                  5146  		DC	0x9	;; abbrev_code
00000d96  636F6D705F76616C    5147  		DC	"comp_val_order",0x0	;; DW_AT_name
00000d9e  5F6F7264657200      5147  	
00000da5  00000000          + 5148  		DD	_comp_val_order	;; DW_AT_low_pc
00000da9  00000000          + 5149  		DD	.LDW39	;; DW_AT_high_pc
00000dad  01                  5150  		DC	0x1	;; DW_AT_prototyped
00000dae  01                  5151  		DC	0x1	;; DW_AT_decl_file
00000daf  800B                5152  		DC	0x80,0xb	;; DW_AT_decl_line
00000db1  01                  5153  		DC	0x1	;; DW_AT_external
                              5154  				;; DW_AT_frame_base
00000db2  01                  5155  		DC	0x1	;;   size of loc_exp
00000db3  59                  5156  		DC	0x59	;;   DW_OP_reg9
                              5157  	;; NULL ENTRY 209
00000db4  00                  5158  		DC	0x0
                              5159  	;; NULL ENTRY 210
00000db5  00                  5160  		DC	0x0
00000db6                      5161  	.LI_E
                              5162  	;; End of Debugging Information Entries
                              5163  	.debug_line		SECTION
                              5164  	;; Line Number Information
00000000                      5165  	.LLN_TOP
                              5166  	;; Prologue
00000000  00000000          + 5167  		DD	.LLN_E-.LLN_B	;; total_length
00000004                      5168  	.LLN_B
00000004  0200                5169  		DW	0x2	;; version
00000006  00000000          + 5170  		DD	.LLN_P_E-.LLN_P_B	;; prologue_length
0000000a                      5171  	.LLN_P_B
0000000a  01                  5172  		DC	0x1	;; minimum_instruction_length
0000000b  01                  5173  		DC	0x1	;; default_is_stmt
0000000c  FA                  5174  		DC	0xfa	;; line_base
0000000d  F6                  5175  		DC	0xf6	;; line_range
0000000e  0A                  5176  		DC	0xa	;; opcode_base
0000000f  0001010101000000    5177  		DC	0x0,0x1,0x1,0x1,0x1,0x0,0x0,0x0,0x1	;; standard_opcode_lengths
00000017  01                  5177  	
00000018  00                  5178  		DC	0x0	;; include directories
00000019  636F64655C50574D    5179  		DC	"code\\PWM_CTRL.c",0x0	;; file_names: name
00000021  5F4354524C2E6300    5179  	
00000029  00                  5180  		DC	0x0	;;           : directory index
0000002a  00                  5181  		DC	0x0	;;           : time
0000002b  00                  5182  		DC	0x0	;;           : length
0000002c  00                  5183  		DC	0x0
0000002d                      5184  	.LLN_P_E
0000002d  000502              5185  		DC	0x0,0x5,0x2	;; DW_LNE_set_address
00000030  00000000          + 5186  		DD	.DWLopt8	;;     operand
00000034  A5                  5187  		DC	0xa5	;; SPECIAL 165
00000035  000502              5188  		DC	0x0,0x5,0x2	;; DW_LNE_set_address
00000038  00000000          + 5189  		DD	.DWLopt9	;;     operand
0000003c  11                  5190  		DC	0x11	;; SPECIAL 17
0000003d  000502              5191  		DC	0x0,0x5,0x2	;; DW_LNE_set_address
00000040  00000000          + 5192  		DD	.DWLopt10	;;     operand
00000044  19                  5193  		DC	0x19	;; SPECIAL 25
00000045  000502              5194  		DC	0x0,0x5,0x2	;; DW_LNE_set_address
00000048  00000000          + 5195  		DD	.DWLopt11	;;     operand
0000004c  18                  5196  		DC	0x18	;; SPECIAL 24
0000004d  06                  5197  		DC	0x6	;; DW_LNS_negate_stmt
0000004e  000502              5198  		DC	0x0,0x5,0x2	;; DW_LNE_set_address
00000051  00000000          + 5199  		DD	.DWLopt12	;;     operand
00000055  03                  5200  		DC	0x3	;; DW_LNS_advance_line
00000056  78                  5201  		DC	0x78	;; -8
00000057  01                  5202  		DC	0x1	;; DW_LNS_copy
00000058  000502              5203  		DC	0x0,0x5,0x2	;; DW_LNE_set_address
0000005b  00000000          + 5204  		DD	.DWLopt13	;;     operand
0000005f  03                  5205  		DC	0x3	;; DW_LNS_advance_line
00000060  77                  5206  		DC	0x77	;; -9
00000061  01                  5207  		DC	0x1	;; DW_LNS_copy
00000062  06                  5208  		DC	0x6	;; DW_LNS_negate_stmt
00000063  000502              5209  		DC	0x0,0x5,0x2	;; DW_LNE_set_address
00000066  00000000          + 5210  		DD	.DWLopt14	;;     operand
0000006a  11                  5211  		DC	0x11	;; SPECIAL 17
0000006b  06                  5212  		DC	0x6	;; DW_LNS_negate_stmt
0000006c  000502              5213  		DC	0x0,0x5,0x2	;; DW_LNE_set_address
0000006f  00000000          + 5214  		DD	.DWLopt15	;;     operand
00000073  18                  5215  		DC	0x18	;; SPECIAL 24
00000074  06                  5216  		DC	0x6	;; DW_LNS_negate_stmt
00000075  000502              5217  		DC	0x0,0x5,0x2	;; DW_LNE_set_address
00000078  00000000          + 5218  		DD	.DWLopt16	;;     operand
0000007c  11                  5219  		DC	0x11	;; SPECIAL 17
0000007d  000502              5220  		DC	0x0,0x5,0x2	;; DW_LNE_set_address
00000080  00000000          + 5221  		DD	.DWLopt17	;;     operand
00000084  16                  5222  		DC	0x16	;; SPECIAL 22
00000085  06                  5223  		DC	0x6	;; DW_LNS_negate_stmt
00000086  000502              5224  		DC	0x0,0x5,0x2	;; DW_LNE_set_address
00000089  00000000          + 5225  		DD	.DWLopt18	;;     operand
0000008d  0A                  5226  		DC	0xa	;; SPECIAL 10
0000008e  000502              5227  		DC	0x0,0x5,0x2	;; DW_LNE_set_address
00000091  00000000          + 5228  		DD	.DWLopt19	;;     operand
00000095  16                  5229  		DC	0x16	;; SPECIAL 22
00000096  000502              5230  		DC	0x0,0x5,0x2	;; DW_LNE_set_address
00000099  00000000          + 5231  		DD	.DWLopt20	;;     operand
0000009d  11                  5232  		DC	0x11	;; SPECIAL 17
0000009e  000502              5233  		DC	0x0,0x5,0x2	;; DW_LNE_set_address
000000a1  00000000          + 5234  		DD	.DWLopt21	;;     operand
000000a5  0F                  5235  		DC	0xf	;; SPECIAL 15
000000a6  06                  5236  		DC	0x6	;; DW_LNS_negate_stmt
000000a7  000502              5237  		DC	0x0,0x5,0x2	;; DW_LNE_set_address
000000aa  00000000          + 5238  		DD	.DWLopt22	;;     operand
000000ae  13                  5239  		DC	0x13	;; SPECIAL 19
000000af  000502              5240  		DC	0x0,0x5,0x2	;; DW_LNE_set_address
000000b2  00000000          + 5241  		DD	.DWLopt23	;;     operand
000000b6  12                  5242  		DC	0x12	;; SPECIAL 18
000000b7  06                  5243  		DC	0x6	;; DW_LNS_negate_stmt
000000b8  000502              5244  		DC	0x0,0x5,0x2	;; DW_LNE_set_address
000000bb  00000000          + 5245  		DD	.DWLopt24	;;     operand
000000bf  0E                  5246  		DC	0xe	;; SPECIAL 14
000000c0  06                  5247  		DC	0x6	;; DW_LNS_negate_stmt
000000c1  000502              5248  		DC	0x0,0x5,0x2	;; DW_LNE_set_address
000000c4  00000000          + 5249  		DD	.DWLopt25	;;     operand
000000c8  11                  5250  		DC	0x11	;; SPECIAL 17
000000c9  06                  5251  		DC	0x6	;; DW_LNS_negate_stmt
000000ca  000502              5252  		DC	0x0,0x5,0x2	;; DW_LNE_set_address
000000cd  00000000          + 5253  		DD	.DWLopt26	;;     operand
000000d1  11                  5254  		DC	0x11	;; SPECIAL 17
000000d2  06                  5255  		DC	0x6	;; DW_LNS_negate_stmt
000000d3  000502              5256  		DC	0x0,0x5,0x2	;; DW_LNE_set_address
000000d6  00000000          + 5257  		DD	.DWLopt27	;;     operand
000000da  12                  5258  		DC	0x12	;; SPECIAL 18
000000db  000502              5259  		DC	0x0,0x5,0x2	;; DW_LNE_set_address
000000de  00000000          + 5260  		DD	.DWLopt28	;;     operand
000000e2  11                  5261  		DC	0x11	;; SPECIAL 17
000000e3  000502              5262  		DC	0x0,0x5,0x2	;; DW_LNE_set_address
000000e6  00000000          + 5263  		DD	.DWLopt29	;;     operand
000000ea  12                  5264  		DC	0x12	;; SPECIAL 18
000000eb  000502              5265  		DC	0x0,0x5,0x2	;; DW_LNE_set_address
000000ee  00000000          + 5266  		DD	.DWLopt30	;;     operand
000000f2  12                  5267  		DC	0x12	;; SPECIAL 18
000000f3  000502              5268  		DC	0x0,0x5,0x2	;; DW_LNE_set_address
000000f6  00000000          + 5269  		DD	.DWLopt31	;;     operand
000000fa  11                  5270  		DC	0x11	;; SPECIAL 17
000000fb  06                  5271  		DC	0x6	;; DW_LNS_negate_stmt
000000fc  000502              5272  		DC	0x0,0x5,0x2	;; DW_LNE_set_address
000000ff  00000000          + 5273  		DD	.DWLopt32	;;     operand
00000103  0B                  5274  		DC	0xb	;; SPECIAL 11
00000104  06                  5275  		DC	0x6	;; DW_LNS_negate_stmt
00000105  000502              5276  		DC	0x0,0x5,0x2	;; DW_LNE_set_address
00000108  00000000          + 5277  		DD	.DWLopt33	;;     operand
0000010c  1C                  5278  		DC	0x1c	;; SPECIAL 28
0000010d  000502              5279  		DC	0x0,0x5,0x2	;; DW_LNE_set_address
00000110  00000000          + 5280  		DD	.DWLopt34	;;     operand
00000114  16                  5281  		DC	0x16	;; SPECIAL 22
00000115  000502              5282  		DC	0x0,0x5,0x2	;; DW_LNE_set_address
00000118  00000000          + 5283  		DD	.DWLopt35	;;     operand
0000011c  14                  5284  		DC	0x14	;; SPECIAL 20
0000011d  000502              5285  		DC	0x0,0x5,0x2	;; DW_LNE_set_address
00000120  00000000          + 5286  		DD	.DWLopt36	;;     operand
00000124  11                  5287  		DC	0x11	;; SPECIAL 17
00000125  000502              5288  		DC	0x0,0x5,0x2	;; DW_LNE_set_address
00000128  00000000          + 5289  		DD	.DWLopt37	;;     operand
0000012c  11                  5290  		DC	0x11	;; SPECIAL 17
0000012d  000502              5291  		DC	0x0,0x5,0x2	;; DW_LNE_set_address
00000130  00000000          + 5292  		DD	.DWLopt38	;;     operand
00000134  13                  5293  		DC	0x13	;; SPECIAL 19
00000135  000502              5294  		DC	0x0,0x5,0x2	;; DW_LNE_set_address
00000138  00000000          + 5295  		DD	.DWLopt39	;;     operand
0000013c  11                  5296  		DC	0x11	;; SPECIAL 17
0000013d  000502              5297  		DC	0x0,0x5,0x2	;; DW_LNE_set_address
00000140  00000000          + 5298  		DD	.DWLopt40	;;     operand
00000144  11                  5299  		DC	0x11	;; SPECIAL 17
00000145  000502              5300  		DC	0x0,0x5,0x2	;; DW_LNE_set_address
00000148  00000000          + 5301  		DD	.DWLopt41	;;     operand
0000014c  16                  5302  		DC	0x16	;; SPECIAL 22
0000014d  000502              5303  		DC	0x0,0x5,0x2	;; DW_LNE_set_address
00000150  00000000          + 5304  		DD	.DWLopt42	;;     operand
00000154  11                  5305  		DC	0x11	;; SPECIAL 17
00000155  000502              5306  		DC	0x0,0x5,0x2	;; DW_LNE_set_address
00000158  00000000          + 5307  		DD	.DWLopt43	;;     operand
0000015c  13                  5308  		DC	0x13	;; SPECIAL 19
0000015d  000502              5309  		DC	0x0,0x5,0x2	;; DW_LNE_set_address
00000160  00000000          + 5310  		DD	.DWLopt44	;;     operand
00000164  11                  5311  		DC	0x11	;; SPECIAL 17
00000165  000502              5312  		DC	0x0,0x5,0x2	;; DW_LNE_set_address
00000168  00000000          + 5313  		DD	.DWLopt45	;;     operand
0000016c  11                  5314  		DC	0x11	;; SPECIAL 17
0000016d  000502              5315  		DC	0x0,0x5,0x2	;; DW_LNE_set_address
00000170  00000000          + 5316  		DD	.DWLopt46	;;     operand
00000174  12                  5317  		DC	0x12	;; SPECIAL 18
00000175  000502              5318  		DC	0x0,0x5,0x2	;; DW_LNE_set_address
00000178  00000000          + 5319  		DD	.DWLopt47	;;     operand
0000017c  11                  5320  		DC	0x11	;; SPECIAL 17
0000017d  000502              5321  		DC	0x0,0x5,0x2	;; DW_LNE_set_address
00000180  00000000          + 5322  		DD	.DWLopt48	;;     operand
00000184  14                  5323  		DC	0x14	;; SPECIAL 20
00000185  000502              5324  		DC	0x0,0x5,0x2	;; DW_LNE_set_address
00000188  00000000          + 5325  		DD	.DWLopt49	;;     operand
0000018c  12                  5326  		DC	0x12	;; SPECIAL 18
0000018d  000502              5327  		DC	0x0,0x5,0x2	;; DW_LNE_set_address
00000190  00000000          + 5328  		DD	.DWLopt50	;;     operand
00000194  14                  5329  		DC	0x14	;; SPECIAL 20
00000195  000502              5330  		DC	0x0,0x5,0x2	;; DW_LNE_set_address
00000198  00000000          + 5331  		DD	.DWLopt51	;;     operand
0000019c  12                  5332  		DC	0x12	;; SPECIAL 18
0000019d  000502              5333  		DC	0x0,0x5,0x2	;; DW_LNE_set_address
000001a0  00000000          + 5334  		DD	.DWLopt52	;;     operand
000001a4  12                  5335  		DC	0x12	;; SPECIAL 18
000001a5  000502              5336  		DC	0x0,0x5,0x2	;; DW_LNE_set_address
000001a8  00000000          + 5337  		DD	.DWLopt53	;;     operand
000001ac  11                  5338  		DC	0x11	;; SPECIAL 17
000001ad  000502              5339  		DC	0x0,0x5,0x2	;; DW_LNE_set_address
000001b0  00000000          + 5340  		DD	.DWLopt54	;;     operand
000001b4  13                  5341  		DC	0x13	;; SPECIAL 19
000001b5  000502              5342  		DC	0x0,0x5,0x2	;; DW_LNE_set_address
000001b8  00000000          + 5343  		DD	.DWLopt55	;;     operand
000001bc  11                  5344  		DC	0x11	;; SPECIAL 17
000001bd  000502              5345  		DC	0x0,0x5,0x2	;; DW_LNE_set_address
000001c0  00000000          + 5346  		DD	.DWLopt56	;;     operand
000001c4  22                  5347  		DC	0x22	;; SPECIAL 34
000001c5  000502              5348  		DC	0x0,0x5,0x2	;; DW_LNE_set_address
000001c8  00000000          + 5349  		DD	.DWLopt57	;;     operand
000001cc  2C                  5350  		DC	0x2c	;; SPECIAL 44
000001cd  000502              5351  		DC	0x0,0x5,0x2	;; DW_LNE_set_address
000001d0  00000000          + 5352  		DD	.DWLopt58	;;     operand
000001d4  12                  5353  		DC	0x12	;; SPECIAL 18
000001d5  000502              5354  		DC	0x0,0x5,0x2	;; DW_LNE_set_address
000001d8  00000000          + 5355  		DD	.DWLopt59	;;     operand
000001dc  11                  5356  		DC	0x11	;; SPECIAL 17
000001dd  000502              5357  		DC	0x0,0x5,0x2	;; DW_LNE_set_address
000001e0  00000000          + 5358  		DD	.DWLopt60	;;     operand
000001e4  11                  5359  		DC	0x11	;; SPECIAL 17
000001e5  000502              5360  		DC	0x0,0x5,0x2	;; DW_LNE_set_address
000001e8  00000000          + 5361  		DD	.DWLopt61	;;     operand
000001ec  11                  5362  		DC	0x11	;; SPECIAL 17
000001ed  000502              5363  		DC	0x0,0x5,0x2	;; DW_LNE_set_address
000001f0  00000000          + 5364  		DD	.DWLopt62	;;     operand
000001f4  11                  5365  		DC	0x11	;; SPECIAL 17
000001f5  000502              5366  		DC	0x0,0x5,0x2	;; DW_LNE_set_address
000001f8  00000000          + 5367  		DD	.DWLopt63	;;     operand
000001fc  11                  5368  		DC	0x11	;; SPECIAL 17
000001fd  000502              5369  		DC	0x0,0x5,0x2	;; DW_LNE_set_address
00000200  00000000          + 5370  		DD	.DWLopt64	;;     operand
00000204  12                  5371  		DC	0x12	;; SPECIAL 18
00000205  000502              5372  		DC	0x0,0x5,0x2	;; DW_LNE_set_address
00000208  00000000          + 5373  		DD	.DWLopt65	;;     operand
0000020c  12                  5374  		DC	0x12	;; SPECIAL 18
0000020d  000502              5375  		DC	0x0,0x5,0x2	;; DW_LNE_set_address
00000210  00000000          + 5376  		DD	.DWLopt66	;;     operand
00000214  12                  5377  		DC	0x12	;; SPECIAL 18
00000215  000502              5378  		DC	0x0,0x5,0x2	;; DW_LNE_set_address
00000218  00000000          + 5379  		DD	.DWLopt67	;;     operand
0000021c  14                  5380  		DC	0x14	;; SPECIAL 20
0000021d  000502              5381  		DC	0x0,0x5,0x2	;; DW_LNE_set_address
00000220  00000000          + 5382  		DD	.DWLopt68	;;     operand
00000224  20                  5383  		DC	0x20	;; SPECIAL 32
00000225  000502              5384  		DC	0x0,0x5,0x2	;; DW_LNE_set_address
00000228  00000000          + 5385  		DD	.DWLopt69	;;     operand
0000022c  24                  5386  		DC	0x24	;; SPECIAL 36
0000022d  000502              5387  		DC	0x0,0x5,0x2	;; DW_LNE_set_address
00000230  00000000          + 5388  		DD	.DWLopt70	;;     operand
00000234  13                  5389  		DC	0x13	;; SPECIAL 19
00000235  000502              5390  		DC	0x0,0x5,0x2	;; DW_LNE_set_address
00000238  00000000          + 5391  		DD	.DWLopt71	;;     operand
0000023c  11                  5392  		DC	0x11	;; SPECIAL 17
0000023d  000502              5393  		DC	0x0,0x5,0x2	;; DW_LNE_set_address
00000240  00000000          + 5394  		DD	.DWLopt72	;;     operand
00000244  11                  5395  		DC	0x11	;; SPECIAL 17
00000245  000502              5396  		DC	0x0,0x5,0x2	;; DW_LNE_set_address
00000248  00000000          + 5397  		DD	.DWLopt73	;;     operand
0000024c  1E                  5398  		DC	0x1e	;; SPECIAL 30
0000024d  000502              5399  		DC	0x0,0x5,0x2	;; DW_LNE_set_address
00000250  00000000          + 5400  		DD	.DWLopt74	;;     operand
00000254  20                  5401  		DC	0x20	;; SPECIAL 32
00000255  000502              5402  		DC	0x0,0x5,0x2	;; DW_LNE_set_address
00000258  00000000          + 5403  		DD	.DWLopt75	;;     operand
0000025c  28                  5404  		DC	0x28	;; SPECIAL 40
0000025d  000502              5405  		DC	0x0,0x5,0x2	;; DW_LNE_set_address
00000260  00000000          + 5406  		DD	.DWLopt76	;;     operand
00000264  21                  5407  		DC	0x21	;; SPECIAL 33
00000265  000502              5408  		DC	0x0,0x5,0x2	;; DW_LNE_set_address
00000268  00000000          + 5409  		DD	.DWLopt77	;;     operand
0000026c  24                  5410  		DC	0x24	;; SPECIAL 36
0000026d  000502              5411  		DC	0x0,0x5,0x2	;; DW_LNE_set_address
00000270  00000000          + 5412  		DD	.DWLopt78	;;     operand
00000274  1B                  5413  		DC	0x1b	;; SPECIAL 27
00000275  000502              5414  		DC	0x0,0x5,0x2	;; DW_LNE_set_address
00000278  00000000          + 5415  		DD	.DWLopt79	;;     operand
0000027c  27                  5416  		DC	0x27	;; SPECIAL 39
0000027d  000502              5417  		DC	0x0,0x5,0x2	;; DW_LNE_set_address
00000280  00000000          + 5418  		DD	.DWLopt80	;;     operand
00000284  2C                  5419  		DC	0x2c	;; SPECIAL 44
00000285  000502              5420  		DC	0x0,0x5,0x2	;; DW_LNE_set_address
00000288  00000000          + 5421  		DD	.DWLopt81	;;     operand
0000028c  11                  5422  		DC	0x11	;; SPECIAL 17
0000028d  000502              5423  		DC	0x0,0x5,0x2	;; DW_LNE_set_address
00000290  00000000          + 5424  		DD	.DWLopt82	;;     operand
00000294  13                  5425  		DC	0x13	;; SPECIAL 19
00000295  000502              5426  		DC	0x0,0x5,0x2	;; DW_LNE_set_address
00000298  00000000          + 5427  		DD	.DWLopt83	;;     operand
0000029c  11                  5428  		DC	0x11	;; SPECIAL 17
0000029d  000502              5429  		DC	0x0,0x5,0x2	;; DW_LNE_set_address
000002a0  00000000          + 5430  		DD	.DWLopt84	;;     operand
000002a4  23                  5431  		DC	0x23	;; SPECIAL 35
000002a5  000502              5432  		DC	0x0,0x5,0x2	;; DW_LNE_set_address
000002a8  00000000          + 5433  		DD	.DWLopt85	;;     operand
000002ac  22                  5434  		DC	0x22	;; SPECIAL 34
000002ad  000502              5435  		DC	0x0,0x5,0x2	;; DW_LNE_set_address
000002b0  00000000          + 5436  		DD	.DWLopt86	;;     operand
000002b4  13                  5437  		DC	0x13	;; SPECIAL 19
000002b5  000502              5438  		DC	0x0,0x5,0x2	;; DW_LNE_set_address
000002b8  00000000          + 5439  		DD	.DWLopt87	;;     operand
000002bc  13                  5440  		DC	0x13	;; SPECIAL 19
000002bd  000502              5441  		DC	0x0,0x5,0x2	;; DW_LNE_set_address
000002c0  00000000          + 5442  		DD	.DWLopt88	;;     operand
000002c4  13                  5443  		DC	0x13	;; SPECIAL 19
000002c5  000502              5444  		DC	0x0,0x5,0x2	;; DW_LNE_set_address
000002c8  00000000          + 5445  		DD	.DWLopt89	;;     operand
000002cc  11                  5446  		DC	0x11	;; SPECIAL 17
000002cd  000502              5447  		DC	0x0,0x5,0x2	;; DW_LNE_set_address
000002d0  00000000          + 5448  		DD	.DWLopt90	;;     operand
000002d4  12                  5449  		DC	0x12	;; SPECIAL 18
000002d5  000502              5450  		DC	0x0,0x5,0x2	;; DW_LNE_set_address
000002d8  00000000          + 5451  		DD	.DWLopt91	;;     operand
000002dc  11                  5452  		DC	0x11	;; SPECIAL 17
000002dd  000502              5453  		DC	0x0,0x5,0x2	;; DW_LNE_set_address
000002e0  00000000          + 5454  		DD	.DWLopt92	;;     operand
000002e4  13                  5455  		DC	0x13	;; SPECIAL 19
000002e5  000502              5456  		DC	0x0,0x5,0x2	;; DW_LNE_set_address
000002e8  00000000          + 5457  		DD	.DWLopt93	;;     operand
000002ec  12                  5458  		DC	0x12	;; SPECIAL 18
000002ed  000502              5459  		DC	0x0,0x5,0x2	;; DW_LNE_set_address
000002f0  00000000          + 5460  		DD	.DWLopt94	;;     operand
000002f4  12                  5461  		DC	0x12	;; SPECIAL 18
000002f5  06                  5462  		DC	0x6	;; DW_LNS_negate_stmt
000002f6  000502              5463  		DC	0x0,0x5,0x2	;; DW_LNE_set_address
000002f9  00000000          + 5464  		DD	.LDW26	;;     operand
000002fd  000101              5465  		DC	0x0,0x1,0x1	;; DW_LNE_end_sequence
00000300  000502              5466  		DC	0x0,0x5,0x2	;; DW_LNE_set_address
00000303  00000000          + 5467  		DD	.DWLopt95	;;     operand
00000307  03                  5468  		DC	0x3	;; DW_LNS_advance_line
00000308  B604                5469  		DC	0xb6,0x4	;; 566
0000030a  01                  5470  		DC	0x1	;; DW_LNS_copy
0000030b  000502              5471  		DC	0x0,0x5,0x2	;; DW_LNE_set_address
0000030e  00000000          + 5472  		DD	.DWLopt96	;;     operand
00000312  12                  5473  		DC	0x12	;; SPECIAL 18
00000313  000502              5474  		DC	0x0,0x5,0x2	;; DW_LNE_set_address
00000316  00000000          + 5475  		DD	.DWLopt97	;;     operand
0000031a  11                  5476  		DC	0x11	;; SPECIAL 17
0000031b  06                  5477  		DC	0x6	;; DW_LNS_negate_stmt
0000031c  000502              5478  		DC	0x0,0x5,0x2	;; DW_LNE_set_address
0000031f  00000000          + 5479  		DD	.DWLopt98	;;     operand
00000323  0F                  5480  		DC	0xf	;; SPECIAL 15
00000324  000502              5481  		DC	0x0,0x5,0x2	;; DW_LNE_set_address
00000327  00000000          + 5482  		DD	.DWLopt99	;;     operand
0000032b  11                  5483  		DC	0x11	;; SPECIAL 17
0000032c  06                  5484  		DC	0x6	;; DW_LNS_negate_stmt
0000032d  000502              5485  		DC	0x0,0x5,0x2	;; DW_LNE_set_address
00000330  00000000          + 5486  		DD	.DWLopt100	;;     operand
00000334  12                  5487  		DC	0x12	;; SPECIAL 18
00000335  000502              5488  		DC	0x0,0x5,0x2	;; DW_LNE_set_address
00000338  00000000          + 5489  		DD	.DWLopt101	;;     operand
0000033c  11                  5490  		DC	0x11	;; SPECIAL 17
0000033d  000502              5491  		DC	0x0,0x5,0x2	;; DW_LNE_set_address
00000340  00000000          + 5492  		DD	.DWLopt102	;;     operand
00000344  12                  5493  		DC	0x12	;; SPECIAL 18
00000345  06                  5494  		DC	0x6	;; DW_LNS_negate_stmt
00000346  000502              5495  		DC	0x0,0x5,0x2	;; DW_LNE_set_address
00000349  00000000          + 5496  		DD	.LDW27	;;     operand
0000034d  000101              5497  		DC	0x0,0x1,0x1	;; DW_LNE_end_sequence
00000350  000502              5498  		DC	0x0,0x5,0x2	;; DW_LNE_set_address
00000353  00000000          + 5499  		DD	.DWLopt103	;;     operand
00000357  03                  5500  		DC	0x3	;; DW_LNS_advance_line
00000358  C304                5501  		DC	0xc3,0x4	;; 579
0000035a  01                  5502  		DC	0x1	;; DW_LNS_copy
0000035b  000502              5503  		DC	0x0,0x5,0x2	;; DW_LNE_set_address
0000035e  00000000          + 5504  		DD	.DWLopt104	;;     operand
00000362  11                  5505  		DC	0x11	;; SPECIAL 17
00000363  000502              5506  		DC	0x0,0x5,0x2	;; DW_LNE_set_address
00000366  00000000          + 5507  		DD	.DWLopt105	;;     operand
0000036a  11                  5508  		DC	0x11	;; SPECIAL 17
0000036b  000502              5509  		DC	0x0,0x5,0x2	;; DW_LNE_set_address
0000036e  00000000          + 5510  		DD	.DWLopt106	;;     operand
00000372  13                  5511  		DC	0x13	;; SPECIAL 19
00000373  000502              5512  		DC	0x0,0x5,0x2	;; DW_LNE_set_address
00000376  00000000          + 5513  		DD	.DWLopt107	;;     operand
0000037a  11                  5514  		DC	0x11	;; SPECIAL 17
0000037b  000502              5515  		DC	0x0,0x5,0x2	;; DW_LNE_set_address
0000037e  00000000          + 5516  		DD	.DWLopt108	;;     operand
00000382  11                  5517  		DC	0x11	;; SPECIAL 17
00000383  000502              5518  		DC	0x0,0x5,0x2	;; DW_LNE_set_address
00000386  00000000          + 5519  		DD	.DWLopt109	;;     operand
0000038a  13                  5520  		DC	0x13	;; SPECIAL 19
0000038b  000502              5521  		DC	0x0,0x5,0x2	;; DW_LNE_set_address
0000038e  00000000          + 5522  		DD	.DWLopt110	;;     operand
00000392  11                  5523  		DC	0x11	;; SPECIAL 17
00000393  000502              5524  		DC	0x0,0x5,0x2	;; DW_LNE_set_address
00000396  00000000          + 5525  		DD	.DWLopt111	;;     operand
0000039a  11                  5526  		DC	0x11	;; SPECIAL 17
0000039b  000502              5527  		DC	0x0,0x5,0x2	;; DW_LNE_set_address
0000039e  00000000          + 5528  		DD	.DWLopt112	;;     operand
000003a2  21                  5529  		DC	0x21	;; SPECIAL 33
000003a3  000502              5530  		DC	0x0,0x5,0x2	;; DW_LNE_set_address
000003a6  00000000          + 5531  		DD	.DWLopt113	;;     operand
000003aa  12                  5532  		DC	0x12	;; SPECIAL 18
000003ab  06                  5533  		DC	0x6	;; DW_LNS_negate_stmt
000003ac  000502              5534  		DC	0x0,0x5,0x2	;; DW_LNE_set_address
000003af  00000000          + 5535  		DD	.LDW28	;;     operand
000003b3  000101              5536  		DC	0x0,0x1,0x1	;; DW_LNE_end_sequence
000003b6  000502              5537  		DC	0x0,0x5,0x2	;; DW_LNE_set_address
000003b9  00000000          + 5538  		DD	.DWLopt114	;;     operand
000003bd  03                  5539  		DC	0x3	;; DW_LNS_advance_line
000003be  E704                5540  		DC	0xe7,0x4	;; 615
000003c0  01                  5541  		DC	0x1	;; DW_LNS_copy
000003c1  000502              5542  		DC	0x0,0x5,0x2	;; DW_LNE_set_address
000003c4  00000000          + 5543  		DD	.DWLopt115	;;     operand
000003c8  12                  5544  		DC	0x12	;; SPECIAL 18
000003c9  000502              5545  		DC	0x0,0x5,0x2	;; DW_LNE_set_address
000003cc  00000000          + 5546  		DD	.DWLopt116	;;     operand
000003d0  11                  5547  		DC	0x11	;; SPECIAL 17
000003d1  000502              5548  		DC	0x0,0x5,0x2	;; DW_LNE_set_address
000003d4  00000000          + 5549  		DD	.DWLopt117	;;     operand
000003d8  11                  5550  		DC	0x11	;; SPECIAL 17
000003d9  000502              5551  		DC	0x0,0x5,0x2	;; DW_LNE_set_address
000003dc  00000000          + 5552  		DD	.DWLopt118	;;     operand
000003e0  12                  5553  		DC	0x12	;; SPECIAL 18
000003e1  000502              5554  		DC	0x0,0x5,0x2	;; DW_LNE_set_address
000003e4  00000000          + 5555  		DD	.DWLopt119	;;     operand
000003e8  11                  5556  		DC	0x11	;; SPECIAL 17
000003e9  000502              5557  		DC	0x0,0x5,0x2	;; DW_LNE_set_address
000003ec  00000000          + 5558  		DD	.DWLopt120	;;     operand
000003f0  11                  5559  		DC	0x11	;; SPECIAL 17
000003f1  000502              5560  		DC	0x0,0x5,0x2	;; DW_LNE_set_address
000003f4  00000000          + 5561  		DD	.DWLopt121	;;     operand
000003f8  13                  5562  		DC	0x13	;; SPECIAL 19
000003f9  000502              5563  		DC	0x0,0x5,0x2	;; DW_LNE_set_address
000003fc  00000000          + 5564  		DD	.DWLopt122	;;     operand
00000400  11                  5565  		DC	0x11	;; SPECIAL 17
00000401  000502              5566  		DC	0x0,0x5,0x2	;; DW_LNE_set_address
00000404  00000000          + 5567  		DD	.DWLopt123	;;     operand
00000408  11                  5568  		DC	0x11	;; SPECIAL 17
00000409  000502              5569  		DC	0x0,0x5,0x2	;; DW_LNE_set_address
0000040c  00000000          + 5570  		DD	.DWLopt124	;;     operand
00000410  12                  5571  		DC	0x12	;; SPECIAL 18
00000411  000502              5572  		DC	0x0,0x5,0x2	;; DW_LNE_set_address
00000414  00000000          + 5573  		DD	.DWLopt125	;;     operand
00000418  11                  5574  		DC	0x11	;; SPECIAL 17
00000419  000502              5575  		DC	0x0,0x5,0x2	;; DW_LNE_set_address
0000041c  00000000          + 5576  		DD	.DWLopt126	;;     operand
00000420  11                  5577  		DC	0x11	;; SPECIAL 17
00000421  000502              5578  		DC	0x0,0x5,0x2	;; DW_LNE_set_address
00000424  00000000          + 5579  		DD	.DWLopt127	;;     operand
00000428  12                  5580  		DC	0x12	;; SPECIAL 18
00000429  000502              5581  		DC	0x0,0x5,0x2	;; DW_LNE_set_address
0000042c  00000000          + 5582  		DD	.DWLopt128	;;     operand
00000430  11                  5583  		DC	0x11	;; SPECIAL 17
00000431  000502              5584  		DC	0x0,0x5,0x2	;; DW_LNE_set_address
00000434  00000000          + 5585  		DD	.DWLopt129	;;     operand
00000438  12                  5586  		DC	0x12	;; SPECIAL 18
00000439  000502              5587  		DC	0x0,0x5,0x2	;; DW_LNE_set_address
0000043c  00000000          + 5588  		DD	.DWLopt130	;;     operand
00000440  12                  5589  		DC	0x12	;; SPECIAL 18
00000441  000502              5590  		DC	0x0,0x5,0x2	;; DW_LNE_set_address
00000444  00000000          + 5591  		DD	.DWLopt131	;;     operand
00000448  11                  5592  		DC	0x11	;; SPECIAL 17
00000449  000502              5593  		DC	0x0,0x5,0x2	;; DW_LNE_set_address
0000044c  00000000          + 5594  		DD	.DWLopt132	;;     operand
00000450  12                  5595  		DC	0x12	;; SPECIAL 18
00000451  000502              5596  		DC	0x0,0x5,0x2	;; DW_LNE_set_address
00000454  00000000          + 5597  		DD	.DWLopt133	;;     operand
00000458  12                  5598  		DC	0x12	;; SPECIAL 18
00000459  000502              5599  		DC	0x0,0x5,0x2	;; DW_LNE_set_address
0000045c  00000000          + 5600  		DD	.DWLopt134	;;     operand
00000460  17                  5601  		DC	0x17	;; SPECIAL 23
00000461  000502              5602  		DC	0x0,0x5,0x2	;; DW_LNE_set_address
00000464  00000000          + 5603  		DD	.DWLopt135	;;     operand
00000468  11                  5604  		DC	0x11	;; SPECIAL 17
00000469  000502              5605  		DC	0x0,0x5,0x2	;; DW_LNE_set_address
0000046c  00000000          + 5606  		DD	.DWLopt136	;;     operand
00000470  11                  5607  		DC	0x11	;; SPECIAL 17
00000471  000502              5608  		DC	0x0,0x5,0x2	;; DW_LNE_set_address
00000474  00000000          + 5609  		DD	.DWLopt137	;;     operand
00000478  11                  5610  		DC	0x11	;; SPECIAL 17
00000479  06                  5611  		DC	0x6	;; DW_LNS_negate_stmt
0000047a  000502              5612  		DC	0x0,0x5,0x2	;; DW_LNE_set_address
0000047d  00000000          + 5613  		DD	.LDW29	;;     operand
00000481  000101              5614  		DC	0x0,0x1,0x1	;; DW_LNE_end_sequence
00000484  000502              5615  		DC	0x0,0x5,0x2	;; DW_LNE_set_address
00000487  00000000          + 5616  		DD	.DWLopt138	;;     operand
0000048b  03                  5617  		DC	0x3	;; DW_LNS_advance_line
0000048c  9205                5618  		DC	0x92,0x5	;; 658
0000048e  01                  5619  		DC	0x1	;; DW_LNS_copy
0000048f  000502              5620  		DC	0x0,0x5,0x2	;; DW_LNE_set_address
00000492  00000000          + 5621  		DD	.DWLopt139	;;     operand
00000496  4A                  5622  		DC	0x4a	;; SPECIAL 74
00000497  000502              5623  		DC	0x0,0x5,0x2	;; DW_LNE_set_address
0000049a  00000000          + 5624  		DD	.DWLopt140	;;     operand
0000049e  03                  5625  		DC	0x3	;; DW_LNS_advance_line
0000049f  48                  5626  		DC	0x48	;; -56
000004a0  01                  5627  		DC	0x1	;; DW_LNS_copy
000004a1  000502              5628  		DC	0x0,0x5,0x2	;; DW_LNE_set_address
000004a4  00000000          + 5629  		DD	.DWLopt141	;;     operand
000004a8  12                  5630  		DC	0x12	;; SPECIAL 18
000004a9  000502              5631  		DC	0x0,0x5,0x2	;; DW_LNE_set_address
000004ac  00000000          + 5632  		DD	.DWLopt142	;;     operand
000004b0  12                  5633  		DC	0x12	;; SPECIAL 18
000004b1  000502              5634  		DC	0x0,0x5,0x2	;; DW_LNE_set_address
000004b4  00000000          + 5635  		DD	.DWLopt143	;;     operand
000004b8  11                  5636  		DC	0x11	;; SPECIAL 17
000004b9  06                  5637  		DC	0x6	;; DW_LNS_negate_stmt
000004ba  000502              5638  		DC	0x0,0x5,0x2	;; DW_LNE_set_address
000004bd  00000000          + 5639  		DD	.DWLopt144	;;     operand
000004c1  43                  5640  		DC	0x43	;; SPECIAL 67
000004c2  06                  5641  		DC	0x6	;; DW_LNS_negate_stmt
000004c3  000502              5642  		DC	0x0,0x5,0x2	;; DW_LNE_set_address
000004c6  00000000          + 5643  		DD	.DWLopt145	;;     operand
000004ca  03                  5644  		DC	0x3	;; DW_LNS_advance_line
000004cb  4F                  5645  		DC	0x4f	;; -49
000004cc  01                  5646  		DC	0x1	;; DW_LNS_copy
000004cd  000502              5647  		DC	0x0,0x5,0x2	;; DW_LNE_set_address
000004d0  00000000          + 5648  		DD	.DWLopt146	;;     operand
000004d4  12                  5649  		DC	0x12	;; SPECIAL 18
000004d5  000502              5650  		DC	0x0,0x5,0x2	;; DW_LNE_set_address
000004d8  00000000          + 5651  		DD	.DWLopt147	;;     operand
000004dc  11                  5652  		DC	0x11	;; SPECIAL 17
000004dd  000502              5653  		DC	0x0,0x5,0x2	;; DW_LNE_set_address
000004e0  00000000          + 5654  		DD	.DWLopt148	;;     operand
000004e4  11                  5655  		DC	0x11	;; SPECIAL 17
000004e5  000502              5656  		DC	0x0,0x5,0x2	;; DW_LNE_set_address
000004e8  00000000          + 5657  		DD	.DWLopt149	;;     operand
000004ec  12                  5658  		DC	0x12	;; SPECIAL 18
000004ed  000502              5659  		DC	0x0,0x5,0x2	;; DW_LNE_set_address
000004f0  00000000          + 5660  		DD	.DWLopt150	;;     operand
000004f4  11                  5661  		DC	0x11	;; SPECIAL 17
000004f5  000502              5662  		DC	0x0,0x5,0x2	;; DW_LNE_set_address
000004f8  00000000          + 5663  		DD	.DWLopt151	;;     operand
000004fc  11                  5664  		DC	0x11	;; SPECIAL 17
000004fd  000502              5665  		DC	0x0,0x5,0x2	;; DW_LNE_set_address
00000500  00000000          + 5666  		DD	.DWLopt152	;;     operand
00000504  12                  5667  		DC	0x12	;; SPECIAL 18
00000505  06                  5668  		DC	0x6	;; DW_LNS_negate_stmt
00000506  000502              5669  		DC	0x0,0x5,0x2	;; DW_LNE_set_address
00000509  00000000          + 5670  		DD	.DWLopt153	;;     operand
0000050d  37                  5671  		DC	0x37	;; SPECIAL 55
0000050e  06                  5672  		DC	0x6	;; DW_LNS_negate_stmt
0000050f  000502              5673  		DC	0x0,0x5,0x2	;; DW_LNE_set_address
00000512  00000000          + 5674  		DD	.DWLopt154	;;     operand
00000516  03                  5675  		DC	0x3	;; DW_LNS_advance_line
00000517  5B                  5676  		DC	0x5b	;; -37
00000518  01                  5677  		DC	0x1	;; DW_LNS_copy
00000519  000502              5678  		DC	0x0,0x5,0x2	;; DW_LNE_set_address
0000051c  00000000          + 5679  		DD	.DWLopt155	;;     operand
00000520  12                  5680  		DC	0x12	;; SPECIAL 18
00000521  000502              5681  		DC	0x0,0x5,0x2	;; DW_LNE_set_address
00000524  00000000          + 5682  		DD	.DWLopt156	;;     operand
00000528  11                  5683  		DC	0x11	;; SPECIAL 17
00000529  000502              5684  		DC	0x0,0x5,0x2	;; DW_LNE_set_address
0000052c  00000000          + 5685  		DD	.DWLopt157	;;     operand
00000530  11                  5686  		DC	0x11	;; SPECIAL 17
00000531  000502              5687  		DC	0x0,0x5,0x2	;; DW_LNE_set_address
00000534  00000000          + 5688  		DD	.DWLopt158	;;     operand
00000538  12                  5689  		DC	0x12	;; SPECIAL 18
00000539  000502              5690  		DC	0x0,0x5,0x2	;; DW_LNE_set_address
0000053c  00000000          + 5691  		DD	.DWLopt159	;;     operand
00000540  11                  5692  		DC	0x11	;; SPECIAL 17
00000541  000502              5693  		DC	0x0,0x5,0x2	;; DW_LNE_set_address
00000544  00000000          + 5694  		DD	.DWLopt160	;;     operand
00000548  11                  5695  		DC	0x11	;; SPECIAL 17
00000549  000502              5696  		DC	0x0,0x5,0x2	;; DW_LNE_set_address
0000054c  00000000          + 5697  		DD	.DWLopt161	;;     operand
00000550  12                  5698  		DC	0x12	;; SPECIAL 18
00000551  06                  5699  		DC	0x6	;; DW_LNS_negate_stmt
00000552  000502              5700  		DC	0x0,0x5,0x2	;; DW_LNE_set_address
00000555  00000000          + 5701  		DD	.DWLopt162	;;     operand
00000559  2B                  5702  		DC	0x2b	;; SPECIAL 43
0000055a  06                  5703  		DC	0x6	;; DW_LNS_negate_stmt
0000055b  000502              5704  		DC	0x0,0x5,0x2	;; DW_LNE_set_address
0000055e  00000000          + 5705  		DD	.DWLopt163	;;     operand
00000562  03                  5706  		DC	0x3	;; DW_LNS_advance_line
00000563  67                  5707  		DC	0x67	;; -25
00000564  01                  5708  		DC	0x1	;; DW_LNS_copy
00000565  000502              5709  		DC	0x0,0x5,0x2	;; DW_LNE_set_address
00000568  00000000          + 5710  		DD	.DWLopt164	;;     operand
0000056c  12                  5711  		DC	0x12	;; SPECIAL 18
0000056d  000502              5712  		DC	0x0,0x5,0x2	;; DW_LNE_set_address
00000570  00000000          + 5713  		DD	.DWLopt165	;;     operand
00000574  11                  5714  		DC	0x11	;; SPECIAL 17
00000575  000502              5715  		DC	0x0,0x5,0x2	;; DW_LNE_set_address
00000578  00000000          + 5716  		DD	.DWLopt166	;;     operand
0000057c  11                  5717  		DC	0x11	;; SPECIAL 17
0000057d  000502              5718  		DC	0x0,0x5,0x2	;; DW_LNE_set_address
00000580  00000000          + 5719  		DD	.DWLopt167	;;     operand
00000584  12                  5720  		DC	0x12	;; SPECIAL 18
00000585  000502              5721  		DC	0x0,0x5,0x2	;; DW_LNE_set_address
00000588  00000000          + 5722  		DD	.DWLopt168	;;     operand
0000058c  11                  5723  		DC	0x11	;; SPECIAL 17
0000058d  000502              5724  		DC	0x0,0x5,0x2	;; DW_LNE_set_address
00000590  00000000          + 5725  		DD	.DWLopt169	;;     operand
00000594  11                  5726  		DC	0x11	;; SPECIAL 17
00000595  000502              5727  		DC	0x0,0x5,0x2	;; DW_LNE_set_address
00000598  00000000          + 5728  		DD	.DWLopt170	;;     operand
0000059c  12                  5729  		DC	0x12	;; SPECIAL 18
0000059d  000502              5730  		DC	0x0,0x5,0x2	;; DW_LNE_set_address
000005a0  00000000          + 5731  		DD	.DWLopt171	;;     operand
000005a4  12                  5732  		DC	0x12	;; SPECIAL 18
000005a5  000502              5733  		DC	0x0,0x5,0x2	;; DW_LNE_set_address
000005a8  00000000          + 5734  		DD	.DWLopt172	;;     operand
000005ac  12                  5735  		DC	0x12	;; SPECIAL 18
000005ad  000502              5736  		DC	0x0,0x5,0x2	;; DW_LNE_set_address
000005b0  00000000          + 5737  		DD	.DWLopt173	;;     operand
000005b4  11                  5738  		DC	0x11	;; SPECIAL 17
000005b5  000502              5739  		DC	0x0,0x5,0x2	;; DW_LNE_set_address
000005b8  00000000          + 5740  		DD	.DWLopt174	;;     operand
000005bc  11                  5741  		DC	0x11	;; SPECIAL 17
000005bd  000502              5742  		DC	0x0,0x5,0x2	;; DW_LNE_set_address
000005c0  00000000          + 5743  		DD	.DWLopt175	;;     operand
000005c4  12                  5744  		DC	0x12	;; SPECIAL 18
000005c5  000502              5745  		DC	0x0,0x5,0x2	;; DW_LNE_set_address
000005c8  00000000          + 5746  		DD	.DWLopt176	;;     operand
000005cc  11                  5747  		DC	0x11	;; SPECIAL 17
000005cd  000502              5748  		DC	0x0,0x5,0x2	;; DW_LNE_set_address
000005d0  00000000          + 5749  		DD	.DWLopt177	;;     operand
000005d4  11                  5750  		DC	0x11	;; SPECIAL 17
000005d5  000502              5751  		DC	0x0,0x5,0x2	;; DW_LNE_set_address
000005d8  00000000          + 5752  		DD	.DWLopt178	;;     operand
000005dc  12                  5753  		DC	0x12	;; SPECIAL 18
000005dd  06                  5754  		DC	0x6	;; DW_LNS_negate_stmt
000005de  000502              5755  		DC	0x0,0x5,0x2	;; DW_LNE_set_address
000005e1  00000000          + 5756  		DD	.DWLopt179	;;     operand
000005e5  13                  5757  		DC	0x13	;; SPECIAL 19
000005e6  000502              5758  		DC	0x0,0x5,0x2	;; DW_LNE_set_address
000005e9  00000000          + 5759  		DD	.LDW30	;;     operand
000005ed  000101              5760  		DC	0x0,0x1,0x1	;; DW_LNE_end_sequence
000005f0  000502              5761  		DC	0x0,0x5,0x2	;; DW_LNE_set_address
000005f3  00000000          + 5762  		DD	.DWLopt191	;;     operand
000005f7  03                  5763  		DC	0x3	;; DW_LNS_advance_line
000005f8  D305                5764  		DC	0xd3,0x5	;; 723
000005fa  01                  5765  		DC	0x1	;; DW_LNS_copy
000005fb  000502              5766  		DC	0x0,0x5,0x2	;; DW_LNE_set_address
000005fe  00000000          + 5767  		DD	.DWLopt192	;;     operand
00000602  95                  5768  		DC	0x95	;; SPECIAL 149
00000603  000502              5769  		DC	0x0,0x5,0x2	;; DW_LNE_set_address
00000606  00000000          + 5770  		DD	.DWLopt193	;;     operand
0000060a  03                  5771  		DC	0x3	;; DW_LNS_advance_line
0000060b  FF7E                5772  		DC	0xff,0x7e	;; -129
0000060d  01                  5773  		DC	0x1	;; DW_LNS_copy
0000060e  000502              5774  		DC	0x0,0x5,0x2	;; DW_LNE_set_address
00000611  00000000          + 5775  		DD	.DWLopt194	;;     operand
00000615  12                  5776  		DC	0x12	;; SPECIAL 18
00000616  000502              5777  		DC	0x0,0x5,0x2	;; DW_LNE_set_address
00000619  00000000          + 5778  		DD	.DWLopt195	;;     operand
0000061d  12                  5779  		DC	0x12	;; SPECIAL 18
0000061e  000502              5780  		DC	0x0,0x5,0x2	;; DW_LNE_set_address
00000621  00000000          + 5781  		DD	.DWLopt196	;;     operand
00000625  15                  5782  		DC	0x15	;; SPECIAL 21
00000626  000502              5783  		DC	0x0,0x5,0x2	;; DW_LNE_set_address
00000629  00000000          + 5784  		DD	.DWLopt197	;;     operand
0000062d  11                  5785  		DC	0x11	;; SPECIAL 17
0000062e  000502              5786  		DC	0x0,0x5,0x2	;; DW_LNE_set_address
00000631  00000000          + 5787  		DD	.DWLopt198	;;     operand
00000635  12                  5788  		DC	0x12	;; SPECIAL 18
00000636  000502              5789  		DC	0x0,0x5,0x2	;; DW_LNE_set_address
00000639  00000000          + 5790  		DD	.DWLopt199	;;     operand
0000063d  14                  5791  		DC	0x14	;; SPECIAL 20
0000063e  000502              5792  		DC	0x0,0x5,0x2	;; DW_LNE_set_address
00000641  00000000          + 5793  		DD	.DWLopt200	;;     operand
00000645  11                  5794  		DC	0x11	;; SPECIAL 17
00000646  000502              5795  		DC	0x0,0x5,0x2	;; DW_LNE_set_address
00000649  00000000          + 5796  		DD	.DWLopt201	;;     operand
0000064d  12                  5797  		DC	0x12	;; SPECIAL 18
0000064e  000502              5798  		DC	0x0,0x5,0x2	;; DW_LNE_set_address
00000651  00000000          + 5799  		DD	.DWLopt202	;;     operand
00000655  12                  5800  		DC	0x12	;; SPECIAL 18
00000656  000502              5801  		DC	0x0,0x5,0x2	;; DW_LNE_set_address
00000659  00000000          + 5802  		DD	.DWLopt203	;;     operand
0000065d  14                  5803  		DC	0x14	;; SPECIAL 20
0000065e  000502              5804  		DC	0x0,0x5,0x2	;; DW_LNE_set_address
00000661  00000000          + 5805  		DD	.DWLopt204	;;     operand
00000665  12                  5806  		DC	0x12	;; SPECIAL 18
00000666  000502              5807  		DC	0x0,0x5,0x2	;; DW_LNE_set_address
00000669  00000000          + 5808  		DD	.DWLopt205	;;     operand
0000066d  13                  5809  		DC	0x13	;; SPECIAL 19
0000066e  06                  5810  		DC	0x6	;; DW_LNS_negate_stmt
0000066f  000502              5811  		DC	0x0,0x5,0x2	;; DW_LNE_set_address
00000672  00000000          + 5812  		DD	.DWLopt206	;;     operand
00000676  73                  5813  		DC	0x73	;; SPECIAL 115
00000677  06                  5814  		DC	0x6	;; DW_LNS_negate_stmt
00000678  000502              5815  		DC	0x0,0x5,0x2	;; DW_LNE_set_address
0000067b  00000000          + 5816  		DD	.DWLopt207	;;     operand
0000067f  03                  5817  		DC	0x3	;; DW_LNS_advance_line
00000680  A07F                5818  		DC	0xa0,0x7f	;; -96
00000682  01                  5819  		DC	0x1	;; DW_LNS_copy
00000683  000502              5820  		DC	0x0,0x5,0x2	;; DW_LNE_set_address
00000686  00000000          + 5821  		DD	.DWLopt208	;;     operand
0000068a  12                  5822  		DC	0x12	;; SPECIAL 18
0000068b  000502              5823  		DC	0x0,0x5,0x2	;; DW_LNE_set_address
0000068e  00000000          + 5824  		DD	.DWLopt209	;;     operand
00000692  15                  5825  		DC	0x15	;; SPECIAL 21
00000693  000502              5826  		DC	0x0,0x5,0x2	;; DW_LNE_set_address
00000696  00000000          + 5827  		DD	.DWLopt210	;;     operand
0000069a  12                  5828  		DC	0x12	;; SPECIAL 18
0000069b  000502              5829  		DC	0x0,0x5,0x2	;; DW_LNE_set_address
0000069e  00000000          + 5830  		DD	.DWLopt211	;;     operand
000006a2  14                  5831  		DC	0x14	;; SPECIAL 20
000006a3  000502              5832  		DC	0x0,0x5,0x2	;; DW_LNE_set_address
000006a6  00000000          + 5833  		DD	.DWLopt212	;;     operand
000006aa  16                  5834  		DC	0x16	;; SPECIAL 22
000006ab  06                  5835  		DC	0x6	;; DW_LNS_negate_stmt
000006ac  000502              5836  		DC	0x0,0x5,0x2	;; DW_LNE_set_address
000006af  00000000          + 5837  		DD	.DWLopt213	;;     operand
000006b3  0A                  5838  		DC	0xa	;; SPECIAL 10
000006b4  06                  5839  		DC	0x6	;; DW_LNS_negate_stmt
000006b5  000502              5840  		DC	0x0,0x5,0x2	;; DW_LNE_set_address
000006b8  00000000          + 5841  		DD	.DWLopt214	;;     operand
000006bc  12                  5842  		DC	0x12	;; SPECIAL 18
000006bd  000502              5843  		DC	0x0,0x5,0x2	;; DW_LNE_set_address
000006c0  00000000          + 5844  		DD	.DWLopt215	;;     operand
000006c4  17                  5845  		DC	0x17	;; SPECIAL 23
000006c5  000502              5846  		DC	0x0,0x5,0x2	;; DW_LNE_set_address
000006c8  00000000          + 5847  		DD	.DWLopt216	;;     operand
000006cc  12                  5848  		DC	0x12	;; SPECIAL 18
000006cd  000502              5849  		DC	0x0,0x5,0x2	;; DW_LNE_set_address
000006d0  00000000          + 5850  		DD	.DWLopt217	;;     operand
000006d4  12                  5851  		DC	0x12	;; SPECIAL 18
000006d5  000502              5852  		DC	0x0,0x5,0x2	;; DW_LNE_set_address
000006d8  00000000          + 5853  		DD	.DWLopt218	;;     operand
000006dc  1D                  5854  		DC	0x1d	;; SPECIAL 29
000006dd  000502              5855  		DC	0x0,0x5,0x2	;; DW_LNE_set_address
000006e0  00000000          + 5856  		DD	.DWLopt219	;;     operand
000006e4  0D                  5857  		DC	0xd	;; SPECIAL 13
000006e5  000502              5858  		DC	0x0,0x5,0x2	;; DW_LNE_set_address
000006e8  00000000          + 5859  		DD	.DWLopt220	;;     operand
000006ec  11                  5860  		DC	0x11	;; SPECIAL 17
000006ed  000502              5861  		DC	0x0,0x5,0x2	;; DW_LNE_set_address
000006f0  00000000          + 5862  		DD	.DWLopt221	;;     operand
000006f4  14                  5863  		DC	0x14	;; SPECIAL 20
000006f5  000502              5864  		DC	0x0,0x5,0x2	;; DW_LNE_set_address
000006f8  00000000          + 5865  		DD	.DWLopt222	;;     operand
000006fc  11                  5866  		DC	0x11	;; SPECIAL 17
000006fd  06                  5867  		DC	0x6	;; DW_LNS_negate_stmt
000006fe  000502              5868  		DC	0x0,0x5,0x2	;; DW_LNE_set_address
00000701  00000000          + 5869  		DD	.DWLopt223	;;     operand
00000705  03                  5870  		DC	0x3	;; DW_LNS_advance_line
00000706  DD79                5871  		DC	0xdd,0x79	;; -803
00000708  01                  5872  		DC	0x1	;; DW_LNS_copy
00000709  06                  5873  		DC	0x6	;; DW_LNS_negate_stmt
0000070a  000502              5874  		DC	0x0,0x5,0x2	;; DW_LNE_set_address
0000070d  00000000          + 5875  		DD	.DWLopt224	;;     operand
00000711  03                  5876  		DC	0x3	;; DW_LNS_advance_line
00000712  AB06                5877  		DC	0xab,0x6	;; 811
00000714  01                  5878  		DC	0x1	;; DW_LNS_copy
00000715  000502              5879  		DC	0x0,0x5,0x2	;; DW_LNE_set_address
00000718  00000000          + 5880  		DD	.DWLopt225	;;     operand
0000071c  15                  5881  		DC	0x15	;; SPECIAL 21
0000071d  000502              5882  		DC	0x0,0x5,0x2	;; DW_LNE_set_address
00000720  00000000          + 5883  		DD	.DWLopt226	;;     operand
00000724  12                  5884  		DC	0x12	;; SPECIAL 18
00000725  000502              5885  		DC	0x0,0x5,0x2	;; DW_LNE_set_address
00000728  00000000          + 5886  		DD	.DWLopt227	;;     operand
0000072c  14                  5887  		DC	0x14	;; SPECIAL 20
0000072d  000502              5888  		DC	0x0,0x5,0x2	;; DW_LNE_set_address
00000730  00000000          + 5889  		DD	.DWLopt228	;;     operand
00000734  16                  5890  		DC	0x16	;; SPECIAL 22
00000735  06                  5891  		DC	0x6	;; DW_LNS_negate_stmt
00000736  000502              5892  		DC	0x0,0x5,0x2	;; DW_LNE_set_address
00000739  00000000          + 5893  		DD	.DWLopt229	;;     operand
0000073d  0A                  5894  		DC	0xa	;; SPECIAL 10
0000073e  06                  5895  		DC	0x6	;; DW_LNS_negate_stmt
0000073f  000502              5896  		DC	0x0,0x5,0x2	;; DW_LNE_set_address
00000742  00000000          + 5897  		DD	.DWLopt230	;;     operand
00000746  12                  5898  		DC	0x12	;; SPECIAL 18
00000747  000502              5899  		DC	0x0,0x5,0x2	;; DW_LNE_set_address
0000074a  00000000          + 5900  		DD	.DWLopt231	;;     operand
0000074e  17                  5901  		DC	0x17	;; SPECIAL 23
0000074f  000502              5902  		DC	0x0,0x5,0x2	;; DW_LNE_set_address
00000752  00000000          + 5903  		DD	.DWLopt232	;;     operand
00000756  17                  5904  		DC	0x17	;; SPECIAL 23
00000757  000502              5905  		DC	0x0,0x5,0x2	;; DW_LNE_set_address
0000075a  00000000          + 5906  		DD	.DWLopt233	;;     operand
0000075e  03                  5907  		DC	0x3	;; DW_LNS_advance_line
0000075f  50                  5908  		DC	0x50	;; -48
00000760  01                  5909  		DC	0x1	;; DW_LNS_copy
00000761  06                  5910  		DC	0x6	;; DW_LNS_negate_stmt
00000762  000502              5911  		DC	0x0,0x5,0x2	;; DW_LNE_set_address
00000765  00000000          + 5912  		DD	.DWLopt234	;;     operand
00000769  53                  5913  		DC	0x53	;; SPECIAL 83
0000076a  000502              5914  		DC	0x0,0x5,0x2	;; DW_LNE_set_address
0000076d  00000000          + 5915  		DD	.LDW31	;;     operand
00000771  000101              5916  		DC	0x0,0x1,0x1	;; DW_LNE_end_sequence
00000774  000502              5917  		DC	0x0,0x5,0x2	;; DW_LNE_set_address
00000777  00000000          + 5918  		DD	.DWLopt244	;;     operand
0000077b  03                  5919  		DC	0x3	;; DW_LNS_advance_line
0000077c  E006                5920  		DC	0xe0,0x6	;; 864
0000077e  01                  5921  		DC	0x1	;; DW_LNS_copy
0000077f  000502              5922  		DC	0x0,0x5,0x2	;; DW_LNE_set_address
00000782  00000000          + 5923  		DD	.DWLopt245	;;     operand
00000786  11                  5924  		DC	0x11	;; SPECIAL 17
00000787  06                  5925  		DC	0x6	;; DW_LNS_negate_stmt
00000788  000502              5926  		DC	0x0,0x5,0x2	;; DW_LNE_set_address
0000078b  00000000          + 5927  		DD	.DWLopt246	;;     operand
0000078f  0F                  5928  		DC	0xf	;; SPECIAL 15
00000790  000502              5929  		DC	0x0,0x5,0x2	;; DW_LNE_set_address
00000793  00000000          + 5930  		DD	.DWLopt247	;;     operand
00000797  11                  5931  		DC	0x11	;; SPECIAL 17
00000798  06                  5932  		DC	0x6	;; DW_LNS_negate_stmt
00000799  000502              5933  		DC	0x0,0x5,0x2	;; DW_LNE_set_address
0000079c  00000000          + 5934  		DD	.DWLopt248	;;     operand
000007a0  4D                  5935  		DC	0x4d	;; SPECIAL 77
000007a1  000502              5936  		DC	0x0,0x5,0x2	;; DW_LNE_set_address
000007a4  00000000          + 5937  		DD	.DWLopt249	;;     operand
000007a8  03                  5938  		DC	0x3	;; DW_LNS_advance_line
000007a9  45                  5939  		DC	0x45	;; -59
000007aa  01                  5940  		DC	0x1	;; DW_LNS_copy
000007ab  000502              5941  		DC	0x0,0x5,0x2	;; DW_LNE_set_address
000007ae  00000000          + 5942  		DD	.DWLopt250	;;     operand
000007b2  14                  5943  		DC	0x14	;; SPECIAL 20
000007b3  000502              5944  		DC	0x0,0x5,0x2	;; DW_LNE_set_address
000007b6  00000000          + 5945  		DD	.DWLopt251	;;     operand
000007ba  12                  5946  		DC	0x12	;; SPECIAL 18
000007bb  000502              5947  		DC	0x0,0x5,0x2	;; DW_LNE_set_address
000007be  00000000          + 5948  		DD	.DWLopt252	;;     operand
000007c2  11                  5949  		DC	0x11	;; SPECIAL 17
000007c3  000502              5950  		DC	0x0,0x5,0x2	;; DW_LNE_set_address
000007c6  00000000          + 5951  		DD	.DWLopt253	;;     operand
000007ca  14                  5952  		DC	0x14	;; SPECIAL 20
000007cb  000502              5953  		DC	0x0,0x5,0x2	;; DW_LNE_set_address
000007ce  00000000          + 5954  		DD	.DWLopt254	;;     operand
000007d2  11                  5955  		DC	0x11	;; SPECIAL 17
000007d3  000502              5956  		DC	0x0,0x5,0x2	;; DW_LNE_set_address
000007d6  00000000          + 5957  		DD	.DWLopt255	;;     operand
000007da  14                  5958  		DC	0x14	;; SPECIAL 20
000007db  000502              5959  		DC	0x0,0x5,0x2	;; DW_LNE_set_address
000007de  00000000          + 5960  		DD	.DWLopt256	;;     operand
000007e2  11                  5961  		DC	0x11	;; SPECIAL 17
000007e3  06                  5962  		DC	0x6	;; DW_LNS_negate_stmt
000007e4  000502              5963  		DC	0x0,0x5,0x2	;; DW_LNE_set_address
000007e7  00000000          + 5964  		DD	.DWLopt257	;;     operand
000007eb  0F                  5965  		DC	0xf	;; SPECIAL 15
000007ec  000502              5966  		DC	0x0,0x5,0x2	;; DW_LNE_set_address
000007ef  00000000          + 5967  		DD	.DWLopt258	;;     operand
000007f3  11                  5968  		DC	0x11	;; SPECIAL 17
000007f4  06                  5969  		DC	0x6	;; DW_LNS_negate_stmt
000007f5  000502              5970  		DC	0x0,0x5,0x2	;; DW_LNE_set_address
000007f8  00000000          + 5971  		DD	.DWLopt259	;;     operand
000007fc  11                  5972  		DC	0x11	;; SPECIAL 17
000007fd  000502              5973  		DC	0x0,0x5,0x2	;; DW_LNE_set_address
00000800  00000000          + 5974  		DD	.DWLopt260	;;     operand
00000804  12                  5975  		DC	0x12	;; SPECIAL 18
00000805  000502              5976  		DC	0x0,0x5,0x2	;; DW_LNE_set_address
00000808  00000000          + 5977  		DD	.DWLopt261	;;     operand
0000080c  12                  5978  		DC	0x12	;; SPECIAL 18
0000080d  000502              5979  		DC	0x0,0x5,0x2	;; DW_LNE_set_address
00000810  00000000          + 5980  		DD	.DWLopt262	;;     operand
00000814  12                  5981  		DC	0x12	;; SPECIAL 18
00000815  06                  5982  		DC	0x6	;; DW_LNS_negate_stmt
00000816  000502              5983  		DC	0x0,0x5,0x2	;; DW_LNE_set_address
00000819  00000000          + 5984  		DD	.DWLopt263	;;     operand
0000081d  10                  5985  		DC	0x10	;; SPECIAL 16
0000081e  000502              5986  		DC	0x0,0x5,0x2	;; DW_LNE_set_address
00000821  00000000          + 5987  		DD	.DWLopt264	;;     operand
00000825  0C                  5988  		DC	0xc	;; SPECIAL 12
00000826  06                  5989  		DC	0x6	;; DW_LNS_negate_stmt
00000827  000502              5990  		DC	0x0,0x5,0x2	;; DW_LNE_set_address
0000082a  00000000          + 5991  		DD	.DWLopt265	;;     operand
0000082e  18                  5992  		DC	0x18	;; SPECIAL 24
0000082f  000502              5993  		DC	0x0,0x5,0x2	;; DW_LNE_set_address
00000832  00000000          + 5994  		DD	.DWLopt266	;;     operand
00000836  13                  5995  		DC	0x13	;; SPECIAL 19
00000837  06                  5996  		DC	0x6	;; DW_LNS_negate_stmt
00000838  000502              5997  		DC	0x0,0x5,0x2	;; DW_LNE_set_address
0000083b  00000000          + 5998  		DD	.DWLopt267	;;     operand
0000083f  0D                  5999  		DC	0xd	;; SPECIAL 13
00000840  06                  6000  		DC	0x6	;; DW_LNS_negate_stmt
00000841  000502              6001  		DC	0x0,0x5,0x2	;; DW_LNE_set_address
00000844  00000000          + 6002  		DD	.DWLopt268	;;     operand
00000848  18                  6003  		DC	0x18	;; SPECIAL 24
00000849  000502              6004  		DC	0x0,0x5,0x2	;; DW_LNE_set_address
0000084c  00000000          + 6005  		DD	.DWLopt269	;;     operand
00000850  14                  6006  		DC	0x14	;; SPECIAL 20
00000851  000502              6007  		DC	0x0,0x5,0x2	;; DW_LNE_set_address
00000854  00000000          + 6008  		DD	.DWLopt270	;;     operand
00000858  11                  6009  		DC	0x11	;; SPECIAL 17
00000859  000502              6010  		DC	0x0,0x5,0x2	;; DW_LNE_set_address
0000085c  00000000          + 6011  		DD	.DWLopt271	;;     operand
00000860  12                  6012  		DC	0x12	;; SPECIAL 18
00000861  000502              6013  		DC	0x0,0x5,0x2	;; DW_LNE_set_address
00000864  00000000          + 6014  		DD	.DWLopt272	;;     operand
00000868  12                  6015  		DC	0x12	;; SPECIAL 18
00000869  000502              6016  		DC	0x0,0x5,0x2	;; DW_LNE_set_address
0000086c  00000000          + 6017  		DD	.DWLopt273	;;     operand
00000870  12                  6018  		DC	0x12	;; SPECIAL 18
00000871  000502              6019  		DC	0x0,0x5,0x2	;; DW_LNE_set_address
00000874  00000000          + 6020  		DD	.DWLopt274	;;     operand
00000878  12                  6021  		DC	0x12	;; SPECIAL 18
00000879  000502              6022  		DC	0x0,0x5,0x2	;; DW_LNE_set_address
0000087c  00000000          + 6023  		DD	.DWLopt275	;;     operand
00000880  15                  6024  		DC	0x15	;; SPECIAL 21
00000881  000502              6025  		DC	0x0,0x5,0x2	;; DW_LNE_set_address
00000884  00000000          + 6026  		DD	.DWLopt276	;;     operand
00000888  13                  6027  		DC	0x13	;; SPECIAL 19
00000889  06                  6028  		DC	0x6	;; DW_LNS_negate_stmt
0000088a  000502              6029  		DC	0x0,0x5,0x2	;; DW_LNE_set_address
0000088d  00000000          + 6030  		DD	.DWLopt277	;;     operand
00000891  0D                  6031  		DC	0xd	;; SPECIAL 13
00000892  000502              6032  		DC	0x0,0x5,0x2	;; DW_LNE_set_address
00000895  00000000          + 6033  		DD	.DWLopt278	;;     operand
00000899  13                  6034  		DC	0x13	;; SPECIAL 19
0000089a  000502              6035  		DC	0x0,0x5,0x2	;; DW_LNE_set_address
0000089d  00000000          + 6036  		DD	.DWLopt279	;;     operand
000008a1  12                  6037  		DC	0x12	;; SPECIAL 18
000008a2  000502              6038  		DC	0x0,0x5,0x2	;; DW_LNE_set_address
000008a5  00000000          + 6039  		DD	.LDW32	;;     operand
000008a9  000101              6040  		DC	0x0,0x1,0x1	;; DW_LNE_end_sequence
000008ac  000502              6041  		DC	0x0,0x5,0x2	;; DW_LNE_set_address
000008af  00000000          + 6042  		DD	.DWLopt287	;;     operand
000008b3  03                  6043  		DC	0x3	;; DW_LNS_advance_line
000008b4  A607                6044  		DC	0xa6,0x7	;; 934
000008b6  01                  6045  		DC	0x1	;; DW_LNS_copy
000008b7  000502              6046  		DC	0x0,0x5,0x2	;; DW_LNE_set_address
000008ba  00000000          + 6047  		DD	.DWLopt288	;;     operand
000008be  11                  6048  		DC	0x11	;; SPECIAL 17
000008bf  06                  6049  		DC	0x6	;; DW_LNS_negate_stmt
000008c0  000502              6050  		DC	0x0,0x5,0x2	;; DW_LNE_set_address
000008c3  00000000          + 6051  		DD	.DWLopt289	;;     operand
000008c7  0F                  6052  		DC	0xf	;; SPECIAL 15
000008c8  000502              6053  		DC	0x0,0x5,0x2	;; DW_LNE_set_address
000008cb  00000000          + 6054  		DD	.DWLopt290	;;     operand
000008cf  11                  6055  		DC	0x11	;; SPECIAL 17
000008d0  06                  6056  		DC	0x6	;; DW_LNS_negate_stmt
000008d1  000502              6057  		DC	0x0,0x5,0x2	;; DW_LNE_set_address
000008d4  00000000          + 6058  		DD	.DWLopt291	;;     operand
000008d8  11                  6059  		DC	0x11	;; SPECIAL 17
000008d9  06                  6060  		DC	0x6	;; DW_LNS_negate_stmt
000008da  000502              6061  		DC	0x0,0x5,0x2	;; DW_LNE_set_address
000008dd  00000000          + 6062  		DD	.DWLopt292	;;     operand
000008e1  0F                  6063  		DC	0xf	;; SPECIAL 15
000008e2  000502              6064  		DC	0x0,0x5,0x2	;; DW_LNE_set_address
000008e5  00000000          + 6065  		DD	.DWLopt293	;;     operand
000008e9  11                  6066  		DC	0x11	;; SPECIAL 17
000008ea  06                  6067  		DC	0x6	;; DW_LNS_negate_stmt
000008eb  000502              6068  		DC	0x0,0x5,0x2	;; DW_LNE_set_address
000008ee  00000000          + 6069  		DD	.DWLopt294	;;     operand
000008f2  11                  6070  		DC	0x11	;; SPECIAL 17
000008f3  000502              6071  		DC	0x0,0x5,0x2	;; DW_LNE_set_address
000008f6  00000000          + 6072  		DD	.DWLopt295	;;     operand
000008fa  11                  6073  		DC	0x11	;; SPECIAL 17
000008fb  000502              6074  		DC	0x0,0x5,0x2	;; DW_LNE_set_address
000008fe  00000000          + 6075  		DD	.DWLopt296	;;     operand
00000902  12                  6076  		DC	0x12	;; SPECIAL 18
00000903  000502              6077  		DC	0x0,0x5,0x2	;; DW_LNE_set_address
00000906  00000000          + 6078  		DD	.DWLopt297	;;     operand
0000090a  10                  6079  		DC	0x10	;; SPECIAL 16
0000090b  000502              6080  		DC	0x0,0x5,0x2	;; DW_LNE_set_address
0000090e  00000000          + 6081  		DD	.DWLopt298	;;     operand
00000912  12                  6082  		DC	0x12	;; SPECIAL 18
00000913  000502              6083  		DC	0x0,0x5,0x2	;; DW_LNE_set_address
00000916  00000000          + 6084  		DD	.DWLopt299	;;     operand
0000091a  14                  6085  		DC	0x14	;; SPECIAL 20
0000091b  000502              6086  		DC	0x0,0x5,0x2	;; DW_LNE_set_address
0000091e  00000000          + 6087  		DD	.DWLopt300	;;     operand
00000922  14                  6088  		DC	0x14	;; SPECIAL 20
00000923  06                  6089  		DC	0x6	;; DW_LNS_negate_stmt
00000924  000502              6090  		DC	0x0,0x5,0x2	;; DW_LNE_set_address
00000927  00000000          + 6091  		DD	.DWLopt301	;;     operand
0000092b  0C                  6092  		DC	0xc	;; SPECIAL 12
0000092c  000502              6093  		DC	0x0,0x5,0x2	;; DW_LNE_set_address
0000092f  00000000          + 6094  		DD	.DWLopt302	;;     operand
00000933  14                  6095  		DC	0x14	;; SPECIAL 20
00000934  06                  6096  		DC	0x6	;; DW_LNS_negate_stmt
00000935  000502              6097  		DC	0x0,0x5,0x2	;; DW_LNE_set_address
00000938  00000000          + 6098  		DD	.DWLopt303	;;     operand
0000093c  12                  6099  		DC	0x12	;; SPECIAL 18
0000093d  000502              6100  		DC	0x0,0x5,0x2	;; DW_LNE_set_address
00000940  00000000          + 6101  		DD	.DWLopt304	;;     operand
00000944  12                  6102  		DC	0x12	;; SPECIAL 18
00000945  000502              6103  		DC	0x0,0x5,0x2	;; DW_LNE_set_address
00000948  00000000          + 6104  		DD	.DWLopt305	;;     operand
0000094c  15                  6105  		DC	0x15	;; SPECIAL 21
0000094d  000502              6106  		DC	0x0,0x5,0x2	;; DW_LNE_set_address
00000950  00000000          + 6107  		DD	.DWLopt306	;;     operand
00000954  13                  6108  		DC	0x13	;; SPECIAL 19
00000955  000502              6109  		DC	0x0,0x5,0x2	;; DW_LNE_set_address
00000958  00000000          + 6110  		DD	.DWLopt307	;;     operand
0000095c  12                  6111  		DC	0x12	;; SPECIAL 18
0000095d  000502              6112  		DC	0x0,0x5,0x2	;; DW_LNE_set_address
00000960  00000000          + 6113  		DD	.DWLopt308	;;     operand
00000964  11                  6114  		DC	0x11	;; SPECIAL 17
00000965  06                  6115  		DC	0x6	;; DW_LNS_negate_stmt
00000966  000502              6116  		DC	0x0,0x5,0x2	;; DW_LNE_set_address
00000969  00000000          + 6117  		DD	.DWLopt309	;;     operand
0000096d  03                  6118  		DC	0x3	;; DW_LNS_advance_line
0000096e  BA78                6119  		DC	0xba,0x78	;; -966
00000970  01                  6120  		DC	0x1	;; DW_LNS_copy
00000971  06                  6121  		DC	0x6	;; DW_LNS_negate_stmt
00000972  000502              6122  		DC	0x0,0x5,0x2	;; DW_LNE_set_address
00000975  00000000          + 6123  		DD	.DWLopt310	;;     operand
00000979  03                  6124  		DC	0x3	;; DW_LNS_advance_line
0000097a  CC07                6125  		DC	0xcc,0x7	;; 972
0000097c  01                  6126  		DC	0x1	;; DW_LNS_copy
0000097d  000502              6127  		DC	0x0,0x5,0x2	;; DW_LNE_set_address
00000980  00000000          + 6128  		DD	.DWLopt311	;;     operand
00000984  12                  6129  		DC	0x12	;; SPECIAL 18
00000985  000502              6130  		DC	0x0,0x5,0x2	;; DW_LNE_set_address
00000988  00000000          + 6131  		DD	.DWLopt312	;;     operand
0000098c  11                  6132  		DC	0x11	;; SPECIAL 17
0000098d  06                  6133  		DC	0x6	;; DW_LNS_negate_stmt
0000098e  000502              6134  		DC	0x0,0x5,0x2	;; DW_LNE_set_address
00000991  00000000          + 6135  		DD	.DWLopt313	;;     operand
00000995  10                  6136  		DC	0x10	;; SPECIAL 16
00000996  000502              6137  		DC	0x0,0x5,0x2	;; DW_LNE_set_address
00000999  00000000          + 6138  		DD	.DWLopt314	;;     operand
0000099d  03                  6139  		DC	0x3	;; DW_LNS_advance_line
0000099e  6C                  6140  		DC	0x6c	;; -20
0000099f  01                  6141  		DC	0x1	;; DW_LNS_copy
000009a0  000502              6142  		DC	0x0,0x5,0x2	;; DW_LNE_set_address
000009a3  00000000          + 6143  		DD	.DWLopt315	;;     operand
000009a7  1B                  6144  		DC	0x1b	;; SPECIAL 27
000009a8  06                  6145  		DC	0x6	;; DW_LNS_negate_stmt
000009a9  000502              6146  		DC	0x0,0x5,0x2	;; DW_LNE_set_address
000009ac  00000000          + 6147  		DD	.DWLopt316	;;     operand
000009b0  1E                  6148  		DC	0x1e	;; SPECIAL 30
000009b1  000502              6149  		DC	0x0,0x5,0x2	;; DW_LNE_set_address
000009b4  00000000          + 6150  		DD	.DWLopt317	;;     operand
000009b8  13                  6151  		DC	0x13	;; SPECIAL 19
000009b9  000502              6152  		DC	0x0,0x5,0x2	;; DW_LNE_set_address
000009bc  00000000          + 6153  		DD	.DWLopt318	;;     operand
000009c0  12                  6154  		DC	0x12	;; SPECIAL 18
000009c1  000502              6155  		DC	0x0,0x5,0x2	;; DW_LNE_set_address
000009c4  00000000          + 6156  		DD	.DWLopt319	;;     operand
000009c8  13                  6157  		DC	0x13	;; SPECIAL 19
000009c9  000502              6158  		DC	0x0,0x5,0x2	;; DW_LNE_set_address
000009cc  00000000          + 6159  		DD	.DWLopt320	;;     operand
000009d0  12                  6160  		DC	0x12	;; SPECIAL 18
000009d1  000502              6161  		DC	0x0,0x5,0x2	;; DW_LNE_set_address
000009d4  00000000          + 6162  		DD	.DWLopt321	;;     operand
000009d8  13                  6163  		DC	0x13	;; SPECIAL 19
000009d9  000502              6164  		DC	0x0,0x5,0x2	;; DW_LNE_set_address
000009dc  00000000          + 6165  		DD	.DWLopt322	;;     operand
000009e0  12                  6166  		DC	0x12	;; SPECIAL 18
000009e1  06                  6167  		DC	0x6	;; DW_LNS_negate_stmt
000009e2  000502              6168  		DC	0x0,0x5,0x2	;; DW_LNE_set_address
000009e5  00000000          + 6169  		DD	.DWLopt323	;;     operand
000009e9  0E                  6170  		DC	0xe	;; SPECIAL 14
000009ea  06                  6171  		DC	0x6	;; DW_LNS_negate_stmt
000009eb  000502              6172  		DC	0x0,0x5,0x2	;; DW_LNE_set_address
000009ee  00000000          + 6173  		DD	.DWLopt324	;;     operand
000009f2  14                  6174  		DC	0x14	;; SPECIAL 20
000009f3  000502              6175  		DC	0x0,0x5,0x2	;; DW_LNE_set_address
000009f6  00000000          + 6176  		DD	.DWLopt325	;;     operand
000009fa  11                  6177  		DC	0x11	;; SPECIAL 17
000009fb  000502              6178  		DC	0x0,0x5,0x2	;; DW_LNE_set_address
000009fe  00000000          + 6179  		DD	.DWLopt326	;;     operand
00000a02  15                  6180  		DC	0x15	;; SPECIAL 21
00000a03  000502              6181  		DC	0x0,0x5,0x2	;; DW_LNE_set_address
00000a06  00000000          + 6182  		DD	.DWLopt327	;;     operand
00000a0a  12                  6183  		DC	0x12	;; SPECIAL 18
00000a0b  000502              6184  		DC	0x0,0x5,0x2	;; DW_LNE_set_address
00000a0e  00000000          + 6185  		DD	.DWLopt328	;;     operand
00000a12  13                  6186  		DC	0x13	;; SPECIAL 19
00000a13  000502              6187  		DC	0x0,0x5,0x2	;; DW_LNE_set_address
00000a16  00000000          + 6188  		DD	.DWLopt329	;;     operand
00000a1a  12                  6189  		DC	0x12	;; SPECIAL 18
00000a1b  06                  6190  		DC	0x6	;; DW_LNS_negate_stmt
00000a1c  000502              6191  		DC	0x0,0x5,0x2	;; DW_LNE_set_address
00000a1f  00000000          + 6192  		DD	.DWLopt330	;;     operand
00000a23  0E                  6193  		DC	0xe	;; SPECIAL 14
00000a24  06                  6194  		DC	0x6	;; DW_LNS_negate_stmt
00000a25  000502              6195  		DC	0x0,0x5,0x2	;; DW_LNE_set_address
00000a28  00000000          + 6196  		DD	.DWLopt331	;;     operand
00000a2c  14                  6197  		DC	0x14	;; SPECIAL 20
00000a2d  06                  6198  		DC	0x6	;; DW_LNS_negate_stmt
00000a2e  000502              6199  		DC	0x0,0x5,0x2	;; DW_LNE_set_address
00000a31  00000000          + 6200  		DD	.DWLopt332	;;     operand
00000a35  10                  6201  		DC	0x10	;; SPECIAL 16
00000a36  000502              6202  		DC	0x0,0x5,0x2	;; DW_LNE_set_address
00000a39  00000000          + 6203  		DD	.DWLopt333	;;     operand
00000a3d  03                  6204  		DC	0x3	;; DW_LNS_advance_line
00000a3e  71                  6205  		DC	0x71	;; -15
00000a3f  01                  6206  		DC	0x1	;; DW_LNS_copy
00000a40  06                  6207  		DC	0x6	;; DW_LNS_negate_stmt
00000a41  000502              6208  		DC	0x0,0x5,0x2	;; DW_LNE_set_address
00000a44  00000000          + 6209  		DD	.DWLopt334	;;     operand
00000a48  20                  6210  		DC	0x20	;; SPECIAL 32
00000a49  06                  6211  		DC	0x6	;; DW_LNS_negate_stmt
00000a4a  000502              6212  		DC	0x0,0x5,0x2	;; DW_LNE_set_address
00000a4d  00000000          + 6213  		DD	.DWLopt335	;;     operand
00000a51  03                  6214  		DC	0x3	;; DW_LNS_advance_line
00000a52  71                  6215  		DC	0x71	;; -15
00000a53  01                  6216  		DC	0x1	;; DW_LNS_copy
00000a54  06                  6217  		DC	0x6	;; DW_LNS_negate_stmt
00000a55  000502              6218  		DC	0x0,0x5,0x2	;; DW_LNE_set_address
00000a58  00000000          + 6219  		DD	.DWLopt336	;;     operand
00000a5c  27                  6220  		DC	0x27	;; SPECIAL 39
00000a5d  000502              6221  		DC	0x0,0x5,0x2	;; DW_LNE_set_address
00000a60  00000000          + 6222  		DD	.DWLopt337	;;     operand
00000a64  11                  6223  		DC	0x11	;; SPECIAL 17
00000a65  000502              6224  		DC	0x0,0x5,0x2	;; DW_LNE_set_address
00000a68  00000000          + 6225  		DD	.DWLopt338	;;     operand
00000a6c  19                  6226  		DC	0x19	;; SPECIAL 25
00000a6d  000502              6227  		DC	0x0,0x5,0x2	;; DW_LNE_set_address
00000a70  00000000          + 6228  		DD	.DWLopt339	;;     operand
00000a74  12                  6229  		DC	0x12	;; SPECIAL 18
00000a75  000502              6230  		DC	0x0,0x5,0x2	;; DW_LNE_set_address
00000a78  00000000          + 6231  		DD	.DWLopt340	;;     operand
00000a7c  15                  6232  		DC	0x15	;; SPECIAL 21
00000a7d  000502              6233  		DC	0x0,0x5,0x2	;; DW_LNE_set_address
00000a80  00000000          + 6234  		DD	.DWLopt341	;;     operand
00000a84  16                  6235  		DC	0x16	;; SPECIAL 22
00000a85  000502              6236  		DC	0x0,0x5,0x2	;; DW_LNE_set_address
00000a88  00000000          + 6237  		DD	.DWLopt342	;;     operand
00000a8c  11                  6238  		DC	0x11	;; SPECIAL 17
00000a8d  06                  6239  		DC	0x6	;; DW_LNS_negate_stmt
00000a8e  000502              6240  		DC	0x0,0x5,0x2	;; DW_LNE_set_address
00000a91  00000000          + 6241  		DD	.LDW33	;;     operand
00000a95  000101              6242  		DC	0x0,0x1,0x1	;; DW_LNE_end_sequence
00000a98  000502              6243  		DC	0x0,0x5,0x2	;; DW_LNE_set_address
00000a9b  00000000          + 6244  		DD	.DWLopt346	;;     operand
00000a9f  03                  6245  		DC	0x3	;; DW_LNS_advance_line
00000aa0  A008                6246  		DC	0xa0,0x8	;; 1056
00000aa2  01                  6247  		DC	0x1	;; DW_LNS_copy
00000aa3  000502              6248  		DC	0x0,0x5,0x2	;; DW_LNE_set_address
00000aa6  00000000          + 6249  		DD	.DWLopt347	;;     operand
00000aaa  11                  6250  		DC	0x11	;; SPECIAL 17
00000aab  06                  6251  		DC	0x6	;; DW_LNS_negate_stmt
00000aac  000502              6252  		DC	0x0,0x5,0x2	;; DW_LNE_set_address
00000aaf  00000000          + 6253  		DD	.DWLopt348	;;     operand
00000ab3  0F                  6254  		DC	0xf	;; SPECIAL 15
00000ab4  000502              6255  		DC	0x0,0x5,0x2	;; DW_LNE_set_address
00000ab7  00000000          + 6256  		DD	.DWLopt349	;;     operand
00000abb  11                  6257  		DC	0x11	;; SPECIAL 17
00000abc  000502              6258  		DC	0x0,0x5,0x2	;; DW_LNE_set_address
00000abf  00000000          + 6259  		DD	.DWLopt350	;;     operand
00000ac3  03                  6260  		DC	0x3	;; DW_LNS_advance_line
00000ac4  DE77                6261  		DC	0xde,0x77	;; -1058
00000ac6  01                  6262  		DC	0x1	;; DW_LNS_copy
00000ac7  06                  6263  		DC	0x6	;; DW_LNS_negate_stmt
00000ac8  000502              6264  		DC	0x0,0x5,0x2	;; DW_LNE_set_address
00000acb  00000000          + 6265  		DD	.DWLopt351	;;     operand
00000acf  03                  6266  		DC	0x3	;; DW_LNS_advance_line
00000ad0  A408                6267  		DC	0xa4,0x8	;; 1060
00000ad2  01                  6268  		DC	0x1	;; DW_LNS_copy
00000ad3  000502              6269  		DC	0x0,0x5,0x2	;; DW_LNE_set_address
00000ad6  00000000          + 6270  		DD	.DWLopt352	;;     operand
00000ada  0E                  6271  		DC	0xe	;; SPECIAL 14
00000adb  000502              6272  		DC	0x0,0x5,0x2	;; DW_LNE_set_address
00000ade  00000000          + 6273  		DD	.DWLopt353	;;     operand
00000ae2  15                  6274  		DC	0x15	;; SPECIAL 21
00000ae3  000502              6275  		DC	0x0,0x5,0x2	;; DW_LNE_set_address
00000ae6  00000000          + 6276  		DD	.DWLopt354	;;     operand
00000aea  11                  6277  		DC	0x11	;; SPECIAL 17
00000aeb  000502              6278  		DC	0x0,0x5,0x2	;; DW_LNE_set_address
00000aee  00000000          + 6279  		DD	.DWLopt355	;;     operand
00000af2  11                  6280  		DC	0x11	;; SPECIAL 17
00000af3  06                  6281  		DC	0x6	;; DW_LNS_negate_stmt
00000af4  000502              6282  		DC	0x0,0x5,0x2	;; DW_LNE_set_address
00000af7  00000000          + 6283  		DD	.DWLopt356	;;     operand
00000afb  03                  6284  		DC	0x3	;; DW_LNS_advance_line
00000afc  D777                6285  		DC	0xd7,0x77	;; -1065
00000afe  01                  6286  		DC	0x1	;; DW_LNS_copy
00000aff  06                  6287  		DC	0x6	;; DW_LNS_negate_stmt
00000b00  000502              6288  		DC	0x0,0x5,0x2	;; DW_LNE_set_address
00000b03  00000000          + 6289  		DD	.DWLopt357	;;     operand
00000b07  03                  6290  		DC	0x3	;; DW_LNS_advance_line
00000b08  AB08                6291  		DC	0xab,0x8	;; 1067
00000b0a  01                  6292  		DC	0x1	;; DW_LNS_copy
00000b0b  000502              6293  		DC	0x0,0x5,0x2	;; DW_LNE_set_address
00000b0e  00000000          + 6294  		DD	.DWLopt358	;;     operand
00000b12  0E                  6295  		DC	0xe	;; SPECIAL 14
00000b13  000502              6296  		DC	0x0,0x5,0x2	;; DW_LNE_set_address
00000b16  00000000          + 6297  		DD	.DWLopt359	;;     operand
00000b1a  15                  6298  		DC	0x15	;; SPECIAL 21
00000b1b  000502              6299  		DC	0x0,0x5,0x2	;; DW_LNE_set_address
00000b1e  00000000          + 6300  		DD	.DWLopt360	;;     operand
00000b22  12                  6301  		DC	0x12	;; SPECIAL 18
00000b23  000502              6302  		DC	0x0,0x5,0x2	;; DW_LNE_set_address
00000b26  00000000          + 6303  		DD	.DWLopt361	;;     operand
00000b2a  11                  6304  		DC	0x11	;; SPECIAL 17
00000b2b  000502              6305  		DC	0x0,0x5,0x2	;; DW_LNE_set_address
00000b2e  00000000          + 6306  		DD	.DWLopt362	;;     operand
00000b32  12                  6307  		DC	0x12	;; SPECIAL 18
00000b33  000502              6308  		DC	0x0,0x5,0x2	;; DW_LNE_set_address
00000b36  00000000          + 6309  		DD	.DWLopt363	;;     operand
00000b3a  11                  6310  		DC	0x11	;; SPECIAL 17
00000b3b  000502              6311  		DC	0x0,0x5,0x2	;; DW_LNE_set_address
00000b3e  00000000          + 6312  		DD	.DWLopt364	;;     operand
00000b42  12                  6313  		DC	0x12	;; SPECIAL 18
00000b43  000502              6314  		DC	0x0,0x5,0x2	;; DW_LNE_set_address
00000b46  00000000          + 6315  		DD	.DWLopt365	;;     operand
00000b4a  11                  6316  		DC	0x11	;; SPECIAL 17
00000b4b  000502              6317  		DC	0x0,0x5,0x2	;; DW_LNE_set_address
00000b4e  00000000          + 6318  		DD	.DWLopt366	;;     operand
00000b52  14                  6319  		DC	0x14	;; SPECIAL 20
00000b53  000502              6320  		DC	0x0,0x5,0x2	;; DW_LNE_set_address
00000b56  00000000          + 6321  		DD	.DWLopt367	;;     operand
00000b5a  11                  6322  		DC	0x11	;; SPECIAL 17
00000b5b  000502              6323  		DC	0x0,0x5,0x2	;; DW_LNE_set_address
00000b5e  00000000          + 6324  		DD	.DWLopt368	;;     operand
00000b62  12                  6325  		DC	0x12	;; SPECIAL 18
00000b63  000502              6326  		DC	0x0,0x5,0x2	;; DW_LNE_set_address
00000b66  00000000          + 6327  		DD	.DWLopt369	;;     operand
00000b6a  11                  6328  		DC	0x11	;; SPECIAL 17
00000b6b  000502              6329  		DC	0x0,0x5,0x2	;; DW_LNE_set_address
00000b6e  00000000          + 6330  		DD	.DWLopt370	;;     operand
00000b72  12                  6331  		DC	0x12	;; SPECIAL 18
00000b73  000502              6332  		DC	0x0,0x5,0x2	;; DW_LNE_set_address
00000b76  00000000          + 6333  		DD	.DWLopt371	;;     operand
00000b7a  11                  6334  		DC	0x11	;; SPECIAL 17
00000b7b  06                  6335  		DC	0x6	;; DW_LNS_negate_stmt
00000b7c  000502              6336  		DC	0x0,0x5,0x2	;; DW_LNE_set_address
00000b7f  00000000          + 6337  		DD	.DWLopt372	;;     operand
00000b83  10                  6338  		DC	0x10	;; SPECIAL 16
00000b84  000502              6339  		DC	0x0,0x5,0x2	;; DW_LNE_set_address
00000b87  00000000          + 6340  		DD	.DWLopt373	;;     operand
00000b8b  03                  6341  		DC	0x3	;; DW_LNS_advance_line
00000b8c  75                  6342  		DC	0x75	;; -11
00000b8d  01                  6343  		DC	0x1	;; DW_LNS_copy
00000b8e  06                  6344  		DC	0x6	;; DW_LNS_negate_stmt
00000b8f  000502              6345  		DC	0x0,0x5,0x2	;; DW_LNE_set_address
00000b92  00000000          + 6346  		DD	.DWLopt374	;;     operand
00000b96  1D                  6347  		DC	0x1d	;; SPECIAL 29
00000b97  06                  6348  		DC	0x6	;; DW_LNS_negate_stmt
00000b98  000502              6349  		DC	0x0,0x5,0x2	;; DW_LNE_set_address
00000b9b  00000000          + 6350  		DD	.LDW34	;;     operand
00000b9f  000101              6351  		DC	0x0,0x1,0x1	;; DW_LNE_end_sequence
00000ba2  06                  6352  		DC	0x6	;; DW_LNS_negate_stmt
00000ba3  000502              6353  		DC	0x0,0x5,0x2	;; DW_LNE_set_address
00000ba6  00000000          + 6354  		DD	.DWLopt392	;;     operand
00000baa  0F                  6355  		DC	0xf	;; SPECIAL 15
00000bab  06                  6356  		DC	0x6	;; DW_LNS_negate_stmt
00000bac  000502              6357  		DC	0x0,0x5,0x2	;; DW_LNE_set_address
00000baf  00000000          + 6358  		DD	.DWLopt393	;;     operand
00000bb3  03                  6359  		DC	0x3	;; DW_LNS_advance_line
00000bb4  CA08                6360  		DC	0xca,0x8	;; 1098
00000bb6  01                  6361  		DC	0x1	;; DW_LNS_copy
00000bb7  06                  6362  		DC	0x6	;; DW_LNS_negate_stmt
00000bb8  000502              6363  		DC	0x0,0x5,0x2	;; DW_LNE_set_address
00000bbb  00000000          + 6364  		DD	.DWLopt394	;;     operand
00000bbf  03                  6365  		DC	0x3	;; DW_LNS_advance_line
00000bc0  B677                6366  		DC	0xb6,0x77	;; -1098
00000bc2  01                  6367  		DC	0x1	;; DW_LNS_copy
00000bc3  06                  6368  		DC	0x6	;; DW_LNS_negate_stmt
00000bc4  000502              6369  		DC	0x0,0x5,0x2	;; DW_LNE_set_address
00000bc7  00000000          + 6370  		DD	.DWLopt395	;;     operand
00000bcb  03                  6371  		DC	0x3	;; DW_LNS_advance_line
00000bcc  CC08                6372  		DC	0xcc,0x8	;; 1100
00000bce  01                  6373  		DC	0x1	;; DW_LNS_copy
00000bcf  000502              6374  		DC	0x0,0x5,0x2	;; DW_LNE_set_address
00000bd2  00000000          + 6375  		DD	.DWLopt396	;;     operand
00000bd6  0E                  6376  		DC	0xe	;; SPECIAL 14
00000bd7  000502              6377  		DC	0x0,0x5,0x2	;; DW_LNE_set_address
00000bda  00000000          + 6378  		DD	.DWLopt397	;;     operand
00000bde  15                  6379  		DC	0x15	;; SPECIAL 21
00000bdf  000502              6380  		DC	0x0,0x5,0x2	;; DW_LNE_set_address
00000be2  00000000          + 6381  		DD	.DWLopt398	;;     operand
00000be6  12                  6382  		DC	0x12	;; SPECIAL 18
00000be7  000502              6383  		DC	0x0,0x5,0x2	;; DW_LNE_set_address
00000bea  00000000          + 6384  		DD	.DWLopt399	;;     operand
00000bee  12                  6385  		DC	0x12	;; SPECIAL 18
00000bef  000502              6386  		DC	0x0,0x5,0x2	;; DW_LNE_set_address
00000bf2  00000000          + 6387  		DD	.DWLopt400	;;     operand
00000bf6  12                  6388  		DC	0x12	;; SPECIAL 18
00000bf7  000502              6389  		DC	0x0,0x5,0x2	;; DW_LNE_set_address
00000bfa  00000000          + 6390  		DD	.DWLopt401	;;     operand
00000bfe  11                  6391  		DC	0x11	;; SPECIAL 17
00000bff  000502              6392  		DC	0x0,0x5,0x2	;; DW_LNE_set_address
00000c02  00000000          + 6393  		DD	.DWLopt402	;;     operand
00000c06  12                  6394  		DC	0x12	;; SPECIAL 18
00000c07  000502              6395  		DC	0x0,0x5,0x2	;; DW_LNE_set_address
00000c0a  00000000          + 6396  		DD	.DWLopt403	;;     operand
00000c0e  12                  6397  		DC	0x12	;; SPECIAL 18
00000c0f  000502              6398  		DC	0x0,0x5,0x2	;; DW_LNE_set_address
00000c12  00000000          + 6399  		DD	.DWLopt404	;;     operand
00000c16  11                  6400  		DC	0x11	;; SPECIAL 17
00000c17  000502              6401  		DC	0x0,0x5,0x2	;; DW_LNE_set_address
00000c1a  00000000          + 6402  		DD	.DWLopt405	;;     operand
00000c1e  14                  6403  		DC	0x14	;; SPECIAL 20
00000c1f  000502              6404  		DC	0x0,0x5,0x2	;; DW_LNE_set_address
00000c22  00000000          + 6405  		DD	.DWLopt406	;;     operand
00000c26  11                  6406  		DC	0x11	;; SPECIAL 17
00000c27  06                  6407  		DC	0x6	;; DW_LNS_negate_stmt
00000c28  000502              6408  		DC	0x0,0x5,0x2	;; DW_LNE_set_address
00000c2b  00000000          + 6409  		DD	.DWLopt407	;;     operand
00000c2f  10                  6410  		DC	0x10	;; SPECIAL 16
00000c30  000502              6411  		DC	0x0,0x5,0x2	;; DW_LNE_set_address
00000c33  00000000          + 6412  		DD	.DWLopt408	;;     operand
00000c37  0B                  6413  		DC	0xb	;; SPECIAL 11
00000c38  06                  6414  		DC	0x6	;; DW_LNS_negate_stmt
00000c39  000502              6415  		DC	0x0,0x5,0x2	;; DW_LNE_set_address
00000c3c  00000000          + 6416  		DD	.DWLopt409	;;     operand
00000c40  18                  6417  		DC	0x18	;; SPECIAL 24
00000c41  000502              6418  		DC	0x0,0x5,0x2	;; DW_LNE_set_address
00000c44  00000000          + 6419  		DD	.DWLopt410	;;     operand
00000c48  11                  6420  		DC	0x11	;; SPECIAL 17
00000c49  06                  6421  		DC	0x6	;; DW_LNS_negate_stmt
00000c4a  000502              6422  		DC	0x0,0x5,0x2	;; DW_LNE_set_address
00000c4d  00000000          + 6423  		DD	.LDW35	;;     operand
00000c51  000101              6424  		DC	0x0,0x1,0x1	;; DW_LNE_end_sequence
00000c54  000502              6425  		DC	0x0,0x5,0x2	;; DW_LNE_set_address
00000c57  00000000          + 6426  		DD	.DWLopt430	;;     operand
00000c5b  03                  6427  		DC	0x3	;; DW_LNS_advance_line
00000c5c  E908                6428  		DC	0xe9,0x8	;; 1129
00000c5e  01                  6429  		DC	0x1	;; DW_LNS_copy
00000c5f  06                  6430  		DC	0x6	;; DW_LNS_negate_stmt
00000c60  000502              6431  		DC	0x0,0x5,0x2	;; DW_LNE_set_address
00000c63  00000000          + 6432  		DD	.DWLopt431	;;     operand
00000c67  03                  6433  		DC	0x3	;; DW_LNS_advance_line
00000c68  9677                6434  		DC	0x96,0x77	;; -1130
00000c6a  01                  6435  		DC	0x1	;; DW_LNS_copy
00000c6b  06                  6436  		DC	0x6	;; DW_LNS_negate_stmt
00000c6c  000502              6437  		DC	0x0,0x5,0x2	;; DW_LNE_set_address
00000c6f  00000000          + 6438  		DD	.DWLopt432	;;     operand
00000c73  03                  6439  		DC	0x3	;; DW_LNS_advance_line
00000c74  EC08                6440  		DC	0xec,0x8	;; 1132
00000c76  01                  6441  		DC	0x1	;; DW_LNS_copy
00000c77  000502              6442  		DC	0x0,0x5,0x2	;; DW_LNE_set_address
00000c7a  00000000          + 6443  		DD	.DWLopt433	;;     operand
00000c7e  0E                  6444  		DC	0xe	;; SPECIAL 14
00000c7f  000502              6445  		DC	0x0,0x5,0x2	;; DW_LNE_set_address
00000c82  00000000          + 6446  		DD	.DWLopt434	;;     operand
00000c86  15                  6447  		DC	0x15	;; SPECIAL 21
00000c87  000502              6448  		DC	0x0,0x5,0x2	;; DW_LNE_set_address
00000c8a  00000000          + 6449  		DD	.DWLopt435	;;     operand
00000c8e  12                  6450  		DC	0x12	;; SPECIAL 18
00000c8f  000502              6451  		DC	0x0,0x5,0x2	;; DW_LNE_set_address
00000c92  00000000          + 6452  		DD	.DWLopt436	;;     operand
00000c96  11                  6453  		DC	0x11	;; SPECIAL 17
00000c97  000502              6454  		DC	0x0,0x5,0x2	;; DW_LNE_set_address
00000c9a  00000000          + 6455  		DD	.DWLopt437	;;     operand
00000c9e  11                  6456  		DC	0x11	;; SPECIAL 17
00000c9f  06                  6457  		DC	0x6	;; DW_LNS_negate_stmt
00000ca0  000502              6458  		DC	0x0,0x5,0x2	;; DW_LNE_set_address
00000ca3  00000000          + 6459  		DD	.DWLopt438	;;     operand
00000ca7  0F                  6460  		DC	0xf	;; SPECIAL 15
00000ca8  000502              6461  		DC	0x0,0x5,0x2	;; DW_LNE_set_address
00000cab  00000000          + 6462  		DD	.DWLopt439	;;     operand
00000caf  11                  6463  		DC	0x11	;; SPECIAL 17
00000cb0  06                  6464  		DC	0x6	;; DW_LNS_negate_stmt
00000cb1  000502              6465  		DC	0x0,0x5,0x2	;; DW_LNE_set_address
00000cb4  00000000          + 6466  		DD	.DWLopt440	;;     operand
00000cb8  12                  6467  		DC	0x12	;; SPECIAL 18
00000cb9  000502              6468  		DC	0x0,0x5,0x2	;; DW_LNE_set_address
00000cbc  00000000          + 6469  		DD	.DWLopt441	;;     operand
00000cc0  12                  6470  		DC	0x12	;; SPECIAL 18
00000cc1  000502              6471  		DC	0x0,0x5,0x2	;; DW_LNE_set_address
00000cc4  00000000          + 6472  		DD	.DWLopt442	;;     operand
00000cc8  12                  6473  		DC	0x12	;; SPECIAL 18
00000cc9  06                  6474  		DC	0x6	;; DW_LNS_negate_stmt
00000cca  000502              6475  		DC	0x0,0x5,0x2	;; DW_LNE_set_address
00000ccd  00000000          + 6476  		DD	.DWLopt443	;;     operand
00000cd1  03                  6477  		DC	0x3	;; DW_LNS_advance_line
00000cd2  8777                6478  		DC	0x87,0x77	;; -1145
00000cd4  01                  6479  		DC	0x1	;; DW_LNS_copy
00000cd5  06                  6480  		DC	0x6	;; DW_LNS_negate_stmt
00000cd6  000502              6481  		DC	0x0,0x5,0x2	;; DW_LNE_set_address
00000cd9  00000000          + 6482  		DD	.DWLopt444	;;     operand
00000cdd  03                  6483  		DC	0x3	;; DW_LNS_advance_line
00000cde  FE08                6484  		DC	0xfe,0x8	;; 1150
00000ce0  01                  6485  		DC	0x1	;; DW_LNS_copy
00000ce1  000502              6486  		DC	0x0,0x5,0x2	;; DW_LNE_set_address
00000ce4  00000000          + 6487  		DD	.DWLopt445	;;     operand
00000ce8  12                  6488  		DC	0x12	;; SPECIAL 18
00000ce9  000502              6489  		DC	0x0,0x5,0x2	;; DW_LNE_set_address
00000cec  00000000          + 6490  		DD	.DWLopt446	;;     operand
00000cf0  12                  6491  		DC	0x12	;; SPECIAL 18
00000cf1  000502              6492  		DC	0x0,0x5,0x2	;; DW_LNE_set_address
00000cf4  00000000          + 6493  		DD	.DWLopt447	;;     operand
00000cf8  12                  6494  		DC	0x12	;; SPECIAL 18
00000cf9  000502              6495  		DC	0x0,0x5,0x2	;; DW_LNE_set_address
00000cfc  00000000          + 6496  		DD	.DWLopt448	;;     operand
00000d00  11                  6497  		DC	0x11	;; SPECIAL 17
00000d01  000502              6498  		DC	0x0,0x5,0x2	;; DW_LNE_set_address
00000d04  00000000          + 6499  		DD	.DWLopt449	;;     operand
00000d08  11                  6500  		DC	0x11	;; SPECIAL 17
00000d09  06                  6501  		DC	0x6	;; DW_LNS_negate_stmt
00000d0a  000502              6502  		DC	0x0,0x5,0x2	;; DW_LNE_set_address
00000d0d  00000000          + 6503  		DD	.DWLopt450	;;     operand
00000d11  0F                  6504  		DC	0xf	;; SPECIAL 15
00000d12  000502              6505  		DC	0x0,0x5,0x2	;; DW_LNE_set_address
00000d15  00000000          + 6506  		DD	.DWLopt451	;;     operand
00000d19  11                  6507  		DC	0x11	;; SPECIAL 17
00000d1a  06                  6508  		DC	0x6	;; DW_LNS_negate_stmt
00000d1b  000502              6509  		DC	0x0,0x5,0x2	;; DW_LNE_set_address
00000d1e  00000000          + 6510  		DD	.DWLopt452	;;     operand
00000d22  12                  6511  		DC	0x12	;; SPECIAL 18
00000d23  000502              6512  		DC	0x0,0x5,0x2	;; DW_LNE_set_address
00000d26  00000000          + 6513  		DD	.DWLopt453	;;     operand
00000d2a  12                  6514  		DC	0x12	;; SPECIAL 18
00000d2b  000502              6515  		DC	0x0,0x5,0x2	;; DW_LNE_set_address
00000d2e  00000000          + 6516  		DD	.DWLopt454	;;     operand
00000d32  12                  6517  		DC	0x12	;; SPECIAL 18
00000d33  06                  6518  		DC	0x6	;; DW_LNS_negate_stmt
00000d34  000502              6519  		DC	0x0,0x5,0x2	;; DW_LNE_set_address
00000d37  00000000          + 6520  		DD	.DWLopt455	;;     operand
00000d3b  03                  6521  		DC	0x3	;; DW_LNS_advance_line
00000d3c  F476                6522  		DC	0xf4,0x76	;; -1164
00000d3e  01                  6523  		DC	0x1	;; DW_LNS_copy
00000d3f  06                  6524  		DC	0x6	;; DW_LNS_negate_stmt
00000d40  000502              6525  		DC	0x0,0x5,0x2	;; DW_LNE_set_address
00000d43  00000000          + 6526  		DD	.DWLopt456	;;     operand
00000d47  03                  6527  		DC	0x3	;; DW_LNS_advance_line
00000d48  9109                6528  		DC	0x91,0x9	;; 1169
00000d4a  01                  6529  		DC	0x1	;; DW_LNS_copy
00000d4b  000502              6530  		DC	0x0,0x5,0x2	;; DW_LNE_set_address
00000d4e  00000000          + 6531  		DD	.DWLopt457	;;     operand
00000d52  12                  6532  		DC	0x12	;; SPECIAL 18
00000d53  000502              6533  		DC	0x0,0x5,0x2	;; DW_LNE_set_address
00000d56  00000000          + 6534  		DD	.DWLopt458	;;     operand
00000d5a  11                  6535  		DC	0x11	;; SPECIAL 17
00000d5b  000502              6536  		DC	0x0,0x5,0x2	;; DW_LNE_set_address
00000d5e  00000000          + 6537  		DD	.DWLopt459	;;     operand
00000d62  11                  6538  		DC	0x11	;; SPECIAL 17
00000d63  06                  6539  		DC	0x6	;; DW_LNS_negate_stmt
00000d64  000502              6540  		DC	0x0,0x5,0x2	;; DW_LNE_set_address
00000d67  00000000          + 6541  		DD	.DWLopt460	;;     operand
00000d6b  0F                  6542  		DC	0xf	;; SPECIAL 15
00000d6c  000502              6543  		DC	0x0,0x5,0x2	;; DW_LNE_set_address
00000d6f  00000000          + 6544  		DD	.DWLopt461	;;     operand
00000d73  11                  6545  		DC	0x11	;; SPECIAL 17
00000d74  06                  6546  		DC	0x6	;; DW_LNS_negate_stmt
00000d75  000502              6547  		DC	0x0,0x5,0x2	;; DW_LNE_set_address
00000d78  00000000          + 6548  		DD	.DWLopt462	;;     operand
00000d7c  11                  6549  		DC	0x11	;; SPECIAL 17
00000d7d  000502              6550  		DC	0x0,0x5,0x2	;; DW_LNE_set_address
00000d80  00000000          + 6551  		DD	.DWLopt463	;;     operand
00000d84  12                  6552  		DC	0x12	;; SPECIAL 18
00000d85  000502              6553  		DC	0x0,0x5,0x2	;; DW_LNE_set_address
00000d88  00000000          + 6554  		DD	.DWLopt464	;;     operand
00000d8c  12                  6555  		DC	0x12	;; SPECIAL 18
00000d8d  000502              6556  		DC	0x0,0x5,0x2	;; DW_LNE_set_address
00000d90  00000000          + 6557  		DD	.DWLopt465	;;     operand
00000d94  12                  6558  		DC	0x12	;; SPECIAL 18
00000d95  06                  6559  		DC	0x6	;; DW_LNS_negate_stmt
00000d96  000502              6560  		DC	0x0,0x5,0x2	;; DW_LNE_set_address
00000d99  00000000          + 6561  		DD	.DWLopt466	;;     operand
00000d9d  03                  6562  		DC	0x3	;; DW_LNS_advance_line
00000d9e  E476                6563  		DC	0xe4,0x76	;; -1180
00000da0  01                  6564  		DC	0x1	;; DW_LNS_copy
00000da1  06                  6565  		DC	0x6	;; DW_LNS_negate_stmt
00000da2  000502              6566  		DC	0x0,0x5,0x2	;; DW_LNE_set_address
00000da5  00000000          + 6567  		DD	.DWLopt467	;;     operand
00000da9  03                  6568  		DC	0x3	;; DW_LNS_advance_line
00000daa  A109                6569  		DC	0xa1,0x9	;; 1185
00000dac  01                  6570  		DC	0x1	;; DW_LNS_copy
00000dad  000502              6571  		DC	0x0,0x5,0x2	;; DW_LNE_set_address
00000db0  00000000          + 6572  		DD	.DWLopt468	;;     operand
00000db4  12                  6573  		DC	0x12	;; SPECIAL 18
00000db5  000502              6574  		DC	0x0,0x5,0x2	;; DW_LNE_set_address
00000db8  00000000          + 6575  		DD	.DWLopt469	;;     operand
00000dbc  12                  6576  		DC	0x12	;; SPECIAL 18
00000dbd  000502              6577  		DC	0x0,0x5,0x2	;; DW_LNE_set_address
00000dc0  00000000          + 6578  		DD	.DWLopt470	;;     operand
00000dc4  12                  6579  		DC	0x12	;; SPECIAL 18
00000dc5  000502              6580  		DC	0x0,0x5,0x2	;; DW_LNE_set_address
00000dc8  00000000          + 6581  		DD	.DWLopt471	;;     operand
00000dcc  11                  6582  		DC	0x11	;; SPECIAL 17
00000dcd  000502              6583  		DC	0x0,0x5,0x2	;; DW_LNE_set_address
00000dd0  00000000          + 6584  		DD	.DWLopt472	;;     operand
00000dd4  11                  6585  		DC	0x11	;; SPECIAL 17
00000dd5  06                  6586  		DC	0x6	;; DW_LNS_negate_stmt
00000dd6  000502              6587  		DC	0x0,0x5,0x2	;; DW_LNE_set_address
00000dd9  00000000          + 6588  		DD	.DWLopt473	;;     operand
00000ddd  0F                  6589  		DC	0xf	;; SPECIAL 15
00000dde  000502              6590  		DC	0x0,0x5,0x2	;; DW_LNE_set_address
00000de1  00000000          + 6591  		DD	.DWLopt474	;;     operand
00000de5  11                  6592  		DC	0x11	;; SPECIAL 17
00000de6  06                  6593  		DC	0x6	;; DW_LNS_negate_stmt
00000de7  000502              6594  		DC	0x0,0x5,0x2	;; DW_LNE_set_address
00000dea  00000000          + 6595  		DD	.DWLopt475	;;     operand
00000dee  11                  6596  		DC	0x11	;; SPECIAL 17
00000def  000502              6597  		DC	0x0,0x5,0x2	;; DW_LNE_set_address
00000df2  00000000          + 6598  		DD	.DWLopt476	;;     operand
00000df6  12                  6599  		DC	0x12	;; SPECIAL 18
00000df7  000502              6600  		DC	0x0,0x5,0x2	;; DW_LNE_set_address
00000dfa  00000000          + 6601  		DD	.DWLopt477	;;     operand
00000dfe  12                  6602  		DC	0x12	;; SPECIAL 18
00000dff  000502              6603  		DC	0x0,0x5,0x2	;; DW_LNE_set_address
00000e02  00000000          + 6604  		DD	.DWLopt478	;;     operand
00000e06  12                  6605  		DC	0x12	;; SPECIAL 18
00000e07  000502              6606  		DC	0x0,0x5,0x2	;; DW_LNE_set_address
00000e0a  00000000          + 6607  		DD	.DWLopt479	;;     operand
00000e0e  12                  6608  		DC	0x12	;; SPECIAL 18
00000e0f  000502              6609  		DC	0x0,0x5,0x2	;; DW_LNE_set_address
00000e12  00000000          + 6610  		DD	.DWLopt480	;;     operand
00000e16  03                  6611  		DC	0x3	;; DW_LNS_advance_line
00000e17  49                  6612  		DC	0x49	;; -55
00000e18  01                  6613  		DC	0x1	;; DW_LNS_copy
00000e19  000502              6614  		DC	0x0,0x5,0x2	;; DW_LNE_set_address
00000e1c  00000000          + 6615  		DD	.DWLopt481	;;     operand
00000e20  23                  6616  		DC	0x23	;; SPECIAL 35
00000e21  000502              6617  		DC	0x0,0x5,0x2	;; DW_LNE_set_address
00000e24  00000000          + 6618  		DD	.DWLopt482	;;     operand
00000e28  20                  6619  		DC	0x20	;; SPECIAL 32
00000e29  06                  6620  		DC	0x6	;; DW_LNS_negate_stmt
00000e2a  000502              6621  		DC	0x0,0x5,0x2	;; DW_LNE_set_address
00000e2d  00000000          + 6622  		DD	.DWLopt483	;;     operand
00000e31  24                  6623  		DC	0x24	;; SPECIAL 36
00000e32  000502              6624  		DC	0x0,0x5,0x2	;; DW_LNE_set_address
00000e35  00000000          + 6625  		DD	.DWLopt484	;;     operand
00000e39  03                  6626  		DC	0x3	;; DW_LNS_advance_line
00000e3a  49                  6627  		DC	0x49	;; -55
00000e3b  01                  6628  		DC	0x1	;; DW_LNS_copy
00000e3c  000502              6629  		DC	0x0,0x5,0x2	;; DW_LNE_set_address
00000e3f  00000000          + 6630  		DD	.DWLopt485	;;     operand
00000e43  15                  6631  		DC	0x15	;; SPECIAL 21
00000e44  000502              6632  		DC	0x0,0x5,0x2	;; DW_LNE_set_address
00000e47  00000000          + 6633  		DD	.DWLopt486	;;     operand
00000e4b  1E                  6634  		DC	0x1e	;; SPECIAL 30
00000e4c  000502              6635  		DC	0x0,0x5,0x2	;; DW_LNE_set_address
00000e4f  00000000          + 6636  		DD	.DWLopt487	;;     operand
00000e53  20                  6637  		DC	0x20	;; SPECIAL 32
00000e54  000502              6638  		DC	0x0,0x5,0x2	;; DW_LNE_set_address
00000e57  00000000          + 6639  		DD	.DWLopt488	;;     operand
00000e5b  15                  6640  		DC	0x15	;; SPECIAL 21
00000e5c  06                  6641  		DC	0x6	;; DW_LNS_negate_stmt
00000e5d  000502              6642  		DC	0x0,0x5,0x2	;; DW_LNE_set_address
00000e60  00000000          + 6643  		DD	.DWLopt489	;;     operand
00000e64  23                  6644  		DC	0x23	;; SPECIAL 35
00000e65  000502              6645  		DC	0x0,0x5,0x2	;; DW_LNE_set_address
00000e68  00000000          + 6646  		DD	.DWLopt490	;;     operand
00000e6c  11                  6647  		DC	0x11	;; SPECIAL 17
00000e6d  06                  6648  		DC	0x6	;; DW_LNS_negate_stmt
00000e6e  000502              6649  		DC	0x0,0x5,0x2	;; DW_LNE_set_address
00000e71  00000000          + 6650  		DD	.LDW36	;;     operand
00000e75  000101              6651  		DC	0x0,0x1,0x1	;; DW_LNE_end_sequence
00000e78  000502              6652  		DC	0x0,0x5,0x2	;; DW_LNE_set_address
00000e7b  00000000          + 6653  		DD	.DWLopt505	;;     operand
00000e7f  03                  6654  		DC	0x3	;; DW_LNS_advance_line
00000e80  BC09                6655  		DC	0xbc,0x9	;; 1212
00000e82  01                  6656  		DC	0x1	;; DW_LNS_copy
00000e83  06                  6657  		DC	0x6	;; DW_LNS_negate_stmt
00000e84  000502              6658  		DC	0x0,0x5,0x2	;; DW_LNE_set_address
00000e87  00000000          + 6659  		DD	.DWLopt506	;;     operand
00000e8b  03                  6660  		DC	0x3	;; DW_LNS_advance_line
00000e8c  C376                6661  		DC	0xc3,0x76	;; -1213
00000e8e  01                  6662  		DC	0x1	;; DW_LNS_copy
00000e8f  06                  6663  		DC	0x6	;; DW_LNS_negate_stmt
00000e90  000502              6664  		DC	0x0,0x5,0x2	;; DW_LNE_set_address
00000e93  00000000          + 6665  		DD	.DWLopt507	;;     operand
00000e97  03                  6666  		DC	0x3	;; DW_LNS_advance_line
00000e98  BF09                6667  		DC	0xbf,0x9	;; 1215
00000e9a  01                  6668  		DC	0x1	;; DW_LNS_copy
00000e9b  000502              6669  		DC	0x0,0x5,0x2	;; DW_LNE_set_address
00000e9e  00000000          + 6670  		DD	.DWLopt508	;;     operand
00000ea2  0E                  6671  		DC	0xe	;; SPECIAL 14
00000ea3  000502              6672  		DC	0x0,0x5,0x2	;; DW_LNE_set_address
00000ea6  00000000          + 6673  		DD	.DWLopt509	;;     operand
00000eaa  15                  6674  		DC	0x15	;; SPECIAL 21
00000eab  000502              6675  		DC	0x0,0x5,0x2	;; DW_LNE_set_address
00000eae  00000000          + 6676  		DD	.DWLopt510	;;     operand
00000eb2  18                  6677  		DC	0x18	;; SPECIAL 24
00000eb3  000502              6678  		DC	0x0,0x5,0x2	;; DW_LNE_set_address
00000eb6  00000000          + 6679  		DD	.DWLopt511	;;     operand
00000eba  17                  6680  		DC	0x17	;; SPECIAL 23
00000ebb  000502              6681  		DC	0x0,0x5,0x2	;; DW_LNE_set_address
00000ebe  00000000          + 6682  		DD	.DWLopt512	;;     operand
00000ec2  17                  6683  		DC	0x17	;; SPECIAL 23
00000ec3  000502              6684  		DC	0x0,0x5,0x2	;; DW_LNE_set_address
00000ec6  00000000          + 6685  		DD	.DWLopt513	;;     operand
00000eca  18                  6686  		DC	0x18	;; SPECIAL 24
00000ecb  000502              6687  		DC	0x0,0x5,0x2	;; DW_LNE_set_address
00000ece  00000000          + 6688  		DD	.DWLopt514	;;     operand
00000ed2  12                  6689  		DC	0x12	;; SPECIAL 18
00000ed3  000502              6690  		DC	0x0,0x5,0x2	;; DW_LNE_set_address
00000ed6  00000000          + 6691  		DD	.DWLopt515	;;     operand
00000eda  03                  6692  		DC	0x3	;; DW_LNS_advance_line
00000edb  6A                  6693  		DC	0x6a	;; -22
00000edc  01                  6694  		DC	0x1	;; DW_LNS_copy
00000edd  000502              6695  		DC	0x0,0x5,0x2	;; DW_LNE_set_address
00000ee0  00000000          + 6696  		DD	.DWLopt516	;;     operand
00000ee4  29                  6697  		DC	0x29	;; SPECIAL 41
00000ee5  000502              6698  		DC	0x0,0x5,0x2	;; DW_LNE_set_address
00000ee8  00000000          + 6699  		DD	.DWLopt517	;;     operand
00000eec  12                  6700  		DC	0x12	;; SPECIAL 18
00000eed  000502              6701  		DC	0x0,0x5,0x2	;; DW_LNE_set_address
00000ef0  00000000          + 6702  		DD	.DWLopt518	;;     operand
00000ef4  12                  6703  		DC	0x12	;; SPECIAL 18
00000ef5  000502              6704  		DC	0x0,0x5,0x2	;; DW_LNE_set_address
00000ef8  00000000          + 6705  		DD	.DWLopt519	;;     operand
00000efc  03                  6706  		DC	0x3	;; DW_LNS_advance_line
00000efd  6A                  6707  		DC	0x6a	;; -22
00000efe  01                  6708  		DC	0x1	;; DW_LNS_copy
00000eff  000502              6709  		DC	0x0,0x5,0x2	;; DW_LNE_set_address
00000f02  00000000          + 6710  		DD	.DWLopt520	;;     operand
00000f06  27                  6711  		DC	0x27	;; SPECIAL 39
00000f07  000502              6712  		DC	0x0,0x5,0x2	;; DW_LNE_set_address
00000f0a  00000000          + 6713  		DD	.DWLopt521	;;     operand
00000f0e  03                  6714  		DC	0x3	;; DW_LNS_advance_line
00000f0f  63                  6715  		DC	0x63	;; -29
00000f10  01                  6716  		DC	0x1	;; DW_LNS_copy
00000f11  000502              6717  		DC	0x0,0x5,0x2	;; DW_LNE_set_address
00000f14  00000000          + 6718  		DD	.DWLopt522	;;     operand
00000f18  17                  6719  		DC	0x17	;; SPECIAL 23
00000f19  000502              6720  		DC	0x0,0x5,0x2	;; DW_LNE_set_address
00000f1c  00000000          + 6721  		DD	.DWLopt523	;;     operand
00000f20  1F                  6722  		DC	0x1f	;; SPECIAL 31
00000f21  000502              6723  		DC	0x0,0x5,0x2	;; DW_LNE_set_address
00000f24  00000000          + 6724  		DD	.DWLopt524	;;     operand
00000f28  18                  6725  		DC	0x18	;; SPECIAL 24
00000f29  000502              6726  		DC	0x0,0x5,0x2	;; DW_LNE_set_address
00000f2c  00000000          + 6727  		DD	.DWLopt525	;;     operand
00000f30  03                  6728  		DC	0x3	;; DW_LNS_advance_line
00000f31  63                  6729  		DC	0x63	;; -29
00000f32  01                  6730  		DC	0x1	;; DW_LNS_copy
00000f33  000502              6731  		DC	0x0,0x5,0x2	;; DW_LNE_set_address
00000f36  00000000          + 6732  		DD	.DWLopt526	;;     operand
00000f3a  17                  6733  		DC	0x17	;; SPECIAL 23
00000f3b  000502              6734  		DC	0x0,0x5,0x2	;; DW_LNE_set_address
00000f3e  00000000          + 6735  		DD	.DWLopt527	;;     operand
00000f42  1F                  6736  		DC	0x1f	;; SPECIAL 31
00000f43  06                  6737  		DC	0x6	;; DW_LNS_negate_stmt
00000f44  000502              6738  		DC	0x0,0x5,0x2	;; DW_LNE_set_address
00000f47  00000000          + 6739  		DD	.DWLopt528	;;     operand
00000f4b  16                  6740  		DC	0x16	;; SPECIAL 22
00000f4c  000502              6741  		DC	0x0,0x5,0x2	;; DW_LNE_set_address
00000f4f  00000000          + 6742  		DD	.DWLopt529	;;     operand
00000f53  03                  6743  		DC	0x3	;; DW_LNS_advance_line
00000f54  63                  6744  		DC	0x63	;; -29
00000f55  01                  6745  		DC	0x1	;; DW_LNS_copy
00000f56  000502              6746  		DC	0x0,0x5,0x2	;; DW_LNE_set_address
00000f59  00000000          + 6747  		DD	.DWLopt530	;;     operand
00000f5d  17                  6748  		DC	0x17	;; SPECIAL 23
00000f5e  000502              6749  		DC	0x0,0x5,0x2	;; DW_LNE_set_address
00000f61  00000000          + 6750  		DD	.DWLopt531	;;     operand
00000f65  1F                  6751  		DC	0x1f	;; SPECIAL 31
00000f66  000502              6752  		DC	0x0,0x5,0x2	;; DW_LNE_set_address
00000f69  00000000          + 6753  		DD	.DWLopt532	;;     operand
00000f6d  18                  6754  		DC	0x18	;; SPECIAL 24
00000f6e  000502              6755  		DC	0x0,0x5,0x2	;; DW_LNE_set_address
00000f71  00000000          + 6756  		DD	.DWLopt533	;;     operand
00000f75  03                  6757  		DC	0x3	;; DW_LNS_advance_line
00000f76  63                  6758  		DC	0x63	;; -29
00000f77  01                  6759  		DC	0x1	;; DW_LNS_copy
00000f78  000502              6760  		DC	0x0,0x5,0x2	;; DW_LNE_set_address
00000f7b  00000000          + 6761  		DD	.DWLopt534	;;     operand
00000f7f  17                  6762  		DC	0x17	;; SPECIAL 23
00000f80  000502              6763  		DC	0x0,0x5,0x2	;; DW_LNE_set_address
00000f83  00000000          + 6764  		DD	.DWLopt535	;;     operand
00000f87  1F                  6765  		DC	0x1f	;; SPECIAL 31
00000f88  06                  6766  		DC	0x6	;; DW_LNS_negate_stmt
00000f89  000502              6767  		DC	0x0,0x5,0x2	;; DW_LNE_set_address
00000f8c  00000000          + 6768  		DD	.DWLopt536	;;     operand
00000f90  18                  6769  		DC	0x18	;; SPECIAL 24
00000f91  000502              6770  		DC	0x0,0x5,0x2	;; DW_LNE_set_address
00000f94  00000000          + 6771  		DD	.DWLopt537	;;     operand
00000f98  12                  6772  		DC	0x12	;; SPECIAL 18
00000f99  000502              6773  		DC	0x0,0x5,0x2	;; DW_LNE_set_address
00000f9c  00000000          + 6774  		DD	.DWLopt538	;;     operand
00000fa0  14                  6775  		DC	0x14	;; SPECIAL 20
00000fa1  000502              6776  		DC	0x0,0x5,0x2	;; DW_LNE_set_address
00000fa4  00000000          + 6777  		DD	.DWLopt539	;;     operand
00000fa8  03                  6778  		DC	0x3	;; DW_LNS_advance_line
00000fa9  54                  6779  		DC	0x54	;; -44
00000faa  01                  6780  		DC	0x1	;; DW_LNS_copy
00000fab  000502              6781  		DC	0x0,0x5,0x2	;; DW_LNE_set_address
00000fae  00000000          + 6782  		DD	.DWLopt540	;;     operand
00000fb2  26                  6783  		DC	0x26	;; SPECIAL 38
00000fb3  000502              6784  		DC	0x0,0x5,0x2	;; DW_LNE_set_address
00000fb6  00000000          + 6785  		DD	.DWLopt541	;;     operand
00000fba  27                  6786  		DC	0x27	;; SPECIAL 39
00000fbb  000502              6787  		DC	0x0,0x5,0x2	;; DW_LNE_set_address
00000fbe  00000000          + 6788  		DD	.DWLopt542	;;     operand
00000fc2  03                  6789  		DC	0x3	;; DW_LNS_advance_line
00000fc3  54                  6790  		DC	0x54	;; -44
00000fc4  01                  6791  		DC	0x1	;; DW_LNS_copy
00000fc5  000502              6792  		DC	0x0,0x5,0x2	;; DW_LNE_set_address
00000fc8  00000000          + 6793  		DD	.DWLopt543	;;     operand
00000fcc  26                  6794  		DC	0x26	;; SPECIAL 38
00000fcd  000502              6795  		DC	0x0,0x5,0x2	;; DW_LNE_set_address
00000fd0  00000000          + 6796  		DD	.DWLopt544	;;     operand
00000fd4  27                  6797  		DC	0x27	;; SPECIAL 39
00000fd5  000502              6798  		DC	0x0,0x5,0x2	;; DW_LNE_set_address
00000fd8  00000000          + 6799  		DD	.DWLopt545	;;     operand
00000fdc  03                  6800  		DC	0x3	;; DW_LNS_advance_line
00000fdd  54                  6801  		DC	0x54	;; -44
00000fde  01                  6802  		DC	0x1	;; DW_LNS_copy
00000fdf  000502              6803  		DC	0x0,0x5,0x2	;; DW_LNE_set_address
00000fe2  00000000          + 6804  		DD	.DWLopt546	;;     operand
00000fe6  17                  6805  		DC	0x17	;; SPECIAL 23
00000fe7  000502              6806  		DC	0x0,0x5,0x2	;; DW_LNE_set_address
00000fea  00000000          + 6807  		DD	.DWLopt547	;;     operand
00000fee  17                  6808  		DC	0x17	;; SPECIAL 23
00000fef  000502              6809  		DC	0x0,0x5,0x2	;; DW_LNE_set_address
00000ff2  00000000          + 6810  		DD	.DWLopt548	;;     operand
00000ff6  18                  6811  		DC	0x18	;; SPECIAL 24
00000ff7  06                  6812  		DC	0x6	;; DW_LNS_negate_stmt
00000ff8  000502              6813  		DC	0x0,0x5,0x2	;; DW_LNE_set_address
00000ffb  00000000          + 6814  		DD	.DWLopt549	;;     operand
00000fff  17                  6815  		DC	0x17	;; SPECIAL 23
00001000  000502              6816  		DC	0x0,0x5,0x2	;; DW_LNE_set_address
00001003  00000000          + 6817  		DD	.DWLopt550	;;     operand
00001007  17                  6818  		DC	0x17	;; SPECIAL 23
00001008  06                  6819  		DC	0x6	;; DW_LNS_negate_stmt
00001009  000502              6820  		DC	0x0,0x5,0x2	;; DW_LNE_set_address
0000100c  00000000          + 6821  		DD	.DWLopt551	;;     operand
00001010  1B                  6822  		DC	0x1b	;; SPECIAL 27
00001011  000502              6823  		DC	0x0,0x5,0x2	;; DW_LNE_set_address
00001014  00000000          + 6824  		DD	.DWLopt552	;;     operand
00001018  12                  6825  		DC	0x12	;; SPECIAL 18
00001019  000502              6826  		DC	0x0,0x5,0x2	;; DW_LNE_set_address
0000101c  00000000          + 6827  		DD	.DWLopt553	;;     operand
00001020  12                  6828  		DC	0x12	;; SPECIAL 18
00001021  000502              6829  		DC	0x0,0x5,0x2	;; DW_LNE_set_address
00001024  00000000          + 6830  		DD	.DWLopt554	;;     operand
00001028  12                  6831  		DC	0x12	;; SPECIAL 18
00001029  000502              6832  		DC	0x0,0x5,0x2	;; DW_LNE_set_address
0000102c  00000000          + 6833  		DD	.DWLopt555	;;     operand
00001030  13                  6834  		DC	0x13	;; SPECIAL 19
00001031  000502              6835  		DC	0x0,0x5,0x2	;; DW_LNE_set_address
00001034  00000000          + 6836  		DD	.DWLopt556	;;     operand
00001038  11                  6837  		DC	0x11	;; SPECIAL 17
00001039  06                  6838  		DC	0x6	;; DW_LNS_negate_stmt
0000103a  000502              6839  		DC	0x0,0x5,0x2	;; DW_LNE_set_address
0000103d  00000000          + 6840  		DD	.LDW37	;;     operand
00001041  000101              6841  		DC	0x0,0x1,0x1	;; DW_LNE_end_sequence
00001044  000502              6842  		DC	0x0,0x5,0x2	;; DW_LNE_set_address
00001047  00000000          + 6843  		DD	.DWLopt561	;;     operand
0000104b  03                  6844  		DC	0x3	;; DW_LNS_advance_line
0000104c  840A                6845  		DC	0x84,0xa	;; 1284
0000104e  01                  6846  		DC	0x1	;; DW_LNS_copy
0000104f  000502              6847  		DC	0x0,0x5,0x2	;; DW_LNE_set_address
00001052  00000000          + 6848  		DD	.DWLopt562	;;     operand
00001056  14                  6849  		DC	0x14	;; SPECIAL 20
00001057  000502              6850  		DC	0x0,0x5,0x2	;; DW_LNE_set_address
0000105a  00000000          + 6851  		DD	.DWLopt563	;;     operand
0000105e  14                  6852  		DC	0x14	;; SPECIAL 20
0000105f  000502              6853  		DC	0x0,0x5,0x2	;; DW_LNE_set_address
00001062  00000000          + 6854  		DD	.DWLopt564	;;     operand
00001066  11                  6855  		DC	0x11	;; SPECIAL 17
00001067  000502              6856  		DC	0x0,0x5,0x2	;; DW_LNE_set_address
0000106a  00000000          + 6857  		DD	.DWLopt565	;;     operand
0000106e  11                  6858  		DC	0x11	;; SPECIAL 17
0000106f  000502              6859  		DC	0x0,0x5,0x2	;; DW_LNE_set_address
00001072  00000000          + 6860  		DD	.DWLopt566	;;     operand
00001076  16                  6861  		DC	0x16	;; SPECIAL 22
00001077  000502              6862  		DC	0x0,0x5,0x2	;; DW_LNE_set_address
0000107a  00000000          + 6863  		DD	.DWLopt567	;;     operand
0000107e  11                  6864  		DC	0x11	;; SPECIAL 17
0000107f  000502              6865  		DC	0x0,0x5,0x2	;; DW_LNE_set_address
00001082  00000000          + 6866  		DD	.DWLopt568	;;     operand
00001086  11                  6867  		DC	0x11	;; SPECIAL 17
00001087  000502              6868  		DC	0x0,0x5,0x2	;; DW_LNE_set_address
0000108a  00000000          + 6869  		DD	.DWLopt569	;;     operand
0000108e  14                  6870  		DC	0x14	;; SPECIAL 20
0000108f  000502              6871  		DC	0x0,0x5,0x2	;; DW_LNE_set_address
00001092  00000000          + 6872  		DD	.DWLopt570	;;     operand
00001096  12                  6873  		DC	0x12	;; SPECIAL 18
00001097  000502              6874  		DC	0x0,0x5,0x2	;; DW_LNE_set_address
0000109a  00000000          + 6875  		DD	.DWLopt571	;;     operand
0000109e  13                  6876  		DC	0x13	;; SPECIAL 19
0000109f  000502              6877  		DC	0x0,0x5,0x2	;; DW_LNE_set_address
000010a2  00000000          + 6878  		DD	.DWLopt572	;;     operand
000010a6  12                  6879  		DC	0x12	;; SPECIAL 18
000010a7  06                  6880  		DC	0x6	;; DW_LNS_negate_stmt
000010a8  000502              6881  		DC	0x0,0x5,0x2	;; DW_LNE_set_address
000010ab  00000000          + 6882  		DD	.DWLopt573	;;     operand
000010af  03                  6883  		DC	0x3	;; DW_LNS_advance_line
000010b0  DE75                6884  		DC	0xde,0x75	;; -1314
000010b2  01                  6885  		DC	0x1	;; DW_LNS_copy
000010b3  06                  6886  		DC	0x6	;; DW_LNS_negate_stmt
000010b4  000502              6887  		DC	0x0,0x5,0x2	;; DW_LNE_set_address
000010b7  00000000          + 6888  		DD	.DWLopt574	;;     operand
000010bb  03                  6889  		DC	0x3	;; DW_LNS_advance_line
000010bc  B20A                6890  		DC	0xb2,0xa	;; 1330
000010be  01                  6891  		DC	0x1	;; DW_LNS_copy
000010bf  000502              6892  		DC	0x0,0x5,0x2	;; DW_LNE_set_address
000010c2  00000000          + 6893  		DD	.DWLopt575	;;     operand
000010c6  11                  6894  		DC	0x11	;; SPECIAL 17
000010c7  06                  6895  		DC	0x6	;; DW_LNS_negate_stmt
000010c8  000502              6896  		DC	0x0,0x5,0x2	;; DW_LNE_set_address
000010cb  00000000          + 6897  		DD	.DWLopt576	;;     operand
000010cf  0F                  6898  		DC	0xf	;; SPECIAL 15
000010d0  000502              6899  		DC	0x0,0x5,0x2	;; DW_LNE_set_address
000010d3  00000000          + 6900  		DD	.DWLopt577	;;     operand
000010d7  11                  6901  		DC	0x11	;; SPECIAL 17
000010d8  06                  6902  		DC	0x6	;; DW_LNS_negate_stmt
000010d9  000502              6903  		DC	0x0,0x5,0x2	;; DW_LNE_set_address
000010dc  00000000          + 6904  		DD	.DWLopt578	;;     operand
000010e0  12                  6905  		DC	0x12	;; SPECIAL 18
000010e1  000502              6906  		DC	0x0,0x5,0x2	;; DW_LNE_set_address
000010e4  00000000          + 6907  		DD	.DWLopt579	;;     operand
000010e8  03                  6908  		DC	0x3	;; DW_LNS_advance_line
000010e9  6F                  6909  		DC	0x6f	;; -17
000010ea  01                  6910  		DC	0x1	;; DW_LNS_copy
000010eb  06                  6911  		DC	0x6	;; DW_LNS_negate_stmt
000010ec  000502              6912  		DC	0x0,0x5,0x2	;; DW_LNE_set_address
000010ef  00000000          + 6913  		DD	.DWLopt580	;;     operand
000010f3  21                  6914  		DC	0x21	;; SPECIAL 33
000010f4  06                  6915  		DC	0x6	;; DW_LNS_negate_stmt
000010f5  000502              6916  		DC	0x0,0x5,0x2	;; DW_LNE_set_address
000010f8  00000000          + 6917  		DD	.DWLopt581	;;     operand
000010fc  12                  6918  		DC	0x12	;; SPECIAL 18
000010fd  000502              6919  		DC	0x0,0x5,0x2	;; DW_LNE_set_address
00001100  00000000          + 6920  		DD	.DWLopt582	;;     operand
00001104  12                  6921  		DC	0x12	;; SPECIAL 18
00001105  000502              6922  		DC	0x0,0x5,0x2	;; DW_LNE_set_address
00001108  00000000          + 6923  		DD	.DWLopt583	;;     operand
0000110c  03                  6924  		DC	0x3	;; DW_LNS_advance_line
0000110d  6F                  6925  		DC	0x6f	;; -17
0000110e  01                  6926  		DC	0x1	;; DW_LNS_copy
0000110f  06                  6927  		DC	0x6	;; DW_LNS_negate_stmt
00001110  000502              6928  		DC	0x0,0x5,0x2	;; DW_LNE_set_address
00001113  00000000          + 6929  		DD	.DWLopt584	;;     operand
00001117  21                  6930  		DC	0x21	;; SPECIAL 33
00001118  06                  6931  		DC	0x6	;; DW_LNS_negate_stmt
00001119  000502              6932  		DC	0x0,0x5,0x2	;; DW_LNE_set_address
0000111c  00000000          + 6933  		DD	.DWLopt585	;;     operand
00001120  14                  6934  		DC	0x14	;; SPECIAL 20
00001121  000502              6935  		DC	0x0,0x5,0x2	;; DW_LNE_set_address
00001124  00000000          + 6936  		DD	.DWLopt586	;;     operand
00001128  03                  6937  		DC	0x3	;; DW_LNS_advance_line
00001129  70                  6938  		DC	0x70	;; -16
0000112a  01                  6939  		DC	0x1	;; DW_LNS_copy
0000112b  06                  6940  		DC	0x6	;; DW_LNS_negate_stmt
0000112c  000502              6941  		DC	0x0,0x5,0x2	;; DW_LNE_set_address
0000112f  00000000          + 6942  		DD	.DWLopt587	;;     operand
00001133  20                  6943  		DC	0x20	;; SPECIAL 32
00001134  000502              6944  		DC	0x0,0x5,0x2	;; DW_LNE_set_address
00001137  00000000          + 6945  		DD	.DWLopt588	;;     operand
0000113b  03                  6946  		DC	0x3	;; DW_LNS_advance_line
0000113c  67                  6947  		DC	0x67	;; -25
0000113d  01                  6948  		DC	0x1	;; DW_LNS_copy
0000113e  000502              6949  		DC	0x0,0x5,0x2	;; DW_LNE_set_address
00001141  00000000          + 6950  		DD	.DWLopt589	;;     operand
00001145  14                  6951  		DC	0x14	;; SPECIAL 20
00001146  000502              6952  		DC	0x0,0x5,0x2	;; DW_LNE_set_address
00001149  00000000          + 6953  		DD	.DWLopt590	;;     operand
0000114d  15                  6954  		DC	0x15	;; SPECIAL 21
0000114e  000502              6955  		DC	0x0,0x5,0x2	;; DW_LNE_set_address
00001151  00000000          + 6956  		DD	.DWLopt591	;;     operand
00001155  18                  6957  		DC	0x18	;; SPECIAL 24
00001156  000502              6958  		DC	0x0,0x5,0x2	;; DW_LNE_set_address
00001159  00000000          + 6959  		DD	.DWLopt592	;;     operand
0000115d  14                  6960  		DC	0x14	;; SPECIAL 20
0000115e  06                  6961  		DC	0x6	;; DW_LNS_negate_stmt
0000115f  000502              6962  		DC	0x0,0x5,0x2	;; DW_LNE_set_address
00001162  00000000          + 6963  		DD	.DWLopt593	;;     operand
00001166  19                  6964  		DC	0x19	;; SPECIAL 25
00001167  000502              6965  		DC	0x0,0x5,0x2	;; DW_LNE_set_address
0000116a  00000000          + 6966  		DD	.DWLopt594	;;     operand
0000116e  15                  6967  		DC	0x15	;; SPECIAL 21
0000116f  000502              6968  		DC	0x0,0x5,0x2	;; DW_LNE_set_address
00001172  00000000          + 6969  		DD	.DWLopt595	;;     operand
00001176  12                  6970  		DC	0x12	;; SPECIAL 18
00001177  000502              6971  		DC	0x0,0x5,0x2	;; DW_LNE_set_address
0000117a  00000000          + 6972  		DD	.DWLopt596	;;     operand
0000117e  11                  6973  		DC	0x11	;; SPECIAL 17
0000117f  000502              6974  		DC	0x0,0x5,0x2	;; DW_LNE_set_address
00001182  00000000          + 6975  		DD	.DWLopt597	;;     operand
00001186  14                  6976  		DC	0x14	;; SPECIAL 20
00001187  000502              6977  		DC	0x0,0x5,0x2	;; DW_LNE_set_address
0000118a  00000000          + 6978  		DD	.DWLopt598	;;     operand
0000118e  11                  6979  		DC	0x11	;; SPECIAL 17
0000118f  06                  6980  		DC	0x6	;; DW_LNS_negate_stmt
00001190  000502              6981  		DC	0x0,0x5,0x2	;; DW_LNE_set_address
00001193  00000000          + 6982  		DD	.DWLopt599	;;     operand
00001197  0F                  6983  		DC	0xf	;; SPECIAL 15
00001198  000502              6984  		DC	0x0,0x5,0x2	;; DW_LNE_set_address
0000119b  00000000          + 6985  		DD	.DWLopt600	;;     operand
0000119f  11                  6986  		DC	0x11	;; SPECIAL 17
000011a0  06                  6987  		DC	0x6	;; DW_LNS_negate_stmt
000011a1  000502              6988  		DC	0x0,0x5,0x2	;; DW_LNE_set_address
000011a4  00000000          + 6989  		DD	.DWLopt601	;;     operand
000011a8  13                  6990  		DC	0x13	;; SPECIAL 19
000011a9  000502              6991  		DC	0x0,0x5,0x2	;; DW_LNE_set_address
000011ac  00000000          + 6992  		DD	.DWLopt602	;;     operand
000011b0  11                  6993  		DC	0x11	;; SPECIAL 17
000011b1  000502              6994  		DC	0x0,0x5,0x2	;; DW_LNE_set_address
000011b4  00000000          + 6995  		DD	.DWLopt603	;;     operand
000011b8  13                  6996  		DC	0x13	;; SPECIAL 19
000011b9  000502              6997  		DC	0x0,0x5,0x2	;; DW_LNE_set_address
000011bc  00000000          + 6998  		DD	.DWLopt604	;;     operand
000011c0  12                  6999  		DC	0x12	;; SPECIAL 18
000011c1  000502              7000  		DC	0x0,0x5,0x2	;; DW_LNE_set_address
000011c4  00000000          + 7001  		DD	.DWLopt605	;;     operand
000011c8  15                  7002  		DC	0x15	;; SPECIAL 21
000011c9  000502              7003  		DC	0x0,0x5,0x2	;; DW_LNE_set_address
000011cc  00000000          + 7004  		DD	.DWLopt606	;;     operand
000011d0  12                  7005  		DC	0x12	;; SPECIAL 18
000011d1  000502              7006  		DC	0x0,0x5,0x2	;; DW_LNE_set_address
000011d4  00000000          + 7007  		DD	.DWLopt607	;;     operand
000011d8  11                  7008  		DC	0x11	;; SPECIAL 17
000011d9  000502              7009  		DC	0x0,0x5,0x2	;; DW_LNE_set_address
000011dc  00000000          + 7010  		DD	.DWLopt608	;;     operand
000011e0  12                  7011  		DC	0x12	;; SPECIAL 18
000011e1  000502              7012  		DC	0x0,0x5,0x2	;; DW_LNE_set_address
000011e4  00000000          + 7013  		DD	.DWLopt609	;;     operand
000011e8  13                  7014  		DC	0x13	;; SPECIAL 19
000011e9  06                  7015  		DC	0x6	;; DW_LNS_negate_stmt
000011ea  000502              7016  		DC	0x0,0x5,0x2	;; DW_LNE_set_address
000011ed  00000000          + 7017  		DD	.DWLopt610	;;     operand
000011f1  10                  7018  		DC	0x10	;; SPECIAL 16
000011f2  000502              7019  		DC	0x0,0x5,0x2	;; DW_LNE_set_address
000011f5  00000000          + 7020  		DD	.DWLopt611	;;     operand
000011f9  0B                  7021  		DC	0xb	;; SPECIAL 11
000011fa  06                  7022  		DC	0x6	;; DW_LNS_negate_stmt
000011fb  000502              7023  		DC	0x0,0x5,0x2	;; DW_LNE_set_address
000011fe  00000000          + 7024  		DD	.DWLopt612	;;     operand
00001202  18                  7025  		DC	0x18	;; SPECIAL 24
00001203  000502              7026  		DC	0x0,0x5,0x2	;; DW_LNE_set_address
00001206  00000000          + 7027  		DD	.DWLopt613	;;     operand
0000120a  11                  7028  		DC	0x11	;; SPECIAL 17
0000120b  000502              7029  		DC	0x0,0x5,0x2	;; DW_LNE_set_address
0000120e  00000000          + 7030  		DD	.DWLopt614	;;     operand
00001212  14                  7031  		DC	0x14	;; SPECIAL 20
00001213  000502              7032  		DC	0x0,0x5,0x2	;; DW_LNE_set_address
00001216  00000000          + 7033  		DD	.DWLopt615	;;     operand
0000121a  15                  7034  		DC	0x15	;; SPECIAL 21
0000121b  000502              7035  		DC	0x0,0x5,0x2	;; DW_LNE_set_address
0000121e  00000000          + 7036  		DD	.DWLopt616	;;     operand
00001222  12                  7037  		DC	0x12	;; SPECIAL 18
00001223  000502              7038  		DC	0x0,0x5,0x2	;; DW_LNE_set_address
00001226  00000000          + 7039  		DD	.DWLopt617	;;     operand
0000122a  11                  7040  		DC	0x11	;; SPECIAL 17
0000122b  000502              7041  		DC	0x0,0x5,0x2	;; DW_LNE_set_address
0000122e  00000000          + 7042  		DD	.DWLopt618	;;     operand
00001232  12                  7043  		DC	0x12	;; SPECIAL 18
00001233  000502              7044  		DC	0x0,0x5,0x2	;; DW_LNE_set_address
00001236  00000000          + 7045  		DD	.DWLopt619	;;     operand
0000123a  11                  7046  		DC	0x11	;; SPECIAL 17
0000123b  000502              7047  		DC	0x0,0x5,0x2	;; DW_LNE_set_address
0000123e  00000000          + 7048  		DD	.DWLopt620	;;     operand
00001242  13                  7049  		DC	0x13	;; SPECIAL 19
00001243  000502              7050  		DC	0x0,0x5,0x2	;; DW_LNE_set_address
00001246  00000000          + 7051  		DD	.DWLopt621	;;     operand
0000124a  12                  7052  		DC	0x12	;; SPECIAL 18
0000124b  000502              7053  		DC	0x0,0x5,0x2	;; DW_LNE_set_address
0000124e  00000000          + 7054  		DD	.DWLopt622	;;     operand
00001252  11                  7055  		DC	0x11	;; SPECIAL 17
00001253  06                  7056  		DC	0x6	;; DW_LNS_negate_stmt
00001254  000502              7057  		DC	0x0,0x5,0x2	;; DW_LNE_set_address
00001257  00000000          + 7058  		DD	.LDW38	;;     operand
0000125b  000101              7059  		DC	0x0,0x1,0x1	;; DW_LNE_end_sequence
0000125e  000502              7060  		DC	0x0,0x5,0x2	;; DW_LNE_set_address
00001261  00000000          + 7061  		DD	.DWLopt624	;;     operand
00001265  03                  7062  		DC	0x3	;; DW_LNS_advance_line
00001266  810B                7063  		DC	0x81,0xb	;; 1409
00001268  01                  7064  		DC	0x1	;; DW_LNS_copy
00001269  000502              7065  		DC	0x0,0x5,0x2	;; DW_LNE_set_address
0000126c  00000000          + 7066  		DD	.DWLopt625	;;     operand
00001270  13                  7067  		DC	0x13	;; SPECIAL 19
00001271  06                  7068  		DC	0x6	;; DW_LNS_negate_stmt
00001272  000502              7069  		DC	0x0,0x5,0x2	;; DW_LNE_set_address
00001275  00000000          + 7070  		DD	.DWLopt626	;;     operand
00001279  0D                  7071  		DC	0xd	;; SPECIAL 13
0000127a  06                  7072  		DC	0x6	;; DW_LNS_negate_stmt
0000127b  000502              7073  		DC	0x0,0x5,0x2	;; DW_LNE_set_address
0000127e  00000000          + 7074  		DD	.DWLopt627	;;     operand
00001282  11                  7075  		DC	0x11	;; SPECIAL 17
00001283  06                  7076  		DC	0x6	;; DW_LNS_negate_stmt
00001284  000502              7077  		DC	0x0,0x5,0x2	;; DW_LNE_set_address
00001287  00000000          + 7078  		DD	.DWLopt628	;;     operand
0000128b  12                  7079  		DC	0x12	;; SPECIAL 18
0000128c  000502              7080  		DC	0x0,0x5,0x2	;; DW_LNE_set_address
0000128f  00000000          + 7081  		DD	.DWLopt629	;;     operand
00001293  0E                  7082  		DC	0xe	;; SPECIAL 14
00001294  000502              7083  		DC	0x0,0x5,0x2	;; DW_LNE_set_address
00001297  00000000          + 7084  		DD	.DWLopt630	;;     operand
0000129b  12                  7085  		DC	0x12	;; SPECIAL 18
0000129c  06                  7086  		DC	0x6	;; DW_LNS_negate_stmt
0000129d  000502              7087  		DC	0x0,0x5,0x2	;; DW_LNE_set_address
000012a0  00000000          + 7088  		DD	.DWLopt631	;;     operand
000012a4  12                  7089  		DC	0x12	;; SPECIAL 18
000012a5  000502              7090  		DC	0x0,0x5,0x2	;; DW_LNE_set_address
000012a8  00000000          + 7091  		DD	.DWLopt632	;;     operand
000012ac  12                  7092  		DC	0x12	;; SPECIAL 18
000012ad  000502              7093  		DC	0x0,0x5,0x2	;; DW_LNE_set_address
000012b0  00000000          + 7094  		DD	.DWLopt633	;;     operand
000012b4  12                  7095  		DC	0x12	;; SPECIAL 18
000012b5  000502              7096  		DC	0x0,0x5,0x2	;; DW_LNE_set_address
000012b8  00000000          + 7097  		DD	.DWLopt634	;;     operand
000012bc  11                  7098  		DC	0x11	;; SPECIAL 17
000012bd  000502              7099  		DC	0x0,0x5,0x2	;; DW_LNE_set_address
000012c0  00000000          + 7100  		DD	.DWLopt635	;;     operand
000012c4  11                  7101  		DC	0x11	;; SPECIAL 17
000012c5  000502              7102  		DC	0x0,0x5,0x2	;; DW_LNE_set_address
000012c8  00000000          + 7103  		DD	.DWLopt636	;;     operand
000012cc  12                  7104  		DC	0x12	;; SPECIAL 18
000012cd  000502              7105  		DC	0x0,0x5,0x2	;; DW_LNE_set_address
000012d0  00000000          + 7106  		DD	.DWLopt637	;;     operand
000012d4  14                  7107  		DC	0x14	;; SPECIAL 20
000012d5  000502              7108  		DC	0x0,0x5,0x2	;; DW_LNE_set_address
000012d8  00000000          + 7109  		DD	.DWLopt638	;;     operand
000012dc  11                  7110  		DC	0x11	;; SPECIAL 17
000012dd  000502              7111  		DC	0x0,0x5,0x2	;; DW_LNE_set_address
000012e0  00000000          + 7112  		DD	.DWLopt639	;;     operand
000012e4  11                  7113  		DC	0x11	;; SPECIAL 17
000012e5  000502              7114  		DC	0x0,0x5,0x2	;; DW_LNE_set_address
000012e8  00000000          + 7115  		DD	.DWLopt640	;;     operand
000012ec  12                  7116  		DC	0x12	;; SPECIAL 18
000012ed  000502              7117  		DC	0x0,0x5,0x2	;; DW_LNE_set_address
000012f0  00000000          + 7118  		DD	.DWLopt641	;;     operand
000012f4  15                  7119  		DC	0x15	;; SPECIAL 21
000012f5  000502              7120  		DC	0x0,0x5,0x2	;; DW_LNE_set_address
000012f8  00000000          + 7121  		DD	.DWLopt642	;;     operand
000012fc  11                  7122  		DC	0x11	;; SPECIAL 17
000012fd  000502              7123  		DC	0x0,0x5,0x2	;; DW_LNE_set_address
00001300  00000000          + 7124  		DD	.DWLopt643	;;     operand
00001304  11                  7125  		DC	0x11	;; SPECIAL 17
00001305  000502              7126  		DC	0x0,0x5,0x2	;; DW_LNE_set_address
00001308  00000000          + 7127  		DD	.DWLopt644	;;     operand
0000130c  12                  7128  		DC	0x12	;; SPECIAL 18
0000130d  000502              7129  		DC	0x0,0x5,0x2	;; DW_LNE_set_address
00001310  00000000          + 7130  		DD	.DWLopt645	;;     operand
00001314  15                  7131  		DC	0x15	;; SPECIAL 21
00001315  000502              7132  		DC	0x0,0x5,0x2	;; DW_LNE_set_address
00001318  00000000          + 7133  		DD	.DWLopt646	;;     operand
0000131c  12                  7134  		DC	0x12	;; SPECIAL 18
0000131d  000502              7135  		DC	0x0,0x5,0x2	;; DW_LNE_set_address
00001320  00000000          + 7136  		DD	.DWLopt647	;;     operand
00001324  12                  7137  		DC	0x12	;; SPECIAL 18
00001325  000502              7138  		DC	0x0,0x5,0x2	;; DW_LNE_set_address
00001328  00000000          + 7139  		DD	.DWLopt648	;;     operand
0000132c  11                  7140  		DC	0x11	;; SPECIAL 17
0000132d  000502              7141  		DC	0x0,0x5,0x2	;; DW_LNE_set_address
00001330  00000000          + 7142  		DD	.DWLopt649	;;     operand
00001334  11                  7143  		DC	0x11	;; SPECIAL 17
00001335  000502              7144  		DC	0x0,0x5,0x2	;; DW_LNE_set_address
00001338  00000000          + 7145  		DD	.DWLopt650	;;     operand
0000133c  12                  7146  		DC	0x12	;; SPECIAL 18
0000133d  000502              7147  		DC	0x0,0x5,0x2	;; DW_LNE_set_address
00001340  00000000          + 7148  		DD	.DWLopt651	;;     operand
00001344  14                  7149  		DC	0x14	;; SPECIAL 20
00001345  000502              7150  		DC	0x0,0x5,0x2	;; DW_LNE_set_address
00001348  00000000          + 7151  		DD	.DWLopt652	;;     operand
0000134c  11                  7152  		DC	0x11	;; SPECIAL 17
0000134d  000502              7153  		DC	0x0,0x5,0x2	;; DW_LNE_set_address
00001350  00000000          + 7154  		DD	.DWLopt653	;;     operand
00001354  11                  7155  		DC	0x11	;; SPECIAL 17
00001355  000502              7156  		DC	0x0,0x5,0x2	;; DW_LNE_set_address
00001358  00000000          + 7157  		DD	.DWLopt654	;;     operand
0000135c  12                  7158  		DC	0x12	;; SPECIAL 18
0000135d  06                  7159  		DC	0x6	;; DW_LNS_negate_stmt
0000135e  000502              7160  		DC	0x0,0x5,0x2	;; DW_LNE_set_address
00001361  00000000          + 7161  		DD	.DWLopt655	;;     operand
00001365  03                  7162  		DC	0x3	;; DW_LNS_advance_line
00001366  CB74                7163  		DC	0xcb,0x74	;; -1461
00001368  01                  7164  		DC	0x1	;; DW_LNS_copy
00001369  06                  7165  		DC	0x6	;; DW_LNS_negate_stmt
0000136a  000502              7166  		DC	0x0,0x5,0x2	;; DW_LNE_set_address
0000136d  00000000          + 7167  		DD	.DWLopt656	;;     operand
00001371  03                  7168  		DC	0x3	;; DW_LNS_advance_line
00001372  BA0B                7169  		DC	0xba,0xb	;; 1466
00001374  01                  7170  		DC	0x1	;; DW_LNS_copy
00001375  000502              7171  		DC	0x0,0x5,0x2	;; DW_LNE_set_address
00001378  00000000          + 7172  		DD	.DWLopt657	;;     operand
0000137c  11                  7173  		DC	0x11	;; SPECIAL 17
0000137d  000502              7174  		DC	0x0,0x5,0x2	;; DW_LNE_set_address
00001380  00000000          + 7175  		DD	.DWLopt658	;;     operand
00001384  11                  7176  		DC	0x11	;; SPECIAL 17
00001385  000502              7177  		DC	0x0,0x5,0x2	;; DW_LNE_set_address
00001388  00000000          + 7178  		DD	.DWLopt659	;;     operand
0000138c  12                  7179  		DC	0x12	;; SPECIAL 18
0000138d  06                  7180  		DC	0x6	;; DW_LNS_negate_stmt
0000138e  000502              7181  		DC	0x0,0x5,0x2	;; DW_LNE_set_address
00001391  00000000          + 7182  		DD	.DWLopt660	;;     operand
00001395  10                  7183  		DC	0x10	;; SPECIAL 16
00001396  000502              7184  		DC	0x0,0x5,0x2	;; DW_LNE_set_address
00001399  00000000          + 7185  		DD	.DWLopt661	;;     operand
0000139d  03                  7186  		DC	0x3	;; DW_LNS_advance_line
0000139e  6F                  7187  		DC	0x6f	;; -17
0000139f  01                  7188  		DC	0x1	;; DW_LNS_copy
000013a0  000502              7189  		DC	0x0,0x5,0x2	;; DW_LNE_set_address
000013a3  00000000          + 7190  		DD	.DWLopt662	;;     operand
000013a7  18                  7191  		DC	0x18	;; SPECIAL 24
000013a8  000502              7192  		DC	0x0,0x5,0x2	;; DW_LNE_set_address
000013ab  00000000          + 7193  		DD	.DWLopt663	;;     operand
000013af  03                  7194  		DC	0x3	;; DW_LNS_advance_line
000013b0  6B                  7195  		DC	0x6b	;; -21
000013b1  01                  7196  		DC	0x1	;; DW_LNS_copy
000013b2  000502              7197  		DC	0x0,0x5,0x2	;; DW_LNE_set_address
000013b5  00000000          + 7198  		DD	.DWLopt664	;;     operand
000013b9  03                  7199  		DC	0x3	;; DW_LNS_advance_line
000013ba  77                  7200  		DC	0x77	;; -9
000013bb  01                  7201  		DC	0x1	;; DW_LNS_copy
000013bc  000502              7202  		DC	0x0,0x5,0x2	;; DW_LNE_set_address
000013bf  00000000          + 7203  		DD	.DWLopt665	;;     operand
000013c3  03                  7204  		DC	0x3	;; DW_LNS_advance_line
000013c4  78                  7205  		DC	0x78	;; -8
000013c5  01                  7206  		DC	0x1	;; DW_LNS_copy
000013c6  06                  7207  		DC	0x6	;; DW_LNS_negate_stmt
000013c7  000502              7208  		DC	0x0,0x5,0x2	;; DW_LNE_set_address
000013ca  00000000          + 7209  		DD	.DWLopt666	;;     operand
000013ce  42                  7210  		DC	0x42	;; SPECIAL 66
000013cf  06                  7211  		DC	0x6	;; DW_LNS_negate_stmt
000013d0  000502              7212  		DC	0x0,0x5,0x2	;; DW_LNE_set_address
000013d3  00000000          + 7213  		DD	.LDW39	;;     operand
000013d7  000101              7214  		DC	0x0,0x1,0x1	;; DW_LNE_end_sequence
000013da                      7215  	.LLN_E
                              7216  	.debug_aranges		SECTION
                              7217  	;; Aranges Information
00000000  00000000          + 7218  		DD	.LAR_E-.LAR_B	;; length
00000004                      7219  	.LAR_B
00000004  0200                7220  		DW	0x2	;; version
00000006  00000000          + 7221  		DD	.LI_TOP	;; debug_info section
0000000a  04                  7222  		DC	0x4	;; address size
0000000b  00                  7223  		DC	0x0	;; segment size
0000000c  00000000            7224  		DD	0x0	;; padding
                              7225  		;; Address Range Table
00000010  0000000004000000  + 7226  		DD	_flg_PWM,0x4	;; address, size
00000018  0000000010000000  + 7227  		DD	_freq_rate,0x10	;; address, size
00000020  0000000002000000  + 7228  		DD	_gus_stall_amp_accel,0x2	;; address, size
00000028  0000000002000000  + 7229  		DD	_gus_stall_amp_decel,0x2	;; address, size
00000030  0000000002000000  + 7230  		DD	_gus_Td,0x2	;; address, size
00000038  0000000002000000  + 7231  		DD	_gus_half_pwm,0x2	;; address, size
00000040  0000000002000000  + 7232  		DD	_gus_peak_pwm,0x2	;; address, size
00000048  0000000002000000  + 7233  		DD	_gus_centi_half_pwm,0x2	;; address, size
00000050  0000000002000000  + 7234  		DD	_gus_val_a,0x2	;; address, size
00000058  0000000002000000  + 7235  		DD	_gus_val_b,0x2	;; address, size
00000060  0000000002000000  + 7236  		DD	_gus_val_c,0x2	;; address, size
00000068  0000000002000000  + 7237  		DD	_gss_max_pwm,0x2	;; address, size
00000070  0000000002000000  + 7238  		DD	_gss_min_pwm,0x2	;; address, size
00000078  0000000004000000  + 7239  		DD	_gul_percent_pwm_unit,0x4	;; address, size
00000080  0000000002000000  + 7240  		DD	_gus_max_percent,0x2	;; address, size
00000088  0000000002000000  + 7241  		DD	_gus_min_percent,0x2	;; address, size
00000090  0000000002000000  + 7242  		DD	_gus_max_percent_gu,0x2	;; address, size
00000098  0000000002000000  + 7243  		DD	_gus_percent_k,0x2	;; address, size
000000a0  0000000002000000  + 7244  		DD	_gus_percent_pwm,0x2	;; address, size
000000a8  0000000002000000  + 7245  		DD	_gus_percent_pwm_buf,0x2	;; address, size
000000b0  0000000002000000  + 7246  		DD	_gus_rate_per,0x2	;; address, size
000000b8  0000000004000000  + 7247  		DD	_rate_theta,0x4	;; address, size
000000c0  0000000004000000  + 7248  		DD	_rate_theta_buf,0x4	;; address, size
000000c8  0000000004000000  + 7249  		DD	_gul_theta,0x4	;; address, size
000000d0  0000000004000000  + 7250  		DD	_theta,0x4	;; address, size
000000d8  0000000004000000  + 7251  		DD	_theta_buf,0x4	;; address, size
000000e0  0000000002000000  + 7252  		DD	_gus_max_comp_val,0x2	;; address, size
000000e8  0000000002000000  + 7253  		DD	_gus_mid_comp_val,0x2	;; address, size
000000f0  0000000002000000  + 7254  		DD	_gus_min_comp_val,0x2	;; address, size
000000f8  0000000002000000  + 7255  		DD	_gus_val_abc_order,0x2	;; address, size
00000100  0000000002000000  + 7256  		DD	_gus_TUP_ADtrigger,0x2	;; address, size
00000108  0000000002000000  + 7257  		DD	_gus_TDW_ADtrigger,0x2	;; address, size
00000110  0000000002000000  + 7258  		DD	_gus_ADtrigger_repair_val,0x2	;; address, size
00000118  0000000002000000  + 7259  		DD	_gus_AD_SH_val,0x2	;; address, size
00000120  0000000002000000  + 7260  		DD	_gus_now_theta,0x2	;; address, size
00000128  0000000002000000  + 7261  		DD	_gus_next_theta,0x2	;; address, size
00000130  0000000002000000  + 7262  		DD	_gss_bootstrap_charger_delaytimer,0x2	;; address, size
00000138  0000000002000000  + 7263  		DD	_gus_freq_set,0x2	;; address, size
00000140  0000000002000000  + 7264  		DD	_gus_MAX_setfreq,0x2	;; address, size
00000148  0000000002000000  + 7265  		DD	_gus_freq_out,0x2	;; address, size
00000150  0000000002000000  + 7266  		DD	_gus_freq_real,0x2	;; address, size
00000158  0000000002000000  + 7267  		DD	_gus_speed_out,0x2	;; address, size
00000160  0000000002000000  + 7268  		DD	_gus_speed_real,0x2	;; address, size
00000168  0000000002000000  + 7269  		DD	_gus_Uout_real,0x2	;; address, size
00000170  0000000002000000  + 7270  		DD	_gus_Uout_for_disp,0x2	;; address, size
00000178  0000000002000000  + 7271  		DD	_gus_PIctrl_delaytimer,0x2	;; address, size
00000180  0000000004000000  + 7272  		DD	_gsl_FreqPI_integral,0x4	;; address, size
00000188  0000000004000000  + 7273  		DD	_gsl_PI_initval,0x4	;; address, size
00000190  0000000000000000  + 7274  		DD	_PWM_configure,.LDW26-_PWM_configure	;; address, size
00000198  0000000000000000  + 7275  		DD	_freq_rate_init,.LDW27-_freq_rate_init	;; address, size
000001a0  0000000000000000  + 7276  		DD	_open_pwm,.LDW28-_open_pwm	;; address, size
000001a8  0000000000000000  + 7277  		DD	_shut_pwm,.LDW29-_shut_pwm	;; address, size
000001b0  0000000000000000  + 7278  		DD	_bootstrap_charger_delaytime,.LDW30-_bootstrap_charger_delaytime	;; address, size
000001b8  0000000000000000  + 7279  		DD	_check_freq_updata,.LDW31-_check_freq_updata	;; address, size
000001c0  0000000000000000  + 7280  		DD	_Sensored_cale_Vout,.LDW32-_Sensored_cale_Vout	;; address, size
000001c8  0000000000000000  + 7281  		DD	_calc_percent_theta,.LDW33-_calc_percent_theta	;; address, size
000001d0  0000000000000000  + 7282  		DD	_calc_comp_val,.LDW34-_calc_comp_val	;; address, size
000001d8  0000000000000000  + 7283  		DD	_get_sin_value,.LDW35-_get_sin_value	;; address, size
000001e0  0000000000000000  + 7284  		DD	_get_tai_comp_value,.LDW36-_get_tai_comp_value	;; address, size
000001e8  0000000000000000  + 7285  		DD	_get_svpwm_comp_value,.LDW37-_get_svpwm_comp_value	;; address, size
000001f0  0000000000000000  + 7286  		DD	_PWM_Reload_INT,.LDW38-_PWM_Reload_INT	;; address, size
000001f8  0000000000000000  + 7287  		DD	_comp_val_order,.LDW39-_comp_val_order	;; address, size
                              7288  		;; end
00000200  00000000            7289  		DD	0x0
00000204  00000000            7290  		DD	0x0
00000208                      7291  	.LAR_E
                              7292  	;; End of Aranges Information
                              7293  		END
                              7294  	;;ENDFILE 
                                                OP0k.lst	Page 2
*** Symbol Table ***
Address/Value	Class	Section			  Symbol

00000000	L	.debug_frame              .LFR_TOP
00000024	L	.debug_frame              .LFR_C_E
00000004	L	.debug_frame              .LFR_C_B
00000000	L	.text                     .LPC_TOP
00000000	G				  _flg_ctrl
00000000	G				  _flg_theta
00000000	G				  _ram_para
00000000	G				  _0get_Udc_ad
00000000	G				  _flg_ADC
00000000	G				  _gus_Udc_ad
00000000	G				  _gus_Udc_for_disp
00000000	G				  _gus_Udc_tmp
00000000	G				  _sin_table
00000000	G				  _0prot_ALM_deal
00000000	G				  _gus_prot_Iout_stall_amp
00000000	G				  _gus_prot_Udc_stall_amp
00000000	G				  _gus_prot_Tm_stall_amp
00000000	G				  _flg_Hall
00000000	G				  _gus_Hall_freq
00000000	G				  _gus_phase_adv_degree
00000000	G	.text                     _PWM_configure
00000002	G	.text                     _0PWM_configure
00000002	L	.text                     .DWLopt8
00000030	G	.bss                      _gus_peak_pwm
0000001a	L	.text                     .DWLopt9
00000020	L	.text                     .DWLopt10
0000002c	L	.text                     .DWLopt11
00000032	L	.text                     .DWLopt12
00000033	L	.text                     .DWLopt13
00000052	G	.bss                      _gus_half_pwm
0000003d	L	.text                     .DWLopt14
00000054	G	.bss                      _gus_centi_half_pwm
00000048	L	.text                     .DWLopt15
00000058	G	.bss                      _gss_min_pwm
00000052	L	.text                     .DWLopt16
00000055	L	.text                     .DWLopt17
0000005b	L	.text                     .DWLopt18
00000056	G	.bss                      _gss_max_pwm
00000061	L	.text                     .DWLopt19
00000068	L	.text                     .DWLopt20
00000069	L	.text                     .DWLopt21
0000006a	L	.text                     .DWLopt22
0000006b	L	.text                     .DWLopt23
00000071	L	.text                     .DWLopt24
0000007a	L	.text                     .DWLopt2
0000007a	L	.text                     .DWLopt25
0000005c	G	.bss                      _gus_min_percent
00000082	L	.text                     .DWLopt26
000000a1	L	.text                     L00009
0000008b	L	.text                     .DWLopt27
00000092	L	.text                     .DWLopt3
0000005a	G	.bss                      _gus_max_percent
0000009a	L	.text                     .DWLopt28
000000b3	L	.text                     Lopt000001
000000a1	L	.text                     .DWLopt29
000000b9	L	.text                     L00012
000000aa	L	.text                     .DWLopt30
000000b3	L	.text                     .DWLopt31
000000b3	L	.text                     .DWLopt32
0000005e	G	.bss                      _gus_max_percent_gu
000000b9	L	.text                     .DWLopt33
0000000c	G	.bss                      _gul_percent_pwm_unit
000000ce	L	.text                     .DWLopt34
00000050	G	.bss                      _gus_Td
000000db	L	.text                     .DWLopt35
0000002a	G	.bss                      _gus_val_a
000000e2	L	.text                     .DWLopt36
0000002c	G	.bss                      _gus_val_b
000000e8	L	.text                     .DWLopt37
0000002e	G	.bss                      _gus_val_c
000000ee	L	.text                     .DWLopt38
00000004	G	.bss                      _gus_max_comp_val
000000fa	L	.text                     .DWLopt39
00000006	G	.bss                      _gus_mid_comp_val
00000100	L	.text                     .DWLopt40
00000008	G	.bss                      _gus_min_comp_val
00000106	L	.text                     .DWLopt41
0000010d	L	.text                     .DWLopt42
00000066	G	.bss                      _gus_rate_per
00000118	L	.text                     .DWLopt43
00000018	G	.bss                      _theta
0000011f	L	.text                     .DWLopt44
00000060	G	.bss                      _gus_percent_k
00000125	L	.text                     .DWLopt45
00000062	G	.bss                      _gus_percent_pwm
0000012b	L	.text                     .DWLopt46
00000010	G	.bss                      _gus_now_theta
00000131	L	.text                     .DWLopt47
0000007c	G	.bss                      _gus_next_theta
00000137	L	.text                     .DWLopt48
0000013d	L	.text                     .DWLopt49
0000013e	L	.text                     .DWLopt4
00000078	G	.bss                      _gus_ADtrigger_repair_val
00000144	L	.text                     .DWLopt5
00000144	L	.text                     .DWLopt50
0000014b	L	.text                     .DWLopt6
0000014b	L	.text                     .DWLopt51
0000007a	G	.bss                      _gus_AD_SH_val
00000154	L	.text                     .DWLopt7
00000154	L	.text                     .DWLopt52
00000074	G	.bss                      _gus_TUP_ADtrigger
00000160	L	.text                     .DWLopt53
00000076	G	.bss                      _gus_TDW_ADtrigger
00000166	L	.text                     .DWLopt54
00000169	L	.text                     .DWLopt55
0000017b	L	.text                     .DWLopt56
00000183	L	.text                     .DWLopt57
00000189	L	.text                     .DWLopt58
00000192	L	.text                     .DWLopt59
0000019b	L	.text                     .DWLopt60
000001a5	L	.text                     .DWLopt61
000001ad	L	.text                     .DWLopt62
000001b5	L	.text                     .DWLopt63
000001be	L	.text                     .DWLopt64
000001c7	L	.text                     .DWLopt65
000001e3	L	.text                     L00032
000001d6	L	.text                     .DWLopt66
000001ec	L	.text                     L00033
000001e3	L	.text                     .DWLopt67
000001ec	L	.text                     .DWLopt68
000001f1	L	.text                     .DWLopt69
000001fa	L	.text                     .DWLopt70
00000203	L	.text                     .DWLopt71
0000020c	L	.text                     .DWLopt72
00000215	L	.text                     .DWLopt73
0000021e	L	.text                     .DWLopt74
00000229	L	.text                     .DWLopt75
0000022f	L	.text                     .DWLopt76
00000232	L	.text                     .DWLopt77
00000237	L	.text                     .DWLopt78
0000023c	L	.text                     .DWLopt79
00000240	L	.text                     .DWLopt80
00000249	L	.text                     .DWLopt81
00000252	L	.text                     .DWLopt82
0000025e	L	.text                     .DWLopt83
00000266	L	.text                     .DWLopt84
0000026a	L	.text                     .DWLopt85
0000026e	L	.text                     .DWLopt86
00000271	L	.text                     .DWLopt87
00000274	L	.text                     .DWLopt88
0000027b	L	.text                     .DWLopt89
00000282	L	.text                     .DWLopt90
00000288	L	.text                     .DWLopt91
00000290	L	.text                     .DWLopt92
00000295	L	.text                     .DWLopt93
0000029d	L	.text                     .DWLopt94
000002a0	L	.text                     .LDW26
00000000	L	.debug_MN_rsc             .LDW40
00000040	L	.debug_frame              .LDW125
00000028	L	.debug_frame              .LDW124
000002a0	G	.text                     _freq_rate_init
000002a3	G	.text                     _0freq_rate_init
000002a3	L	.text                     .DWLopt95
000002ab	L	.text                     .DWLopt96
000002b4	L	.text                     .DWLopt97
000002b6	L	.text                     .DWLopt98
0000003c	G	.bss                      _freq_rate
000002bc	L	.text                     .DWLopt99
000002cb	L	.text                     .DWLopt100
000002d2	L	.text                     .DWLopt101
000002d8	L	.text                     .DWLopt102
000002db	L	.text                     .LDW27
00000054	L	.debug_frame              .LDW133
00000044	L	.debug_frame              .LDW132
000002db	G	.text                     _open_pwm
000002db	G	.text                     _0open_pwm
000002db	L	.text                     .DWLopt103
000002e7	L	.text                     .DWLopt104
000002ed	L	.text                     .DWLopt105
000002f3	L	.text                     .DWLopt106
000002f9	L	.text                     .DWLopt107
000002ff	L	.text                     .DWLopt108
00000305	L	.text                     .DWLopt109
00000308	L	.text                     .DWLopt110
00000311	L	.text                     .DWLopt111
0000031a	L	.text                     .DWLopt112
0000031f	L	.text                     .DWLopt113
00000322	L	.text                     .LDW28
00000068	L	.debug_frame              .LDW146
00000058	L	.debug_frame              .LDW145
00000322	G	.text                     _shut_pwm
00000322	G	.text                     _0shut_pwm
00000322	L	.text                     .DWLopt114
00000328	L	.text                     .DWLopt115
00000335	L	.text                     .DWLopt116
00000342	L	.text                     .DWLopt117
0000034f	L	.text                     .DWLopt118
00000358	L	.text                     .DWLopt119
00000361	L	.text                     .DWLopt120
0000036a	L	.text                     .DWLopt121
00000376	L	.text                     .DWLopt122
0000037c	L	.text                     .DWLopt123
00000382	L	.text                     .DWLopt124
0000006c	G	.bss                      _rate_theta_buf
00000389	L	.text                     .DWLopt125
00000068	G	.bss                      _rate_theta
0000038f	L	.text                     .DWLopt126
00000395	L	.text                     .DWLopt127
0000039b	L	.text                     .DWLopt128
000003a1	L	.text                     .DWLopt129
000003a7	L	.text                     .DWLopt130
00000064	G	.bss                      _gus_percent_pwm_buf
000003ad	L	.text                     .DWLopt131
000003b3	L	.text                     .DWLopt132
0000001c	G	.bss                      _gus_freq_set
000003b9	L	.text                     .DWLopt133
0000001e	G	.bss                      _gus_freq_out
000003bf	L	.text                     .DWLopt134
00000032	G	.bss                      _gus_Uout_for_disp
000003c5	L	.text                     .DWLopt135
00000028	G	.bss                      _gus_Uout_real
000003cb	L	.text                     .DWLopt136
00000034	G	.bss                      _gsl_FreqPI_integral
000003d1	L	.text                     .DWLopt137
000003d4	L	.text                     .LDW29
0000007c	L	.debug_frame              .LDW172
0000006c	L	.debug_frame              .LDW171
000003d4	G	.text                     _bootstrap_charger_delaytime
000003d4	G	.text                     _0bootstrap_charger_delaytime
000003d4	L	.text                     .DWLopt138
00000000	G	.bss                      _flg_PWM
000003e8	L	.text                     Lcb0004
000003e5	L	.text                     .DWLopt139
000003e8	L	.text                     .DWLopt140
00000026	G	.bss                      _gss_bootstrap_charger_delaytimer
000003f5	L	.text                     .DWLopt141
0000041b	L	.text                     L00072
00000401	L	.text                     .DWLopt142
00000411	L	.text                     .DWLopt143
00000418	L	.text                     .DWLopt144
0000041b	L	.text                     .DWLopt145
0000045c	L	.text                     L00074
00000426	L	.text                     .DWLopt146
00000432	L	.text                     .DWLopt147
00000438	L	.text                     .DWLopt148
0000043e	L	.text                     .DWLopt149
00000441	L	.text                     .DWLopt150
0000044a	L	.text                     .DWLopt151
00000453	L	.text                     .DWLopt152
00000459	L	.text                     .DWLopt153
0000045c	L	.text                     .DWLopt154
000004b1	L	.text                     L00080
00000467	L	.text                     .DWLopt155
00000473	L	.text                     .DWLopt156
00000479	L	.text                     .DWLopt157
0000048d	L	.text                     .DWLopt158
00000496	L	.text                     .DWLopt159
0000049f	L	.text                     .DWLopt160
000004a8	L	.text                     .DWLopt161
000004ae	L	.text                     .DWLopt162
000004b1	L	.text                     .DWLopt163
0000050f	L	.text                     L00083
000004bc	L	.text                     .DWLopt164
000004c8	L	.text                     .DWLopt165
000004dc	L	.text                     .DWLopt166
000004e9	L	.text                     .DWLopt167
000004f2	L	.text                     .DWLopt168
000004fb	L	.text                     .DWLopt169
00000504	L	.text                     .DWLopt170
00000560	L	.text                     L00069
0000050f	L	.text                     .DWLopt171
00000518	L	.text                     .DWLopt172
0000052c	L	.text                     .DWLopt173
00000539	L	.text                     .DWLopt174
0000053f	L	.text                     .DWLopt175
00000548	L	.text                     .DWLopt176
00000551	L	.text                     .DWLopt177
0000055a	L	.text                     .DWLopt178
00000560	L	.text                     .DWLopt179
00000563	L	.text                     .LDW30
00000090	L	.debug_frame              .LDW212
00000080	L	.debug_frame              .LDW211
00000563	G	.text                     _check_freq_updata
00000565	G	.text                     _0check_freq_updata
00000565	L	.text                     .DWLopt191
00000578	L	.text                     Lcb000a
00000575	L	.text                     .DWLopt192
00000578	L	.text                     .DWLopt193
0000059f	L	.text                     Lcb000b
000006d0	L	.text                     L00090
0000059f	L	.text                     .DWLopt194
00000641	L	.text                     L00092
000005b3	L	.text                     .DWLopt195
000005ba	L	.text                     .DWLopt196
000005d0	L	.text                     L00411
000005d0	L	.text                     .DWLopt197
000005e1	L	.text                     L00413
0000004c	G	.bss                      _gus_stall_amp_accel
000005e7	L	.text                     .DWLopt198
000005fd	L	.text                     .DWLopt199
0000060a	L	.text                     .DWLopt181
0000060a	L	.text                     .DWLopt200
00000611	L	.text                     .DWLopt201
00000621	L	.text                     L00102
0000061b	L	.text                     .DWLopt202
00000621	L	.text                     .DWLopt182
00000621	L	.text                     .DWLopt203
00000638	L	.text                     L00103
00000632	L	.text                     .DWLopt204
00000638	L	.text                     .DWLopt183
00000638	L	.text                     .DWLopt205
0000063e	L	.text                     .DWLopt184
0000063e	L	.text                     .DWLopt206
00000641	L	.text                     .DWLopt207
000006a5	L	.text                     L00106
00000649	L	.text                     .DWLopt208
00000650	L	.text                     .DWLopt209
0000004e	G	.bss                      _gus_stall_amp_decel
0000065c	L	.text                     .DWLopt210
00000671	L	.text                     .DWLopt211
0000067d	L	.text                     .DWLopt212
0000067e	L	.text                     .DWLopt185
0000067e	L	.text                     .DWLopt213
00000689	L	.text                     L00109
00000686	L	.text                     .DWLopt214
00000689	L	.text                     .DWLopt186
00000689	L	.text                     .DWLopt215
00000690	L	.text                     .DWLopt216
0000071e	L	.text                     Lopt000002
0000069a	L	.text                     .DWLopt217
000006a0	L	.text                     .DWLopt187
000006a5	L	.text                     .DWLopt218
000006b1	L	.text                     .DWLopt219
000006b8	L	.text                     .DWLopt220
000006be	L	.text                     .DWLopt221
000006c5	L	.text                     .DWLopt222
000006cb	L	.text                     .DWLopt223
00000724	L	.text                     L00088
000006d0	L	.text                     .DWLopt224
000006d7	L	.text                     .DWLopt225
000006e3	L	.text                     .DWLopt226
000006ff	L	.text                     .DWLopt227
0000070b	L	.text                     .DWLopt228
0000070c	L	.text                     .DWLopt188
0000070c	L	.text                     .DWLopt229
00000717	L	.text                     L00114
00000714	L	.text                     .DWLopt230
00000717	L	.text                     .DWLopt189
00000717	L	.text                     .DWLopt231
0000071e	L	.text                     .DWLopt232
0000071e	L	.text                     .DWLopt233
00000724	L	.text                     .DWLopt190
00000724	L	.text                     .DWLopt234
00000727	L	.text                     .LDW31
00000029	L	.debug_MN_rsc             .LDW213
000000a8	L	.debug_frame              .LDW273
00000094	L	.debug_frame              .LDW272
00000727	G	.text                     _Sensored_cale_Vout
00000729	G	.text                     _0Sensored_cale_Vout
00000729	L	.text                     .DWLopt244
00000080	G	.bss                      _gus_PIctrl_delaytimer
0000072f	L	.text                     .DWLopt245
00000735	L	.text                     .DWLopt246
0000073c	L	.text                     .DWLopt247
00000749	L	.text                     Lcb0015
00000746	L	.text                     .DWLopt248
00000749	L	.text                     .DWLopt249
00000750	L	.text                     .DWLopt250
0000078b	L	.text                     L00119
00000772	L	.text                     .DWLopt251
0000077a	L	.text                     .DWLopt252
00000786	L	.text                     .DWLopt236
0000079f	L	.text                     L00125
0000078b	L	.text                     .DWLopt253
00000793	L	.text                     .DWLopt254
0000079f	L	.text                     .DWLopt237
0000079f	L	.text                     .DWLopt255
000007a5	L	.text                     .DWLopt256
000007ab	L	.text                     .DWLopt257
000007ac	L	.text                     .DWLopt258
000007af	L	.text                     .DWLopt238
000007b5	L	.text                     .DWLopt259
000007c4	L	.text                     L00127
000007be	L	.text                     .DWLopt260
000007d3	L	.text                     Lopt000003
000007c4	L	.text                     .DWLopt261
000007d9	L	.text                     L00128
000007d2	L	.text                     .DWLopt262
000007d3	L	.text                     .DWLopt263
000007d3	L	.text                     .DWLopt264
000007d9	L	.text                     .DWLopt265
000007e5	L	.text                     .DWLopt266
000007e9	L	.text                     .DWLopt239
000007e9	L	.text                     .DWLopt267
00000803	L	.text                     L00131
000007ff	L	.text                     .DWLopt268
00000803	L	.text                     .DWLopt240
00000803	L	.text                     .DWLopt269
0000080a	L	.text                     .DWLopt270
0000080d	L	.text                     .DWLopt271
0000081c	L	.text                     L00132
00000816	L	.text                     .DWLopt272
00000817	L	.text                     .DWLopt241
0000082b	L	.text                     L00133
0000081c	L	.text                     .DWLopt273
0000082a	L	.text                     .DWLopt274
0000082b	L	.text                     .DWLopt242
0000082b	L	.text                     .DWLopt275
00000831	L	.text                     .DWLopt276
00000832	L	.text                     .DWLopt243
00000832	L	.text                     .DWLopt277
00000833	L	.text                     .DWLopt278
00000841	L	.text                     .DWLopt279
00000844	L	.text                     .LDW32
0000006a	L	.debug_MN_rsc             .LDW274
000000c0	L	.debug_frame              .LDW317
000000ac	L	.debug_frame              .LDW316
00000844	G	.text                     _calc_percent_theta
00000847	G	.text                     _0calc_percent_theta
00000847	L	.text                     .DWLopt287
0000084d	L	.text                     .DWLopt288
00000853	L	.text                     .DWLopt289
00000854	L	.text                     .DWLopt290
00000856	L	.text                     .DWLopt291
0000085c	L	.text                     .DWLopt292
0000085f	L	.text                     .DWLopt282
0000085f	L	.text                     .DWLopt293
00000862	L	.text                     .DWLopt294
0000086b	L	.text                     .DWLopt295
00000876	L	.text                     .DWLopt284
00000876	L	.text                     .DWLopt283
00000876	L	.text                     .DWLopt296
00000882	L	.text                     L00140
00000881	L	.text                     .DWLopt297
00000882	L	.text                     .DWLopt285
00000882	L	.text                     .DWLopt298
00000888	L	.text                     .DWLopt286
00000888	L	.text                     .DWLopt299
00000891	L	.text                     .DWLopt300
00000897	L	.text                     .DWLopt301
0000089d	L	.text                     .DWLopt302
000008a1	L	.text                     .DWLopt303
000008bf	L	.text                     L00145
000008b0	L	.text                     .DWLopt304
00000919	L	.text                     Lopt000005
000008bf	L	.text                     .DWLopt305
000008f5	L	.text                     L00148
000008d0	L	.text                     .DWLopt306
0000091f	L	.text                     L00147
000008e1	L	.text                     .DWLopt307
000008e7	L	.text                     .DWLopt308
000008f0	L	.text                     .DWLopt309
000008f5	L	.text                     .DWLopt310
0000090a	L	.text                     .DWLopt311
00000910	L	.text                     .DWLopt312
00000919	L	.text                     .DWLopt313
00000919	L	.text                     .DWLopt314
00000919	L	.text                     .DWLopt315
0000091f	L	.text                     .DWLopt316
0000093b	L	.text                     L00430
0000094c	L	.text                     L00429
0000098b	L	.text                     L00153
0000094c	L	.text                     .DWLopt317
00000960	L	.text                     L00154
0000095d	L	.text                     .DWLopt318
00000960	L	.text                     .DWLopt319
00000974	L	.text                     L00156
00000971	L	.text                     .DWLopt320
00000974	L	.text                     .DWLopt321
00000977	L	.text                     .DWLopt322
0000097a	L	.text                     .DWLopt323
00000980	L	.text                     .DWLopt324
00000986	L	.text                     .DWLopt325
000009b1	L	.text                     Lopt000004
0000098b	L	.text                     .DWLopt326
0000099f	L	.text                     L00162
0000099c	L	.text                     .DWLopt327
0000099f	L	.text                     .DWLopt328
000009a2	L	.text                     .DWLopt329
000009a5	L	.text                     .DWLopt330
000009ab	L	.text                     .DWLopt331
000009b1	L	.text                     .DWLopt332
000009b1	L	.text                     .DWLopt333
000009b6	L	.text                     .DWLopt334
000009b6	L	.text                     .DWLopt335
000009bc	L	.text                     .DWLopt336
000009d6	L	.text                     .DWLopt337
000009dc	L	.text                     .DWLopt338
000009f8	L	.text                     L00166
000009ec	L	.text                     .DWLopt339
00000a0c	L	.text                     L00169
000009f8	L	.text                     .DWLopt340
00000a0c	L	.text                     .DWLopt341
00000a1c	L	.text                     .DWLopt342
00000a1f	L	.text                     .LDW33
0000009f	L	.debug_MN_rsc             .LDW318
000000d4	L	.debug_frame              .LDW372
000000c4	L	.debug_frame              .LDW371
00000a1f	G	.text                     _calc_comp_val
00000a24	G	.text                     _0calc_comp_val
00000a24	L	.text                     .DWLopt346
00000a30	L	.text                     .DWLopt347
00000a33	L	.text                     .DWLopt348
00000a3a	L	.text                     .DWLopt349
00000a5a	L	.text                     L00175
00000a48	L	.text                     .DWLopt350
00000a49	L	.text                     .DWLopt351
00000a57	L	.text                     .DWLopt352
00000a5a	L	.text                     .DWLopt353
00000a62	L	.text                     .DWLopt354
00000a6f	L	.text                     .DWLopt355
00000a84	L	.text                     L00179
00000a78	L	.text                     .DWLopt356
00000a79	L	.text                     .DWLopt357
00000a81	L	.text                     .DWLopt358
00000a84	L	.text                     .DWLopt359
00000ace	L	.text                     L00181
00000a95	L	.text                     .DWLopt360
00000a98	L	.text                     .DWLopt344
00000a98	L	.text                     .DWLopt361
00000b8d	G	.text                     _0get_tai_comp_value
00000aa5	L	.text                     .DWLopt362
00000aa8	L	.text                     .DWLopt363
00000aba	L	.text                     .DWLopt364
00000abd	L	.text                     .DWLopt365
00000b02	L	.text                     Lopt000006
00000ace	L	.text                     .DWLopt366
00000ad1	L	.text                     .DWLopt345
00000ad1	L	.text                     .DWLopt367
00000d41	G	.text                     _0get_svpwm_comp_value
00000ade	L	.text                     .DWLopt368
00000ae1	L	.text                     .DWLopt369
00000af3	L	.text                     .DWLopt370
00000af6	L	.text                     .DWLopt371
00000b02	L	.text                     .DWLopt372
00000b02	L	.text                     .DWLopt373
00000b08	L	.text                     .DWLopt374
00000b0b	L	.text                     .LDW34
000000c2	L	.debug_MN_rsc             .LDW373
000000ea	L	.debug_frame              .LDW404
000000d8	L	.debug_frame              .LDW403
00000b0b	G	.text                     _get_sin_value
00000b0d	G	.text                     _0get_sin_value
00000b0d	L	.text                     .DWLopt376
00000b0d	L	.text                     .DWLopt392
00000b0e	L	.text                     .DWLopt379
00000b0e	L	.text                     .DWLopt377
00000b0e	L	.text                     .DWLopt393
00000b22	L	.text                     L00198
00000b1a	L	.text                     .DWLopt394
00000b1b	L	.text                     .DWLopt395
00000b1e	L	.text                     .DWLopt380
00000b1e	L	.text                     .DWLopt396
00000b22	L	.text                     .DWLopt397
00000b3d	L	.text                     L00200
00000b2d	L	.text                     .DWLopt398
00000b2f	L	.text                     .DWLopt381
00000b38	L	.text                     .DWLopt388
00000b86	L	.text                     L00203
00000b3d	L	.text                     .DWLopt399
00000b59	L	.text                     L00204
00000b48	L	.text                     .DWLopt400
00000b4a	L	.text                     .DWLopt382
00000b4a	L	.text                     .DWLopt401
00000b4b	L	.text                     .DWLopt383
00000b54	L	.text                     .DWLopt389
00000b59	L	.text                     .DWLopt402
00000b75	L	.text                     L00206
00000b64	L	.text                     .DWLopt403
00000b66	L	.text                     .DWLopt384
00000b66	L	.text                     .DWLopt404
00000b67	L	.text                     .DWLopt385
00000b67	L	.text                     .DWLopt378
00000b82	L	.text                     Lopt000007
00000b75	L	.text                     .DWLopt405
00000b77	L	.text                     .DWLopt386
00000b77	L	.text                     .DWLopt406
00000b78	L	.text                     .DWLopt387
00000b82	L	.text                     .DWLopt407
00000b82	L	.text                     .DWLopt408
00000b86	L	.text                     .DWLopt390
00000b86	L	.text                     .DWLopt409
00000b87	L	.text                     .DWLopt391
00000b87	L	.text                     .DWLopt410
00000b8a	L	.text                     .LDW35
000000d3	L	.debug_MN_rsc             .LDW405
000000f0	L	.debug_MN_rsc             .LDW414
00000102	L	.debug_frame              .LDW445
000000ee	L	.debug_frame              .LDW444
00000b8a	G	.text                     _get_tai_comp_value
00000b8d	L	.text                     .DWLopt413
00000b8d	L	.text                     .DWLopt430
00000b8e	L	.text                     .DWLopt414
00000b9f	L	.text                     L00212
00000b99	L	.text                     .DWLopt431
00000b9a	L	.text                     .DWLopt432
00000b9c	L	.text                     .DWLopt420
00000b9c	L	.text                     .DWLopt433
00000b9d	L	.text                     .DWLopt421
00000b9d	L	.text                     .DWLopt415
00000b9f	L	.text                     .DWLopt434
00000bf8	L	.text                     L00214
00000baa	L	.text                     .DWLopt435
00000bae	L	.text                     .DWLopt422
00000bae	L	.text                     .DWLopt436
00000baf	L	.text                     .DWLopt423
00000baf	L	.text                     .DWLopt416
00000bb4	L	.text                     .DWLopt437
00000bba	L	.text                     .DWLopt438
00000bbb	L	.text                     .DWLopt439
00000bbf	L	.text                     .DWLopt440
00000bdb	L	.text                     L00219
00000bd2	L	.text                     .DWLopt441
00000bdb	L	.text                     .DWLopt442
00000bf3	L	.text                     Lcb0032
00000d36	L	.text                     L00223
00000bf3	L	.text                     .DWLopt443
00000d2d	L	.text                     Lopt000008
00000bf8	L	.text                     .DWLopt444
00000c0f	L	.text                     L00224
00000c03	L	.text                     .DWLopt445
00000d33	L	.text                     Lopt000009
00000c0f	L	.text                     .DWLopt446
00000c68	L	.text                     L00227
00000c1a	L	.text                     .DWLopt447
00000c1e	L	.text                     .DWLopt424
00000c1e	L	.text                     .DWLopt448
00000c1f	L	.text                     .DWLopt425
00000c1f	L	.text                     .DWLopt417
00000c24	L	.text                     .DWLopt449
00000c2a	L	.text                     .DWLopt450
00000c2b	L	.text                     .DWLopt451
00000c2f	L	.text                     .DWLopt452
00000c4b	L	.text                     L00229
00000c42	L	.text                     .DWLopt453
00000c4b	L	.text                     .DWLopt454
00000c63	L	.text                     Lcb0036
00000c63	L	.text                     .DWLopt455
00000c68	L	.text                     .DWLopt456
00000cc6	L	.text                     L00232
00000c73	L	.text                     .DWLopt457
00000c77	L	.text                     .DWLopt426
00000c77	L	.text                     .DWLopt458
00000c78	L	.text                     .DWLopt427
00000c78	L	.text                     .DWLopt418
00000c7d	L	.text                     .DWLopt459
00000c83	L	.text                     .DWLopt460
00000c84	L	.text                     .DWLopt461
00000c88	L	.text                     .DWLopt462
00000c95	L	.text                     .DWLopt463
00000cae	L	.text                     L00234
00000ca5	L	.text                     .DWLopt464
00000cae	L	.text                     .DWLopt465
00000cc1	L	.text                     .DWLopt466
00000cc6	L	.text                     .DWLopt467
00000cd7	L	.text                     L00237
00000cd1	L	.text                     .DWLopt468
00000cd7	L	.text                     .DWLopt469
00000cdf	L	.text                     .DWLopt470
00000ce3	L	.text                     .DWLopt428
00000ce3	L	.text                     .DWLopt471
00000ce4	L	.text                     .DWLopt429
00000ce4	L	.text                     .DWLopt419
00000ce9	L	.text                     .DWLopt472
00000cef	L	.text                     .DWLopt473
00000cf0	L	.text                     .DWLopt474
00000cf4	L	.text                     .DWLopt475
00000d01	L	.text                     .DWLopt476
00000d1a	L	.text                     L00241
00000d11	L	.text                     .DWLopt477
00000d1a	L	.text                     .DWLopt478
00000d2d	L	.text                     .DWLopt479
00000d2d	L	.text                     .DWLopt480
00000d2d	L	.text                     .DWLopt481
00000d2d	L	.text                     .DWLopt482
00000d33	L	.text                     .DWLopt483
00000d33	L	.text                     .DWLopt484
00000d33	L	.text                     .DWLopt485
00000d33	L	.text                     .DWLopt486
00000d33	L	.text                     .DWLopt487
00000d33	L	.text                     .DWLopt488
00000d36	L	.text                     .DWLopt489
00000d39	L	.text                     .DWLopt490
00000d3c	L	.text                     .LDW36
0000013d	L	.debug_MN_rsc             .LDW446
00000116	L	.debug_frame              .LDW509
00000106	L	.debug_frame              .LDW508
00000d3c	G	.text                     _get_svpwm_comp_value
00000d41	L	.text                     .DWLopt496
00000d41	L	.text                     .DWLopt505
00000d42	L	.text                     .DWLopt497
00000d53	L	.text                     L00247
00000d4d	L	.text                     .DWLopt506
00000d4e	L	.text                     .DWLopt507
00000d50	L	.text                     .DWLopt500
00000d50	L	.text                     .DWLopt508
00000d51	L	.text                     .DWLopt501
00000d51	L	.text                     .DWLopt498
00000d53	L	.text                     .DWLopt509
00000dbb	L	.text                     Lopt000010
00000d5e	L	.text                     .DWLopt510
00000d8a	L	.text                     Lopt000012
00000d69	L	.text                     .DWLopt511
00000d9b	L	.text                     Lopt000011
00000d74	L	.text                     .DWLopt512
00000d7f	L	.text                     .DWLopt513
00000d90	L	.text                     L00265
00000d8a	L	.text                     .DWLopt514
00000d8a	L	.text                     .DWLopt515
00000d8b	L	.text                     .DWLopt502
00000d8b	L	.text                     .DWLopt516
00000d9d	L	.text                     Lopt000013
00000d90	L	.text                     .DWLopt517
00000db3	L	.text                     L00268
00000d9b	L	.text                     .DWLopt518
00000d9b	L	.text                     .DWLopt519
00000d9d	L	.text                     .DWLopt503
00000d9d	L	.text                     .DWLopt520
00000d9d	L	.text                     .DWLopt521
00000d9d	L	.text                     .DWLopt522
00000d9d	L	.text                     .DWLopt523
00000d9e	L	.text                     .DWLopt504
00000d9e	L	.text                     .DWLopt499
00000da3	L	.text                     .DWLopt524
00000da3	L	.text                     .DWLopt525
00000da3	L	.text                     .DWLopt526
00000da3	L	.text                     .DWLopt527
00000da9	L	.text                     .DWLopt528
00000da9	L	.text                     .DWLopt529
00000da9	L	.text                     .DWLopt530
00000da9	L	.text                     .DWLopt531
00000daa	L	.text                     .DWLopt532
00000daa	L	.text                     .DWLopt533
00000daa	L	.text                     .DWLopt534
00000daa	L	.text                     .DWLopt535
00000dae	L	.text                     .DWLopt536
00000dd6	L	.text                     Lopt000014
00000db3	L	.text                     .DWLopt537
00000de3	L	.text                     L00255
00000dbb	L	.text                     .DWLopt538
00000dbb	L	.text                     .DWLopt539
00000dbb	L	.text                     .DWLopt540
00000dca	L	.text                     .DWLopt541
00000dca	L	.text                     .DWLopt542
00000dca	L	.text                     .DWLopt543
00000dd6	L	.text                     .DWLopt544
00000dd6	L	.text                     .DWLopt545
00000dd6	L	.text                     .DWLopt546
00000dd6	L	.text                     .DWLopt547
00000dd6	L	.text                     .DWLopt548
00000dd6	L	.text                     .DWLopt549
00000dd6	L	.text                     .DWLopt550
00000de3	L	.text                     .DWLopt551
00000dff	L	.text                     L00273
00000df6	L	.text                     .DWLopt552
00000dff	L	.text                     .DWLopt553
00000e1b	L	.text                     L00275
00000e12	L	.text                     .DWLopt554
00000e1b	L	.text                     .DWLopt555
00000e1e	L	.text                     .DWLopt556
00000e21	L	.text                     .LDW37
000001a8	L	.debug_MN_rsc             .LDW510
0000012c	L	.debug_frame              .LDW568
0000011a	L	.debug_frame              .LDW567
00000e21	G	.text                     _PWM_Reload_INT
00000e26	G	.text                     _0PWM_Reload_INT
00000e26	L	.text                     .DWLopt561
00000e3b	L	.text                     Lcb0048
0000104e	L	.text                     L00280
00000e3b	L	.text                     .DWLopt562
00000e65	L	.text                     L00282
00000e45	L	.text                     .DWLopt563
00000e4e	L	.text                     .DWLopt564
00000e57	L	.text                     .DWLopt565
00000e80	L	.text                     L00286
00000e65	L	.text                     .DWLopt566
00000e6e	L	.text                     .DWLopt567
00000e77	L	.text                     .DWLopt568
00000e80	L	.text                     .DWLopt569
00000eec	L	.text                     L00287
00000e92	L	.text                     .DWLopt570
00000ec8	L	.text                     L00466
00000f3c	L	.text                     L00303
00000ec8	L	.text                     .DWLopt571
00000ed7	L	.text                     .DWLopt572
00000f10	L	.text                     Lopt000017
00000ee7	L	.text                     .DWLopt573
00000f2e	L	.text                     Lopt000016
00000eec	L	.text                     .DWLopt574
00000ef2	L	.text                     .DWLopt575
00000ef8	L	.text                     .DWLopt576
00000f01	L	.text                     .DWLopt577
00000f1f	L	.text                     L00300
00000f10	L	.text                     .DWLopt578
00000f10	L	.text                     .DWLopt579
00000f1a	L	.text                     .DWLopt580
00000f46	L	.text                     Lopt000018
00000f1f	L	.text                     .DWLopt581
00000f2e	L	.text                     .DWLopt582
00000f2e	L	.text                     .DWLopt583
00000f37	L	.text                     .DWLopt584
00000f3c	L	.text                     .DWLopt585
00000f3c	L	.text                     .DWLopt586
00000f46	L	.text                     .DWLopt587
00000f46	L	.text                     .DWLopt588
00000f46	L	.text                     .DWLopt589
00000f46	L	.text                     .DWLopt590
00000f46	L	.text                     .DWLopt591
00000f46	L	.text                     .DWLopt592
00000f4c	L	.text                     .DWLopt593
000010a4	G	.text                     _0comp_val_order
00000f53	L	.text                     .DWLopt594
00000fa2	L	.text                     L00306
00000f65	L	.text                     .DWLopt595
00000f8a	L	.text                     .DWLopt596
00000fbc	L	.text                     L00309
00000fa2	L	.text                     .DWLopt597
00000fa8	L	.text                     .DWLopt598
00000fae	L	.text                     .DWLopt599
00000fb4	L	.text                     .DWLopt600
00000fbc	L	.text                     .DWLopt601
00000fc5	L	.text                     .DWLopt602
00000fd7	L	.text                     .DWLopt603
00001044	L	.text                     L00310
00000fe8	L	.text                     .DWLopt604
00000ff2	L	.text                     .DWLopt605
00001011	L	.text                     L00311
00000ffe	L	.text                     .DWLopt606
00001004	L	.text                     .DWLopt607
00001026	L	.text                     Lopt000015
00001011	L	.text                     .DWLopt608
0000102c	L	.text                     L00312
00001022	L	.text                     .DWLopt609
00001026	L	.text                     .DWLopt610
00001026	L	.text                     .DWLopt611
0000102c	L	.text                     .DWLopt612
00001038	L	.text                     .DWLopt613
00001044	L	.text                     .DWLopt614
00001091	L	.text                     L00319
0000104e	L	.text                     .DWLopt615
0000105d	L	.text                     .DWLopt616
00001069	L	.text                     .DWLopt617
00001075	L	.text                     .DWLopt618
0000107e	L	.text                     .DWLopt619
00001091	L	.text                     .DWLopt620
00001098	L	.text                     .DWLopt621
0000109f	L	.text                     .DWLopt622
000010a2	L	.text                     .LDW38
00000146	L	.debug_frame              .LDW620
00000130	L	.debug_frame              .LDW619
000010a2	G	.text                     _comp_val_order
000010a4	L	.text                     .DWLopt624
000010aa	L	.text                     .DWLopt625
000010b6	L	.text                     .DWLopt626
000010bc	L	.text                     .DWLopt627
000010c2	L	.text                     .DWLopt628
000010c3	L	.text                     .DWLopt629
000010c9	L	.text                     .DWLopt630
000010d5	L	.text                     Lcb0054
00001165	L	.text                     L00327
000010d5	L	.text                     .DWLopt631
00001140	L	.text                     L00330
000010e3	L	.text                     .DWLopt632
00001115	L	.text                     L00332
000010eb	L	.text                     .DWLopt633
000010f7	L	.text                     .DWLopt634
00001103	L	.text                     .DWLopt635
0000110f	L	.text                     .DWLopt636
000011f1	L	.text                     Lopt000019
00001115	L	.text                     .DWLopt637
00001121	L	.text                     .DWLopt638
0000112d	L	.text                     .DWLopt639
00001139	L	.text                     .DWLopt640
00001140	L	.text                     .DWLopt641
00001146	L	.text                     .DWLopt642
00001152	L	.text                     .DWLopt643
0000115e	L	.text                     .DWLopt644
00001165	L	.text                     .DWLopt645
000011d1	L	.text                     L00340
00001173	L	.text                     .DWLopt646
000011a6	L	.text                     L00341
0000117b	L	.text                     .DWLopt647
00001187	L	.text                     .DWLopt648
00001193	L	.text                     .DWLopt649
0000119f	L	.text                     .DWLopt650
000011a6	L	.text                     .DWLopt651
000011b2	L	.text                     .DWLopt652
000011be	L	.text                     .DWLopt653
000011ca	L	.text                     .DWLopt654
000011cc	L	.text                     .DWLopt655
000011d1	L	.text                     .DWLopt656
000011d7	L	.text                     .DWLopt657
000011e3	L	.text                     .DWLopt658
000011ef	L	.text                     .DWLopt659
000011f1	L	.text                     .DWLopt660
000011f1	L	.text                     .DWLopt661
000011f1	L	.text                     .DWLopt662
000011f1	L	.text                     .DWLopt663
000011f1	L	.text                     .DWLopt664
000011f1	L	.text                     .DWLopt665
0000000a	G	.bss                      _gus_val_abc_order
000011f7	L	.text                     .DWLopt666
000011fa	L	.text                     .LDW39
0000015c	L	.debug_frame              .LDW657
0000014a	L	.debug_frame              .LDW656
00000014	G	.bss                      _gul_theta
00000020	G	.bss                      _gus_freq_real
00000022	G	.bss                      _gus_speed_real
00000024	G	.bss                      _gus_MAX_setfreq
00000038	G	.bss                      _gsl_PI_initval
00000070	G	.bss                      _theta_buf
0000007e	G	.bss                      _gus_speed_out
000011fa	L	.text                     .LPC_END
00000000	L	.debug_abbrev             .LAB_TOP
00000000	L	.debug_info               .LI_TOP
00000db6	L	.debug_info               .LI_E
00000004	L	.debug_info               .LI_B
00000000	L	.debug_line               .LLN_TOP
000000a6	L	.debug_info               .LDW10
000000b1	L	.debug_info               .LDW9
000000bb	L	.debug_info               .LDW8
000000c9	L	.debug_info               .LDW7
000000d2	L	.debug_info               .LDW6
000000dc	L	.debug_info               .LDW5
000000e5	L	.debug_info               .LDW4
000000f3	L	.debug_info               .LDW3
000000fc	L	.debug_info               .LDW2
00000106	L	.debug_info               .LDW1
000001a3	L	.debug_info               .LDW11
000001bf	L	.debug_info               .LDW12
000001db	L	.debug_info               .LDW13
0000022b	L	.debug_info               .LDW14
00000247	L	.debug_info               .LDW15
00000276	L	.debug_info               .LDW16
00000292	L	.debug_info               .LDW17
000002c1	L	.debug_info               .LDW18
00000327	L	.debug_info               .LDW19
00000343	L	.debug_info               .LDW20
0000035f	L	.debug_info               .LDW21
000003a7	L	.debug_info               .LDW22
000004b0	L	.debug_info               .LDW23
000004dd	L	.debug_info               .LDW24
0000054c	L	.debug_info               .LDW25
000013da	L	.debug_line               .LLN_E
00000004	L	.debug_line               .LLN_B
0000002d	L	.debug_line               .LLN_P_E
0000000a	L	.debug_line               .LLN_P_B
00000208	L	.debug_aranges            .LAR_E
00000004	L	.debug_aranges            .LAR_B
